
AVRASM ver. 2.1.30  C:\Users\Admin\Desktop\mbscan-type\Debug\List\mbscan.asm Mon Sep 12 17:16:32 2022

C:\Users\Admin\Desktop\mbscan-type\Debug\List\mbscan.asm(1087): warning: Register r4 already defined by the .DEF directive
C:\Users\Admin\Desktop\mbscan-type\Debug\List\mbscan.asm(1088): warning: Register r5 already defined by the .DEF directive
C:\Users\Admin\Desktop\mbscan-type\Debug\List\mbscan.asm(1089): warning: Register r6 already defined by the .DEF directive
C:\Users\Admin\Desktop\mbscan-type\Debug\List\mbscan.asm(1090): warning: Register r7 already defined by the .DEF directive
C:\Users\Admin\Desktop\mbscan-type\Debug\List\mbscan.asm(1091): warning: Register r8 already defined by the .DEF directive
C:\Users\Admin\Desktop\mbscan-type\Debug\List\mbscan.asm(1092): warning: Register r9 already defined by the .DEF directive
C:\Users\Admin\Desktop\mbscan-type\Debug\List\mbscan.asm(1093): warning: Register r10 already defined by the .DEF directive
C:\Users\Admin\Desktop\mbscan-type\Debug\List\mbscan.asm(1094): warning: Register r11 already defined by the .DEF directive
C:\Users\Admin\Desktop\mbscan-type\Debug\List\mbscan.asm(1095): warning: Register r12 already defined by the .DEF directive
C:\Users\Admin\Desktop\mbscan-type\Debug\List\mbscan.asm(1096): warning: Register r13 already defined by the .DEF directive
                 
                 
                 ;CodeVisionAVR C Compiler V3.12 Advanced
                 ;(C) Copyright 1998-2014 Pavel Haiduc, HP InfoTech s.r.l.
                 ;http://www.hpinfotech.com
                 
                 ;Build configuration    : Debug
                 ;Chip type              : ATmega32A
                 ;Program type           : Application
                 ;Clock frequency        : 11.059200 MHz
                 ;Memory model           : Small
                 ;Optimize for           : Speed
                 ;(s)printf features     : int, width
                 ;(s)scanf features      : int, width
                 ;External RAM size      : 0
                 ;Data Stack size        : 256 byte(s)
                 ;Heap size              : 0 byte(s)
                 ;Promote 'char' to 'int': Yes
                 ;'char' is unsigned     : Yes
                 ;8 bit enums            : Yes
                 ;Global 'const' stored in FLASH: Yes
                 ;Enhanced function parameter passing: Yes
                 ;Enhanced core instructions: On
                 ;Automatic register allocation for global variables: On
                 ;Smart register allocation: On
                 
                 	#define _MODEL_SMALL_
                 
                 	#pragma AVRPART ADMIN PART_NAME ATmega32A
                 	#pragma AVRPART MEMORY PROG_FLASH 32768
                 	#pragma AVRPART MEMORY EEPROM 1024
                 	#pragma AVRPART MEMORY INT_SRAM SIZE 2048
                 	#pragma AVRPART MEMORY INT_SRAM START_ADDR 0x60
                 
                 	#define CALL_SUPPORTED 1
                 
                 	.LISTMAC
                 	.EQU UDRE=0x5
                 	.EQU RXC=0x7
                 	.EQU USR=0xB
                 	.EQU UDR=0xC
                 	.EQU SPSR=0xE
                 	.EQU SPDR=0xF
                 	.EQU EERE=0x0
                 	.EQU EEWE=0x1
                 	.EQU EEMWE=0x2
                 	.EQU EECR=0x1C
                 	.EQU EEDR=0x1D
                 	.EQU EEARL=0x1E
                 	.EQU EEARH=0x1F
                 	.EQU WDTCR=0x21
                 	.EQU MCUCR=0x35
                 	.EQU SPL=0x3D
                 	.EQU SPH=0x3E
                 	.EQU SREG=0x3F
                 
                 	.DEF R0X0=R0
                 	.DEF R0X1=R1
                 	.DEF R0X2=R2
                 	.DEF R0X3=R3
                 	.DEF R0X4=R4
                 	.DEF R0X5=R5
                 	.DEF R0X6=R6
                 	.DEF R0X7=R7
                 	.DEF R0X8=R8
                 	.DEF R0X9=R9
                 	.DEF R0XA=R10
                 	.DEF R0XB=R11
                 	.DEF R0XC=R12
                 	.DEF R0XD=R13
                 	.DEF R0XE=R14
                 	.DEF R0XF=R15
                 	.DEF R0X10=R16
                 	.DEF R0X11=R17
                 	.DEF R0X12=R18
                 	.DEF R0X13=R19
                 	.DEF R0X14=R20
                 	.DEF R0X15=R21
                 	.DEF R0X16=R22
                 	.DEF R0X17=R23
                 	.DEF R0X18=R24
                 	.DEF R0X19=R25
                 	.DEF R0X1A=R26
                 	.DEF R0X1B=R27
                 	.DEF R0X1C=R28
                 	.DEF R0X1D=R29
                 	.DEF R0X1E=R30
                 	.DEF R0X1F=R31
                 
                 	.EQU __SRAM_START=0x0060
                 	.EQU __SRAM_END=0x085F
                 	.EQU __DSTACK_SIZE=0x0100
                 	.EQU __HEAP_SIZE=0x0000
                 	.EQU __CLEAR_SRAM_SIZE=__SRAM_END-__SRAM_START+1
                 
                 	.MACRO __CPD1N
                 	CPI  R30,LOW(@0)
                 	LDI  R26,HIGH(@0)
                 	CPC  R31,R26
                 	LDI  R26,BYTE3(@0)
                 	CPC  R22,R26
                 	LDI  R26,BYTE4(@0)
                 	CPC  R23,R26
                 	.ENDM
                 
                 	.MACRO __CPD2N
                 	CPI  R26,LOW(@0)
                 	LDI  R30,HIGH(@0)
                 	CPC  R27,R30
                 	LDI  R30,BYTE3(@0)
                 	CPC  R24,R30
                 	LDI  R30,BYTE4(@0)
                 	CPC  R25,R30
                 	.ENDM
                 
                 	.MACRO __CPWRR
                 	CP   R@0,R@2
                 	CPC  R@1,R@3
                 	.ENDM
                 
                 	.MACRO __CPWRN
                 	CPI  R@0,LOW(@2)
                 	LDI  R30,HIGH(@2)
                 	CPC  R@1,R30
                 	.ENDM
                 
                 	.MACRO __ADDB1MN
                 	SUBI R30,LOW(-@0-(@1))
                 	.ENDM
                 
                 	.MACRO __ADDB2MN
                 	SUBI R26,LOW(-@0-(@1))
                 	.ENDM
                 
                 	.MACRO __ADDW1MN
                 	SUBI R30,LOW(-@0-(@1))
                 	SBCI R31,HIGH(-@0-(@1))
                 	.ENDM
                 
                 	.MACRO __ADDW2MN
                 	SUBI R26,LOW(-@0-(@1))
                 	SBCI R27,HIGH(-@0-(@1))
                 	.ENDM
                 
                 	.MACRO __ADDW1FN
                 	SUBI R30,LOW(-2*@0-(@1))
                 	SBCI R31,HIGH(-2*@0-(@1))
                 	.ENDM
                 
                 	.MACRO __ADDD1FN
                 	SUBI R30,LOW(-2*@0-(@1))
                 	SBCI R31,HIGH(-2*@0-(@1))
                 	SBCI R22,BYTE3(-2*@0-(@1))
                 	.ENDM
                 
                 	.MACRO __ADDD1N
                 	SUBI R30,LOW(-@0)
                 	SBCI R31,HIGH(-@0)
                 	SBCI R22,BYTE3(-@0)
                 	SBCI R23,BYTE4(-@0)
                 	.ENDM
                 
                 	.MACRO __ADDD2N
                 	SUBI R26,LOW(-@0)
                 	SBCI R27,HIGH(-@0)
                 	SBCI R24,BYTE3(-@0)
                 	SBCI R25,BYTE4(-@0)
                 	.ENDM
                 
                 	.MACRO __SUBD1N
                 	SUBI R30,LOW(@0)
                 	SBCI R31,HIGH(@0)
                 	SBCI R22,BYTE3(@0)
                 	SBCI R23,BYTE4(@0)
                 	.ENDM
                 
                 	.MACRO __SUBD2N
                 	SUBI R26,LOW(@0)
                 	SBCI R27,HIGH(@0)
                 	SBCI R24,BYTE3(@0)
                 	SBCI R25,BYTE4(@0)
                 	.ENDM
                 
                 	.MACRO __ANDBMNN
                 	LDS  R30,@0+(@1)
                 	ANDI R30,LOW(@2)
                 	STS  @0+(@1),R30
                 	.ENDM
                 
                 	.MACRO __ANDWMNN
                 	LDS  R30,@0+(@1)
                 	ANDI R30,LOW(@2)
                 	STS  @0+(@1),R30
                 	LDS  R30,@0+(@1)+1
                 	ANDI R30,HIGH(@2)
                 	STS  @0+(@1)+1,R30
                 	.ENDM
                 
                 	.MACRO __ANDD1N
                 	ANDI R30,LOW(@0)
                 	ANDI R31,HIGH(@0)
                 	ANDI R22,BYTE3(@0)
                 	ANDI R23,BYTE4(@0)
                 	.ENDM
                 
                 	.MACRO __ANDD2N
                 	ANDI R26,LOW(@0)
                 	ANDI R27,HIGH(@0)
                 	ANDI R24,BYTE3(@0)
                 	ANDI R25,BYTE4(@0)
                 	.ENDM
                 
                 	.MACRO __ORBMNN
                 	LDS  R30,@0+(@1)
                 	ORI  R30,LOW(@2)
                 	STS  @0+(@1),R30
                 	.ENDM
                 
                 	.MACRO __ORWMNN
                 	LDS  R30,@0+(@1)
                 	ORI  R30,LOW(@2)
                 	STS  @0+(@1),R30
                 	LDS  R30,@0+(@1)+1
                 	ORI  R30,HIGH(@2)
                 	STS  @0+(@1)+1,R30
                 	.ENDM
                 
                 	.MACRO __ORD1N
                 	ORI  R30,LOW(@0)
                 	ORI  R31,HIGH(@0)
                 	ORI  R22,BYTE3(@0)
                 	ORI  R23,BYTE4(@0)
                 	.ENDM
                 
                 	.MACRO __ORD2N
                 	ORI  R26,LOW(@0)
                 	ORI  R27,HIGH(@0)
                 	ORI  R24,BYTE3(@0)
                 	ORI  R25,BYTE4(@0)
                 	.ENDM
                 
                 	.MACRO __DELAY_USB
                 	LDI  R24,LOW(@0)
                 __DELAY_USB_LOOP:
                 	DEC  R24
                 	BRNE __DELAY_USB_LOOP
                 	.ENDM
                 
                 	.MACRO __DELAY_USW
                 	LDI  R24,LOW(@0)
                 	LDI  R25,HIGH(@0)
                 __DELAY_USW_LOOP:
                 	SBIW R24,1
                 	BRNE __DELAY_USW_LOOP
                 	.ENDM
                 
                 	.MACRO __GETD1S
                 	LDD  R30,Y+@0
                 	LDD  R31,Y+@0+1
                 	LDD  R22,Y+@0+2
                 	LDD  R23,Y+@0+3
                 	.ENDM
                 
                 	.MACRO __GETD2S
                 	LDD  R26,Y+@0
                 	LDD  R27,Y+@0+1
                 	LDD  R24,Y+@0+2
                 	LDD  R25,Y+@0+3
                 	.ENDM
                 
                 	.MACRO __PUTD1S
                 	STD  Y+@0,R30
                 	STD  Y+@0+1,R31
                 	STD  Y+@0+2,R22
                 	STD  Y+@0+3,R23
                 	.ENDM
                 
                 	.MACRO __PUTD2S
                 	STD  Y+@0,R26
                 	STD  Y+@0+1,R27
                 	STD  Y+@0+2,R24
                 	STD  Y+@0+3,R25
                 	.ENDM
                 
                 	.MACRO __PUTDZ2
                 	STD  Z+@0,R26
                 	STD  Z+@0+1,R27
                 	STD  Z+@0+2,R24
                 	STD  Z+@0+3,R25
                 	.ENDM
                 
                 	.MACRO __CLRD1S
                 	STD  Y+@0,R30
                 	STD  Y+@0+1,R30
                 	STD  Y+@0+2,R30
                 	STD  Y+@0+3,R30
                 	.ENDM
                 
                 	.MACRO __POINTB1MN
                 	LDI  R30,LOW(@0+(@1))
                 	.ENDM
                 
                 	.MACRO __POINTW1MN
                 	LDI  R30,LOW(@0+(@1))
                 	LDI  R31,HIGH(@0+(@1))
                 	.ENDM
                 
                 	.MACRO __POINTD1M
                 	LDI  R30,LOW(@0)
                 	LDI  R31,HIGH(@0)
                 	LDI  R22,BYTE3(@0)
                 	LDI  R23,BYTE4(@0)
                 	.ENDM
                 
                 	.MACRO __POINTW1FN
                 	LDI  R30,LOW(2*@0+(@1))
                 	LDI  R31,HIGH(2*@0+(@1))
                 	.ENDM
                 
                 	.MACRO __POINTD1FN
                 	LDI  R30,LOW(2*@0+(@1))
                 	LDI  R31,HIGH(2*@0+(@1))
                 	LDI  R22,BYTE3(2*@0+(@1))
                 	LDI  R23,BYTE4(2*@0+(@1))
                 	.ENDM
                 
                 	.MACRO __POINTB2MN
                 	LDI  R26,LOW(@0+(@1))
                 	.ENDM
                 
                 	.MACRO __POINTW2MN
                 	LDI  R26,LOW(@0+(@1))
                 	LDI  R27,HIGH(@0+(@1))
                 	.ENDM
                 
                 	.MACRO __POINTW2FN
                 	LDI  R26,LOW(2*@0+(@1))
                 	LDI  R27,HIGH(2*@0+(@1))
                 	.ENDM
                 
                 	.MACRO __POINTD2FN
                 	LDI  R26,LOW(2*@0+(@1))
                 	LDI  R27,HIGH(2*@0+(@1))
                 	LDI  R24,BYTE3(2*@0+(@1))
                 	LDI  R25,BYTE4(2*@0+(@1))
                 	.ENDM
                 
                 	.MACRO __POINTBRM
                 	LDI  R@0,LOW(@1)
                 	.ENDM
                 
                 	.MACRO __POINTWRM
                 	LDI  R@0,LOW(@2)
                 	LDI  R@1,HIGH(@2)
                 	.ENDM
                 
                 	.MACRO __POINTBRMN
                 	LDI  R@0,LOW(@1+(@2))
                 	.ENDM
                 
                 	.MACRO __POINTWRMN
                 	LDI  R@0,LOW(@2+(@3))
                 	LDI  R@1,HIGH(@2+(@3))
                 	.ENDM
                 
                 	.MACRO __POINTWRFN
                 	LDI  R@0,LOW(@2*2+(@3))
                 	LDI  R@1,HIGH(@2*2+(@3))
                 	.ENDM
                 
                 	.MACRO __GETD1N
                 	LDI  R30,LOW(@0)
                 	LDI  R31,HIGH(@0)
                 	LDI  R22,BYTE3(@0)
                 	LDI  R23,BYTE4(@0)
                 	.ENDM
                 
                 	.MACRO __GETD2N
                 	LDI  R26,LOW(@0)
                 	LDI  R27,HIGH(@0)
                 	LDI  R24,BYTE3(@0)
                 	LDI  R25,BYTE4(@0)
                 	.ENDM
                 
                 	.MACRO __GETB1MN
                 	LDS  R30,@0+(@1)
                 	.ENDM
                 
                 	.MACRO __GETB1HMN
                 	LDS  R31,@0+(@1)
                 	.ENDM
                 
                 	.MACRO __GETW1MN
                 	LDS  R30,@0+(@1)
                 	LDS  R31,@0+(@1)+1
                 	.ENDM
                 
                 	.MACRO __GETD1MN
                 	LDS  R30,@0+(@1)
                 	LDS  R31,@0+(@1)+1
                 	LDS  R22,@0+(@1)+2
                 	LDS  R23,@0+(@1)+3
                 	.ENDM
                 
                 	.MACRO __GETBRMN
                 	LDS  R@0,@1+(@2)
                 	.ENDM
                 
                 	.MACRO __GETWRMN
                 	LDS  R@0,@2+(@3)
                 	LDS  R@1,@2+(@3)+1
                 	.ENDM
                 
                 	.MACRO __GETWRZ
                 	LDD  R@0,Z+@2
                 	LDD  R@1,Z+@2+1
                 	.ENDM
                 
                 	.MACRO __GETD2Z
                 	LDD  R26,Z+@0
                 	LDD  R27,Z+@0+1
                 	LDD  R24,Z+@0+2
                 	LDD  R25,Z+@0+3
                 	.ENDM
                 
                 	.MACRO __GETB2MN
                 	LDS  R26,@0+(@1)
                 	.ENDM
                 
                 	.MACRO __GETW2MN
                 	LDS  R26,@0+(@1)
                 	LDS  R27,@0+(@1)+1
                 	.ENDM
                 
                 	.MACRO __GETD2MN
                 	LDS  R26,@0+(@1)
                 	LDS  R27,@0+(@1)+1
                 	LDS  R24,@0+(@1)+2
                 	LDS  R25,@0+(@1)+3
                 	.ENDM
                 
                 	.MACRO __PUTB1MN
                 	STS  @0+(@1),R30
                 	.ENDM
                 
                 	.MACRO __PUTW1MN
                 	STS  @0+(@1),R30
                 	STS  @0+(@1)+1,R31
                 	.ENDM
                 
                 	.MACRO __PUTD1MN
                 	STS  @0+(@1),R30
                 	STS  @0+(@1)+1,R31
                 	STS  @0+(@1)+2,R22
                 	STS  @0+(@1)+3,R23
                 	.ENDM
                 
                 	.MACRO __PUTB1EN
                 	LDI  R26,LOW(@0+(@1))
                 	LDI  R27,HIGH(@0+(@1))
                 	CALL __EEPROMWRB
                 	.ENDM
                 
                 	.MACRO __PUTW1EN
                 	LDI  R26,LOW(@0+(@1))
                 	LDI  R27,HIGH(@0+(@1))
                 	CALL __EEPROMWRW
                 	.ENDM
                 
                 	.MACRO __PUTD1EN
                 	LDI  R26,LOW(@0+(@1))
                 	LDI  R27,HIGH(@0+(@1))
                 	CALL __EEPROMWRD
                 	.ENDM
                 
                 	.MACRO __PUTBR0MN
                 	STS  @0+(@1),R0
                 	.ENDM
                 
                 	.MACRO __PUTBMRN
                 	STS  @0+(@1),R@2
                 	.ENDM
                 
                 	.MACRO __PUTWMRN
                 	STS  @0+(@1),R@2
                 	STS  @0+(@1)+1,R@3
                 	.ENDM
                 
                 	.MACRO __PUTBZR
                 	STD  Z+@1,R@0
                 	.ENDM
                 
                 	.MACRO __PUTWZR
                 	STD  Z+@2,R@0
                 	STD  Z+@2+1,R@1
                 	.ENDM
                 
                 	.MACRO __GETW1R
                 	MOV  R30,R@0
                 	MOV  R31,R@1
                 	.ENDM
                 
                 	.MACRO __GETW2R
                 	MOV  R26,R@0
                 	MOV  R27,R@1
                 	.ENDM
                 
                 	.MACRO __GETWRN
                 	LDI  R@0,LOW(@2)
                 	LDI  R@1,HIGH(@2)
                 	.ENDM
                 
                 	.MACRO __PUTW1R
                 	MOV  R@0,R30
                 	MOV  R@1,R31
                 	.ENDM
                 
                 	.MACRO __PUTW2R
                 	MOV  R@0,R26
                 	MOV  R@1,R27
                 	.ENDM
                 
                 	.MACRO __ADDWRN
                 	SUBI R@0,LOW(-@2)
                 	SBCI R@1,HIGH(-@2)
                 	.ENDM
                 
                 	.MACRO __ADDWRR
                 	ADD  R@0,R@2
                 	ADC  R@1,R@3
                 	.ENDM
                 
                 	.MACRO __SUBWRN
                 	SUBI R@0,LOW(@2)
                 	SBCI R@1,HIGH(@2)
                 	.ENDM
                 
                 	.MACRO __SUBWRR
                 	SUB  R@0,R@2
                 	SBC  R@1,R@3
                 	.ENDM
                 
                 	.MACRO __ANDWRN
                 	ANDI R@0,LOW(@2)
                 	ANDI R@1,HIGH(@2)
                 	.ENDM
                 
                 	.MACRO __ANDWRR
                 	AND  R@0,R@2
                 	AND  R@1,R@3
                 	.ENDM
                 
                 	.MACRO __ORWRN
                 	ORI  R@0,LOW(@2)
                 	ORI  R@1,HIGH(@2)
                 	.ENDM
                 
                 	.MACRO __ORWRR
                 	OR   R@0,R@2
                 	OR   R@1,R@3
                 	.ENDM
                 
                 	.MACRO __EORWRR
                 	EOR  R@0,R@2
                 	EOR  R@1,R@3
                 	.ENDM
                 
                 	.MACRO __GETWRS
                 	LDD  R@0,Y+@2
                 	LDD  R@1,Y+@2+1
                 	.ENDM
                 
                 	.MACRO __PUTBSR
                 	STD  Y+@1,R@0
                 	.ENDM
                 
                 	.MACRO __PUTWSR
                 	STD  Y+@2,R@0
                 	STD  Y+@2+1,R@1
                 	.ENDM
                 
                 	.MACRO __MOVEWRR
                 	MOV  R@0,R@2
                 	MOV  R@1,R@3
                 	.ENDM
                 
                 	.MACRO __INWR
                 	IN   R@0,@2
                 	IN   R@1,@2+1
                 	.ENDM
                 
                 	.MACRO __OUTWR
                 	OUT  @2+1,R@1
                 	OUT  @2,R@0
                 	.ENDM
                 
                 	.MACRO __CALL1MN
                 	LDS  R30,@0+(@1)
                 	LDS  R31,@0+(@1)+1
                 	ICALL
                 	.ENDM
                 
                 	.MACRO __CALL1FN
                 	LDI  R30,LOW(2*@0+(@1))
                 	LDI  R31,HIGH(2*@0+(@1))
                 	CALL __GETW1PF
                 	ICALL
                 	.ENDM
                 
                 	.MACRO __CALL2EN
                 	PUSH R26
                 	PUSH R27
                 	LDI  R26,LOW(@0+(@1))
                 	LDI  R27,HIGH(@0+(@1))
                 	CALL __EEPROMRDW
                 	POP  R27
                 	POP  R26
                 	ICALL
                 	.ENDM
                 
                 	.MACRO __CALL2EX
                 	SUBI R26,LOW(-@0)
                 	SBCI R27,HIGH(-@0)
                 	CALL __EEPROMRDD
                 	ICALL
                 	.ENDM
                 
                 	.MACRO __GETW1STACK
                 	IN   R30,SPL
                 	IN   R31,SPH
                 	ADIW R30,@0+1
                 	LD   R0,Z+
                 	LD   R31,Z
                 	MOV  R30,R0
                 	.ENDM
                 
                 	.MACRO __GETD1STACK
                 	IN   R30,SPL
                 	IN   R31,SPH
                 	ADIW R30,@0+1
                 	LD   R0,Z+
                 	LD   R1,Z+
                 	LD   R22,Z
                 	MOVW R30,R0
                 	.ENDM
                 
                 	.MACRO __NBST
                 	BST  R@0,@1
                 	IN   R30,SREG
                 	LDI  R31,0x40
                 	EOR  R30,R31
                 	OUT  SREG,R30
                 	.ENDM
                 
                 
                 	.MACRO __PUTB1SN
                 	LDD  R26,Y+@0
                 	LDD  R27,Y+@0+1
                 	SUBI R26,LOW(-@1)
                 	SBCI R27,HIGH(-@1)
                 	ST   X,R30
                 	.ENDM
                 
                 	.MACRO __PUTW1SN
                 	LDD  R26,Y+@0
                 	LDD  R27,Y+@0+1
                 	SUBI R26,LOW(-@1)
                 	SBCI R27,HIGH(-@1)
                 	ST   X+,R30
                 	ST   X,R31
                 	.ENDM
                 
                 	.MACRO __PUTD1SN
                 	LDD  R26,Y+@0
                 	LDD  R27,Y+@0+1
                 	SUBI R26,LOW(-@1)
                 	SBCI R27,HIGH(-@1)
                 	CALL __PUTDP1
                 	.ENDM
                 
                 	.MACRO __PUTB1SNS
                 	LDD  R26,Y+@0
                 	LDD  R27,Y+@0+1
                 	ADIW R26,@1
                 	ST   X,R30
                 	.ENDM
                 
                 	.MACRO __PUTW1SNS
                 	LDD  R26,Y+@0
                 	LDD  R27,Y+@0+1
                 	ADIW R26,@1
                 	ST   X+,R30
                 	ST   X,R31
                 	.ENDM
                 
                 	.MACRO __PUTD1SNS
                 	LDD  R26,Y+@0
                 	LDD  R27,Y+@0+1
                 	ADIW R26,@1
                 	CALL __PUTDP1
                 	.ENDM
                 
                 	.MACRO __PUTB1PMN
                 	LDS  R26,@0
                 	LDS  R27,@0+1
                 	SUBI R26,LOW(-@1)
                 	SBCI R27,HIGH(-@1)
                 	ST   X,R30
                 	.ENDM
                 
                 	.MACRO __PUTW1PMN
                 	LDS  R26,@0
                 	LDS  R27,@0+1
                 	SUBI R26,LOW(-@1)
                 	SBCI R27,HIGH(-@1)
                 	ST   X+,R30
                 	ST   X,R31
                 	.ENDM
                 
                 	.MACRO __PUTD1PMN
                 	LDS  R26,@0
                 	LDS  R27,@0+1
                 	SUBI R26,LOW(-@1)
                 	SBCI R27,HIGH(-@1)
                 	CALL __PUTDP1
                 	.ENDM
                 
                 	.MACRO __PUTB1PMNS
                 	LDS  R26,@0
                 	LDS  R27,@0+1
                 	ADIW R26,@1
                 	ST   X,R30
                 	.ENDM
                 
                 	.MACRO __PUTW1PMNS
                 	LDS  R26,@0
                 	LDS  R27,@0+1
                 	ADIW R26,@1
                 	ST   X+,R30
                 	ST   X,R31
                 	.ENDM
                 
                 	.MACRO __PUTD1PMNS
                 	LDS  R26,@0
                 	LDS  R27,@0+1
                 	ADIW R26,@1
                 	CALL __PUTDP1
                 	.ENDM
                 
                 	.MACRO __PUTB1RN
                 	MOVW R26,R@0
                 	SUBI R26,LOW(-@1)
                 	SBCI R27,HIGH(-@1)
                 	ST   X,R30
                 	.ENDM
                 
                 	.MACRO __PUTW1RN
                 	MOVW R26,R@0
                 	SUBI R26,LOW(-@1)
                 	SBCI R27,HIGH(-@1)
                 	ST   X+,R30
                 	ST   X,R31
                 	.ENDM
                 
                 	.MACRO __PUTD1RN
                 	MOVW R26,R@0
                 	SUBI R26,LOW(-@1)
                 	SBCI R27,HIGH(-@1)
                 	CALL __PUTDP1
                 	.ENDM
                 
                 	.MACRO __PUTB1RNS
                 	MOVW R26,R@0
                 	ADIW R26,@1
                 	ST   X,R30
                 	.ENDM
                 
                 	.MACRO __PUTW1RNS
                 	MOVW R26,R@0
                 	ADIW R26,@1
                 	ST   X+,R30
                 	ST   X,R31
                 	.ENDM
                 
                 	.MACRO __PUTD1RNS
                 	MOVW R26,R@0
                 	ADIW R26,@1
                 	CALL __PUTDP1
                 	.ENDM
                 
                 	.MACRO __PUTB1RON
                 	MOV  R26,R@0
                 	MOV  R27,R@1
                 	SUBI R26,LOW(-@2)
                 	SBCI R27,HIGH(-@2)
                 	ST   X,R30
                 	.ENDM
                 
                 	.MACRO __PUTW1RON
                 	MOV  R26,R@0
                 	MOV  R27,R@1
                 	SUBI R26,LOW(-@2)
                 	SBCI R27,HIGH(-@2)
                 	ST   X+,R30
                 	ST   X,R31
                 	.ENDM
                 
                 	.MACRO __PUTD1RON
                 	MOV  R26,R@0
                 	MOV  R27,R@1
                 	SUBI R26,LOW(-@2)
                 	SBCI R27,HIGH(-@2)
                 	CALL __PUTDP1
                 	.ENDM
                 
                 	.MACRO __PUTB1RONS
                 	MOV  R26,R@0
                 	MOV  R27,R@1
                 	ADIW R26,@2
                 	ST   X,R30
                 	.ENDM
                 
                 	.MACRO __PUTW1RONS
                 	MOV  R26,R@0
                 	MOV  R27,R@1
                 	ADIW R26,@2
                 	ST   X+,R30
                 	ST   X,R31
                 	.ENDM
                 
                 	.MACRO __PUTD1RONS
                 	MOV  R26,R@0
                 	MOV  R27,R@1
                 	ADIW R26,@2
                 	CALL __PUTDP1
                 	.ENDM
                 
                 
                 	.MACRO __GETB1SX
                 	MOVW R30,R28
                 	SUBI R30,LOW(-@0)
                 	SBCI R31,HIGH(-@0)
                 	LD   R30,Z
                 	.ENDM
                 
                 	.MACRO __GETB1HSX
                 	MOVW R30,R28
                 	SUBI R30,LOW(-@0)
                 	SBCI R31,HIGH(-@0)
                 	LD   R31,Z
                 	.ENDM
                 
                 	.MACRO __GETW1SX
                 	MOVW R30,R28
                 	SUBI R30,LOW(-@0)
                 	SBCI R31,HIGH(-@0)
                 	LD   R0,Z+
                 	LD   R31,Z
                 	MOV  R30,R0
                 	.ENDM
                 
                 	.MACRO __GETD1SX
                 	MOVW R30,R28
                 	SUBI R30,LOW(-@0)
                 	SBCI R31,HIGH(-@0)
                 	LD   R0,Z+
                 	LD   R1,Z+
                 	LD   R22,Z+
                 	LD   R23,Z
                 	MOVW R30,R0
                 	.ENDM
                 
                 	.MACRO __GETB2SX
                 	MOVW R26,R28
                 	SUBI R26,LOW(-@0)
                 	SBCI R27,HIGH(-@0)
                 	LD   R26,X
                 	.ENDM
                 
                 	.MACRO __GETW2SX
                 	MOVW R26,R28
                 	SUBI R26,LOW(-@0)
                 	SBCI R27,HIGH(-@0)
                 	LD   R0,X+
                 	LD   R27,X
                 	MOV  R26,R0
                 	.ENDM
                 
                 	.MACRO __GETD2SX
                 	MOVW R26,R28
                 	SUBI R26,LOW(-@0)
                 	SBCI R27,HIGH(-@0)
                 	LD   R0,X+
                 	LD   R1,X+
                 	LD   R24,X+
                 	LD   R25,X
                 	MOVW R26,R0
                 	.ENDM
                 
                 	.MACRO __GETBRSX
                 	MOVW R30,R28
                 	SUBI R30,LOW(-@1)
                 	SBCI R31,HIGH(-@1)
                 	LD   R@0,Z
                 	.ENDM
                 
                 	.MACRO __GETWRSX
                 	MOVW R30,R28
                 	SUBI R30,LOW(-@2)
                 	SBCI R31,HIGH(-@2)
                 	LD   R@0,Z+
                 	LD   R@1,Z
                 	.ENDM
                 
                 	.MACRO __GETBRSX2
                 	MOVW R26,R28
                 	SUBI R26,LOW(-@1)
                 	SBCI R27,HIGH(-@1)
                 	LD   R@0,X
                 	.ENDM
                 
                 	.MACRO __GETWRSX2
                 	MOVW R26,R28
                 	SUBI R26,LOW(-@2)
                 	SBCI R27,HIGH(-@2)
                 	LD   R@0,X+
                 	LD   R@1,X
                 	.ENDM
                 
                 	.MACRO __LSLW8SX
                 	MOVW R30,R28
                 	SUBI R30,LOW(-@0)
                 	SBCI R31,HIGH(-@0)
                 	LD   R31,Z
                 	CLR  R30
                 	.ENDM
                 
                 	.MACRO __PUTB1SX
                 	MOVW R26,R28
                 	SUBI R26,LOW(-@0)
                 	SBCI R27,HIGH(-@0)
                 	ST   X,R30
                 	.ENDM
                 
                 	.MACRO __PUTW1SX
                 	MOVW R26,R28
                 	SUBI R26,LOW(-@0)
                 	SBCI R27,HIGH(-@0)
                 	ST   X+,R30
                 	ST   X,R31
                 	.ENDM
                 
                 	.MACRO __PUTD1SX
                 	MOVW R26,R28
                 	SUBI R26,LOW(-@0)
                 	SBCI R27,HIGH(-@0)
                 	ST   X+,R30
                 	ST   X+,R31
                 	ST   X+,R22
                 	ST   X,R23
                 	.ENDM
                 
                 	.MACRO __CLRW1SX
                 	MOVW R26,R28
                 	SUBI R26,LOW(-@0)
                 	SBCI R27,HIGH(-@0)
                 	ST   X+,R30
                 	ST   X,R30
                 	.ENDM
                 
                 	.MACRO __CLRD1SX
                 	MOVW R26,R28
                 	SUBI R26,LOW(-@0)
                 	SBCI R27,HIGH(-@0)
                 	ST   X+,R30
                 	ST   X+,R30
                 	ST   X+,R30
                 	ST   X,R30
                 	.ENDM
                 
                 	.MACRO __PUTB2SX
                 	MOVW R30,R28
                 	SUBI R30,LOW(-@0)
                 	SBCI R31,HIGH(-@0)
                 	ST   Z,R26
                 	.ENDM
                 
                 	.MACRO __PUTW2SX
                 	MOVW R30,R28
                 	SUBI R30,LOW(-@0)
                 	SBCI R31,HIGH(-@0)
                 	ST   Z+,R26
                 	ST   Z,R27
                 	.ENDM
                 
                 	.MACRO __PUTD2SX
                 	MOVW R30,R28
                 	SUBI R30,LOW(-@0)
                 	SBCI R31,HIGH(-@0)
                 	ST   Z+,R26
                 	ST   Z+,R27
                 	ST   Z+,R24
                 	ST   Z,R25
                 	.ENDM
                 
                 	.MACRO __PUTBSRX
                 	MOVW R30,R28
                 	SUBI R30,LOW(-@1)
                 	SBCI R31,HIGH(-@1)
                 	ST   Z,R@0
                 	.ENDM
                 
                 	.MACRO __PUTWSRX
                 	MOVW R30,R28
                 	SUBI R30,LOW(-@2)
                 	SBCI R31,HIGH(-@2)
                 	ST   Z+,R@0
                 	ST   Z,R@1
                 	.ENDM
                 
                 	.MACRO __PUTB1SNX
                 	MOVW R26,R28
                 	SUBI R26,LOW(-@0)
                 	SBCI R27,HIGH(-@0)
                 	LD   R0,X+
                 	LD   R27,X
                 	MOV  R26,R0
                 	SUBI R26,LOW(-@1)
                 	SBCI R27,HIGH(-@1)
                 	ST   X,R30
                 	.ENDM
                 
                 	.MACRO __PUTW1SNX
                 	MOVW R26,R28
                 	SUBI R26,LOW(-@0)
                 	SBCI R27,HIGH(-@0)
                 	LD   R0,X+
                 	LD   R27,X
                 	MOV  R26,R0
                 	SUBI R26,LOW(-@1)
                 	SBCI R27,HIGH(-@1)
                 	ST   X+,R30
                 	ST   X,R31
                 	.ENDM
                 
                 	.MACRO __PUTD1SNX
                 	MOVW R26,R28
                 	SUBI R26,LOW(-@0)
                 	SBCI R27,HIGH(-@0)
                 	LD   R0,X+
                 	LD   R27,X
                 	MOV  R26,R0
                 	SUBI R26,LOW(-@1)
                 	SBCI R27,HIGH(-@1)
                 	ST   X+,R30
                 	ST   X+,R31
                 	ST   X+,R22
                 	ST   X,R23
                 	.ENDM
                 
                 	.MACRO __MULBRR
                 	MULS R@0,R@1
                 	MOVW R30,R0
                 	.ENDM
                 
                 	.MACRO __MULBRRU
                 	MUL  R@0,R@1
                 	MOVW R30,R0
                 	.ENDM
                 
                 	.MACRO __MULBRR0
                 	MULS R@0,R@1
                 	.ENDM
                 
                 	.MACRO __MULBRRU0
                 	MUL  R@0,R@1
                 	.ENDM
                 
                 	.MACRO __MULBNWRU
                 	LDI  R26,@2
                 	MUL  R26,R@0
                 	MOVW R30,R0
                 	MUL  R26,R@1
                 	ADD  R31,R0
                 	.ENDM
                 
                 ;NAME DEFINITIONS FOR GLOBAL VARIABLES ALLOCATED TO REGISTERS
                 	.DEF _led_status=R4
                 	.DEF _led_status_msb=R5
                 	.DEF _led_status1=R6
                 	.DEF _led_status1_msb=R7
                 	.DEF _display_count=R8
                 	.DEF _display_count_msb=R9
                 	.DEF _display_scan_cnt=R10
                 	.DEF _display_scan_cnt_msb=R11
                 	.DEF _ambient_val=R12
                 	.DEF _ambient_val_msb=R13
                 
                 	.CSEG
                 	.ORG 0x00
                 
                 ;START OF CODE MARKER
                 __START_OF_CODE:
                 
                 ;INTERRUPT VECTORS
000000 940c 03de 	JMP  __RESET
000002 940c 0000 	JMP  0x00
000004 940c 0000 	JMP  0x00
000006 940c 0000 	JMP  0x00
000008 940c 0000 	JMP  0x00
00000a 940c 0000 	JMP  0x00
00000c 940c 0000 	JMP  0x00
00000e 940c 0000 	JMP  0x00
000010 940c 0000 	JMP  0x00
000012 940c 1859 	JMP  _timer1_ovf_isr
000014 940c 0000 	JMP  0x00
000016 940c 0000 	JMP  0x00
000018 940c 0000 	JMP  0x00
00001a 940c 0411 	JMP  _usart_rx_isr
00001c 940c 0000 	JMP  0x00
00001e 940c 0470 	JMP  _usart_tx_isr
000020 940c 0000 	JMP  0x00
000022 940c 0000 	JMP  0x00
000024 940c 0000 	JMP  0x00
000026 940c 0000 	JMP  0x00
000028 940c 0000 	JMP  0x00
                 
                 _wCRCTable:
00002a 0000
00002b c0c1
00002c c181
00002d 0140      	.DB  0x0,0x0,0xC1,0xC0,0x81,0xC1,0x40,0x1
00002e c301
00002f 03c0
000030 0280
000031 c241      	.DB  0x1,0xC3,0xC0,0x3,0x80,0x2,0x41,0xC2
000032 c601
000033 06c0
000034 0780
000035 c741      	.DB  0x1,0xC6,0xC0,0x6,0x80,0x7,0x41,0xC7
000036 0500
000037 c5c1
000038 c481
000039 0440      	.DB  0x0,0x5,0xC1,0xC5,0x81,0xC4,0x40,0x4
00003a cc01
00003b 0cc0
00003c 0d80
00003d cd41      	.DB  0x1,0xCC,0xC0,0xC,0x80,0xD,0x41,0xCD
00003e 0f00
00003f cfc1
000040 ce81
000041 0e40      	.DB  0x0,0xF,0xC1,0xCF,0x81,0xCE,0x40,0xE
000042 0a00
000043 cac1
000044 cb81
000045 0b40      	.DB  0x0,0xA,0xC1,0xCA,0x81,0xCB,0x40,0xB
000046 c901
000047 09c0
000048 0880
000049 c841      	.DB  0x1,0xC9,0xC0,0x9,0x80,0x8,0x41,0xC8
00004a d801
00004b 18c0
00004c 1980
00004d d941      	.DB  0x1,0xD8,0xC0,0x18,0x80,0x19,0x41,0xD9
00004e 1b00
00004f dbc1
000050 da81
000051 1a40      	.DB  0x0,0x1B,0xC1,0xDB,0x81,0xDA,0x40,0x1A
000052 1e00
000053 dec1
000054 df81
000055 1f40      	.DB  0x0,0x1E,0xC1,0xDE,0x81,0xDF,0x40,0x1F
000056 dd01
000057 1dc0
000058 1c80
000059 dc41      	.DB  0x1,0xDD,0xC0,0x1D,0x80,0x1C,0x41,0xDC
00005a 1400
00005b d4c1
00005c d581
00005d 1540      	.DB  0x0,0x14,0xC1,0xD4,0x81,0xD5,0x40,0x15
00005e d701
00005f 17c0
000060 1680
000061 d641      	.DB  0x1,0xD7,0xC0,0x17,0x80,0x16,0x41,0xD6
000062 d201
000063 12c0
000064 1380
000065 d341      	.DB  0x1,0xD2,0xC0,0x12,0x80,0x13,0x41,0xD3
000066 1100
000067 d1c1
000068 d081
000069 1040      	.DB  0x0,0x11,0xC1,0xD1,0x81,0xD0,0x40,0x10
00006a f001
00006b 30c0
00006c 3180
00006d f141      	.DB  0x1,0xF0,0xC0,0x30,0x80,0x31,0x41,0xF1
00006e 3300
00006f f3c1
000070 f281
000071 3240      	.DB  0x0,0x33,0xC1,0xF3,0x81,0xF2,0x40,0x32
000072 3600
000073 f6c1
000074 f781
000075 3740      	.DB  0x0,0x36,0xC1,0xF6,0x81,0xF7,0x40,0x37
000076 f501
000077 35c0
000078 3480
000079 f441      	.DB  0x1,0xF5,0xC0,0x35,0x80,0x34,0x41,0xF4
00007a 3c00
00007b fcc1
00007c fd81
00007d 3d40      	.DB  0x0,0x3C,0xC1,0xFC,0x81,0xFD,0x40,0x3D
00007e ff01
00007f 3fc0
000080 3e80
000081 fe41      	.DB  0x1,0xFF,0xC0,0x3F,0x80,0x3E,0x41,0xFE
000082 fa01
000083 3ac0
000084 3b80
000085 fb41      	.DB  0x1,0xFA,0xC0,0x3A,0x80,0x3B,0x41,0xFB
000086 3900
000087 f9c1
000088 f881
000089 3840      	.DB  0x0,0x39,0xC1,0xF9,0x81,0xF8,0x40,0x38
00008a 2800
00008b e8c1
00008c e981
00008d 2940      	.DB  0x0,0x28,0xC1,0xE8,0x81,0xE9,0x40,0x29
00008e eb01
00008f 2bc0
000090 2a80
000091 ea41      	.DB  0x1,0xEB,0xC0,0x2B,0x80,0x2A,0x41,0xEA
000092 ee01
000093 2ec0
000094 2f80
000095 ef41      	.DB  0x1,0xEE,0xC0,0x2E,0x80,0x2F,0x41,0xEF
000096 2d00
000097 edc1
000098 ec81
000099 2c40      	.DB  0x0,0x2D,0xC1,0xED,0x81,0xEC,0x40,0x2C
00009a e401
00009b 24c0
00009c 2580
00009d e541      	.DB  0x1,0xE4,0xC0,0x24,0x80,0x25,0x41,0xE5
00009e 2700
00009f e7c1
0000a0 e681
0000a1 2640      	.DB  0x0,0x27,0xC1,0xE7,0x81,0xE6,0x40,0x26
0000a2 2200
0000a3 e2c1
0000a4 e381
0000a5 2340      	.DB  0x0,0x22,0xC1,0xE2,0x81,0xE3,0x40,0x23
0000a6 e101
0000a7 21c0
0000a8 2080
0000a9 e041      	.DB  0x1,0xE1,0xC0,0x21,0x80,0x20,0x41,0xE0
0000aa a001
0000ab 60c0
0000ac 6180
0000ad a141      	.DB  0x1,0xA0,0xC0,0x60,0x80,0x61,0x41,0xA1
0000ae 6300
0000af a3c1
0000b0 a281
0000b1 6240      	.DB  0x0,0x63,0xC1,0xA3,0x81,0xA2,0x40,0x62
0000b2 6600
0000b3 a6c1
0000b4 a781
0000b5 6740      	.DB  0x0,0x66,0xC1,0xA6,0x81,0xA7,0x40,0x67
0000b6 a501
0000b7 65c0
0000b8 6480
0000b9 a441      	.DB  0x1,0xA5,0xC0,0x65,0x80,0x64,0x41,0xA4
0000ba 6c00
0000bb acc1
0000bc ad81
0000bd 6d40      	.DB  0x0,0x6C,0xC1,0xAC,0x81,0xAD,0x40,0x6D
0000be af01
0000bf 6fc0
0000c0 6e80
0000c1 ae41      	.DB  0x1,0xAF,0xC0,0x6F,0x80,0x6E,0x41,0xAE
0000c2 aa01
0000c3 6ac0
0000c4 6b80
0000c5 ab41      	.DB  0x1,0xAA,0xC0,0x6A,0x80,0x6B,0x41,0xAB
0000c6 6900
0000c7 a9c1
0000c8 a881
0000c9 6840      	.DB  0x0,0x69,0xC1,0xA9,0x81,0xA8,0x40,0x68
0000ca 7800
0000cb b8c1
0000cc b981
0000cd 7940      	.DB  0x0,0x78,0xC1,0xB8,0x81,0xB9,0x40,0x79
0000ce bb01
0000cf 7bc0
0000d0 7a80
0000d1 ba41      	.DB  0x1,0xBB,0xC0,0x7B,0x80,0x7A,0x41,0xBA
0000d2 be01
0000d3 7ec0
0000d4 7f80
0000d5 bf41      	.DB  0x1,0xBE,0xC0,0x7E,0x80,0x7F,0x41,0xBF
0000d6 7d00
0000d7 bdc1
0000d8 bc81
0000d9 7c40      	.DB  0x0,0x7D,0xC1,0xBD,0x81,0xBC,0x40,0x7C
0000da b401
0000db 74c0
0000dc 7580
0000dd b541      	.DB  0x1,0xB4,0xC0,0x74,0x80,0x75,0x41,0xB5
0000de 7700
0000df b7c1
0000e0 b681
0000e1 7640      	.DB  0x0,0x77,0xC1,0xB7,0x81,0xB6,0x40,0x76
0000e2 7200
0000e3 b2c1
0000e4 b381
0000e5 7340      	.DB  0x0,0x72,0xC1,0xB2,0x81,0xB3,0x40,0x73
0000e6 b101
0000e7 71c0
0000e8 7080
0000e9 b041      	.DB  0x1,0xB1,0xC0,0x71,0x80,0x70,0x41,0xB0
0000ea 5000
0000eb 90c1
0000ec 9181
0000ed 5140      	.DB  0x0,0x50,0xC1,0x90,0x81,0x91,0x40,0x51
0000ee 9301
0000ef 53c0
0000f0 5280
0000f1 9241      	.DB  0x1,0x93,0xC0,0x53,0x80,0x52,0x41,0x92
0000f2 9601
0000f3 56c0
0000f4 5780
0000f5 9741      	.DB  0x1,0x96,0xC0,0x56,0x80,0x57,0x41,0x97
0000f6 5500
0000f7 95c1
0000f8 9481
0000f9 5440      	.DB  0x0,0x55,0xC1,0x95,0x81,0x94,0x40,0x54
0000fa 9c01
0000fb 5cc0
0000fc 5d80
0000fd 9d41      	.DB  0x1,0x9C,0xC0,0x5C,0x80,0x5D,0x41,0x9D
0000fe 5f00
0000ff 9fc1
000100 9e81
000101 5e40      	.DB  0x0,0x5F,0xC1,0x9F,0x81,0x9E,0x40,0x5E
000102 5a00
000103 9ac1
000104 9b81
000105 5b40      	.DB  0x0,0x5A,0xC1,0x9A,0x81,0x9B,0x40,0x5B
000106 9901
000107 59c0
000108 5880
000109 9841      	.DB  0x1,0x99,0xC0,0x59,0x80,0x58,0x41,0x98
00010a 8801
00010b 48c0
00010c 4980
00010d 8941      	.DB  0x1,0x88,0xC0,0x48,0x80,0x49,0x41,0x89
00010e 4b00
00010f 8bc1
000110 8a81
000111 4a40      	.DB  0x0,0x4B,0xC1,0x8B,0x81,0x8A,0x40,0x4A
000112 4e00
000113 8ec1
000114 8f81
000115 4f40      	.DB  0x0,0x4E,0xC1,0x8E,0x81,0x8F,0x40,0x4F
000116 8d01
000117 4dc0
000118 4c80
000119 8c41      	.DB  0x1,0x8D,0xC0,0x4D,0x80,0x4C,0x41,0x8C
00011a 4400
00011b 84c1
00011c 8581
00011d 4540      	.DB  0x0,0x44,0xC1,0x84,0x81,0x85,0x40,0x45
00011e 8701
00011f 47c0
000120 4680
000121 8641      	.DB  0x1,0x87,0xC0,0x47,0x80,0x46,0x41,0x86
000122 8201
000123 42c0
000124 4380
000125 8341      	.DB  0x1,0x82,0xC0,0x42,0x80,0x43,0x41,0x83
000126 4100
000127 81c1
000128 8081
000129 4040      	.DB  0x0,0x41,0xC1,0x81,0x81,0x80,0x40,0x40
                 _tbl10_G100:
00012a 2710
00012b 03e8
00012c 0064
00012d 000a      	.DB  0x10,0x27,0xE8,0x3,0x64,0x0,0xA,0x0
00012e 0001      	.DB  0x1,0x0
                 _tbl16_G100:
00012f 1000
000130 0100
000131 0010
000132 0001      	.DB  0x0,0x10,0x0,0x1,0x10,0x0,0x1,0x0
                 
                 ;REGISTER BIT VARIABLES INITIALIZATION
                 __REG_BIT_VARS:
000133 0000      	.DW  0x0000
                 
                 _0x1F:
000134 f584
000135 c1c2
000136 89b1
000137 e588      	.DB  0x84,0xF5,0xC2,0xC1,0xB1,0x89,0x88,0xE5
000138 8180
000139 98a0
00013a d08e
00013b aa8a      	.DB  0x80,0x81,0xA0,0x98,0x8E,0xD0,0x8A,0xAA
00013c b08c
00013d a8d5
00013e e89e
00013f d8f8      	.DB  0x8C,0xB0,0xD5,0xA8,0x9E,0xE8,0xF8,0xD8
000140 faa2
000141 dc9a
000142 91cc
000143 00fb      	.DB  0xA2,0xFA,0x9A,0xDC,0xCC,0x91,0xFB,0x0
000144 ff01
000145 f104
C:\Users\Admin\Desktop\mbscan-type\Debug\List\mbscan.asm(1207): warning: .cseg .db misalignment - padding zero byte
000146 0009      	.DB  0x1,0xFF,0x4,0xF1,0x9
                 _0x20:
000147 0015
000148 000e
000149 0016
C:\Users\Admin\Desktop\mbscan-type\Debug\List\mbscan.asm(1209): warning: .cseg .db misalignment - padding zero byte
00014a 001b      	.DB  0x15,0x0,0xE,0x0,0x16,0x0,0x1B
                 _0x21:
00014b 0021
00014c 0010
00014d 000e
00014e 0016      	.DB  0x21,0x0,0x10,0x0,0xE,0x0,0x16,0x0
00014f 0021
000150 0021
000151 0017
000152 0005      	.DB  0x21,0x0,0x21,0x0,0x17,0x0,0x5,0x0
000153 0005
000154 0013
000155 0001
000156 0018      	.DB  0x5,0x0,0x13,0x0,0x1,0x0,0x18,0x0
000157 0019
000158 001e
000159 0014
00015a 0017      	.DB  0x19,0x0,0x1E,0x0,0x14,0x0,0x17,0x0
00015b 0019
00015c 001e
00015d 0011
00015e 0001      	.DB  0x19,0x0,0x1E,0x0,0x11,0x0,0x1,0x0
00015f 000a
000160 001e
000161 0014
000162 0017      	.DB  0xA,0x0,0x1E,0x0,0x14,0x0,0x17,0x0
000163 000a
000164 001e
000165 0011
000166 0001      	.DB  0xA,0x0,0x1E,0x0,0x11,0x0,0x1,0x0
000167 0021
000168 0001
000169 0016
00016a 0018      	.DB  0x21,0x0,0x1,0x0,0x16,0x0,0x18,0x0
00016b 0021
00016c 0021
00016d 000d
C:\Users\Admin\Desktop\mbscan-type\Debug\List\mbscan.asm(1219): warning: .cseg .db misalignment - padding zero byte
00016e 0018      	.DB  0x21,0x0,0x21,0x0,0xD,0x0,0x18
                 _0x22:
00016f 0021
000170 0021
000171 0005
000172 001a      	.DB  0x21,0x0,0x21,0x0,0x5,0x0,0x1A,0x0
000173 0021
000174 0021
000175 0001
000176 000d      	.DB  0x21,0x0,0x21,0x0,0x1,0x0,0xD,0x0
000177 000b
000178 000a
000179 001b
C:\Users\Admin\Desktop\mbscan-type\Debug\List\mbscan.asm(1223): warning: .cseg .db misalignment - padding zero byte
00017a 000d      	.DB  0xB,0x0,0xA,0x0,0x1B,0x0,0xD
                 _0x23:
00017b 0017
00017c 0005
00017d 001e
00017e 0001      	.DB  0x17,0x0,0x5,0x0,0x1E,0x0,0x1,0x0
00017f 0017
000180 0005
000181 001e
000182 0002      	.DB  0x17,0x0,0x5,0x0,0x1E,0x0,0x2,0x0
000183 0017
000184 0005
000185 001e
000186 0003      	.DB  0x17,0x0,0x5,0x0,0x1E,0x0,0x3,0x0
000187 0017
000188 0005
000189 001e
00018a 0004      	.DB  0x17,0x0,0x5,0x0,0x1E,0x0,0x4,0x0
00018b 0017
00018c 0005
00018d 001e
00018e 0005      	.DB  0x17,0x0,0x5,0x0,0x1E,0x0,0x5,0x0
00018f 0017
000190 0005
000191 001e
000192 0006      	.DB  0x17,0x0,0x5,0x0,0x1E,0x0,0x6,0x0
000193 0017
000194 0005
000195 001e
000196 0007      	.DB  0x17,0x0,0x5,0x0,0x1E,0x0,0x7,0x0
000197 0017
000198 0005
000199 001e
C:\Users\Admin\Desktop\mbscan-type\Debug\List\mbscan.asm(1232): warning: .cseg .db misalignment - padding zero byte
00019a 0008      	.DB  0x17,0x0,0x5,0x0,0x1E,0x0,0x8
                 _0x24:
00019b 0005
00019c 0013
00019d 001e
00019e 0001      	.DB  0x5,0x0,0x13,0x0,0x1E,0x0,0x1,0x0
00019f 0005
0001a0 0013
0001a1 001e
0001a2 0002      	.DB  0x5,0x0,0x13,0x0,0x1E,0x0,0x2,0x0
0001a3 0005
0001a4 0013
0001a5 001e
0001a6 0003      	.DB  0x5,0x0,0x13,0x0,0x1E,0x0,0x3,0x0
0001a7 0005
0001a8 0013
0001a9 001e
0001aa 0004      	.DB  0x5,0x0,0x13,0x0,0x1E,0x0,0x4,0x0
0001ab 0005
0001ac 0013
0001ad 001e
0001ae 0005      	.DB  0x5,0x0,0x13,0x0,0x1E,0x0,0x5,0x0
0001af 0005
0001b0 0013
0001b1 001e
0001b2 0006      	.DB  0x5,0x0,0x13,0x0,0x1E,0x0,0x6,0x0
0001b3 0005
0001b4 0013
0001b5 001e
0001b6 0007      	.DB  0x5,0x0,0x13,0x0,0x1E,0x0,0x7,0x0
0001b7 0005
0001b8 0013
0001b9 001e
C:\Users\Admin\Desktop\mbscan-type\Debug\List\mbscan.asm(1241): warning: .cseg .db misalignment - padding zero byte
0001ba 0008      	.DB  0x5,0x0,0x13,0x0,0x1E,0x0,0x8
                 _0x25:
0001bb 0019
0001bc 0014
0001bd 001e
0001be 0001      	.DB  0x19,0x0,0x14,0x0,0x1E,0x0,0x1,0x0
0001bf 0019
0001c0 0014
0001c1 001e
0001c2 0002      	.DB  0x19,0x0,0x14,0x0,0x1E,0x0,0x2,0x0
0001c3 0019
0001c4 0014
0001c5 001e
0001c6 0003      	.DB  0x19,0x0,0x14,0x0,0x1E,0x0,0x3,0x0
0001c7 0019
0001c8 0014
0001c9 001e
0001ca 0004      	.DB  0x19,0x0,0x14,0x0,0x1E,0x0,0x4,0x0
0001cb 0019
0001cc 0014
0001cd 001e
0001ce 0005      	.DB  0x19,0x0,0x14,0x0,0x1E,0x0,0x5,0x0
0001cf 0019
0001d0 0014
0001d1 001e
0001d2 0006      	.DB  0x19,0x0,0x14,0x0,0x1E,0x0,0x6,0x0
0001d3 0019
0001d4 0014
0001d5 001e
0001d6 0007      	.DB  0x19,0x0,0x14,0x0,0x1E,0x0,0x7,0x0
0001d7 0019
0001d8 0014
0001d9 001e
C:\Users\Admin\Desktop\mbscan-type\Debug\List\mbscan.asm(1250): warning: .cseg .db misalignment - padding zero byte
0001da 0008      	.DB  0x19,0x0,0x14,0x0,0x1E,0x0,0x8
                 _0x26:
0001db 0019
0001dc 0011
0001dd 001e
0001de 0001      	.DB  0x19,0x0,0x11,0x0,0x1E,0x0,0x1,0x0
0001df 0019
0001e0 0011
0001e1 001e
0001e2 0002      	.DB  0x19,0x0,0x11,0x0,0x1E,0x0,0x2,0x0
0001e3 0019
0001e4 0011
0001e5 001e
0001e6 0003      	.DB  0x19,0x0,0x11,0x0,0x1E,0x0,0x3,0x0
0001e7 0019
0001e8 0011
0001e9 001e
0001ea 0004      	.DB  0x19,0x0,0x11,0x0,0x1E,0x0,0x4,0x0
0001eb 0019
0001ec 0011
0001ed 001e
0001ee 0005      	.DB  0x19,0x0,0x11,0x0,0x1E,0x0,0x5,0x0
0001ef 0019
0001f0 0011
0001f1 001e
0001f2 0006      	.DB  0x19,0x0,0x11,0x0,0x1E,0x0,0x6,0x0
0001f3 0019
0001f4 0011
0001f5 001e
0001f6 0007      	.DB  0x19,0x0,0x11,0x0,0x1E,0x0,0x7,0x0
0001f7 0019
0001f8 0011
0001f9 001e
C:\Users\Admin\Desktop\mbscan-type\Debug\List\mbscan.asm(1259): warning: .cseg .db misalignment - padding zero byte
0001fa 0008      	.DB  0x19,0x0,0x11,0x0,0x1E,0x0,0x8
                 _0x27:
0001fb 000a
0001fc 0014
0001fd 001e
0001fe 0001      	.DB  0xA,0x0,0x14,0x0,0x1E,0x0,0x1,0x0
0001ff 000a
000200 0014
000201 001e
000202 0002      	.DB  0xA,0x0,0x14,0x0,0x1E,0x0,0x2,0x0
000203 000a
000204 0014
000205 001e
000206 0003      	.DB  0xA,0x0,0x14,0x0,0x1E,0x0,0x3,0x0
000207 000a
000208 0014
000209 001e
00020a 0004      	.DB  0xA,0x0,0x14,0x0,0x1E,0x0,0x4,0x0
00020b 000a
00020c 0014
00020d 001e
00020e 0005      	.DB  0xA,0x0,0x14,0x0,0x1E,0x0,0x5,0x0
00020f 000a
000210 0014
000211 001e
000212 0006      	.DB  0xA,0x0,0x14,0x0,0x1E,0x0,0x6,0x0
000213 000a
000214 0014
000215 001e
000216 0007      	.DB  0xA,0x0,0x14,0x0,0x1E,0x0,0x7,0x0
000217 000a
000218 0014
000219 001e
C:\Users\Admin\Desktop\mbscan-type\Debug\List\mbscan.asm(1268): warning: .cseg .db misalignment - padding zero byte
00021a 0008      	.DB  0xA,0x0,0x14,0x0,0x1E,0x0,0x8
                 _0x28:
00021b 000a
00021c 0011
00021d 001e
00021e 0001      	.DB  0xA,0x0,0x11,0x0,0x1E,0x0,0x1,0x0
00021f 000a
000220 0011
000221 001e
000222 0002      	.DB  0xA,0x0,0x11,0x0,0x1E,0x0,0x2,0x0
000223 000a
000224 0011
000225 001e
000226 0003      	.DB  0xA,0x0,0x11,0x0,0x1E,0x0,0x3,0x0
000227 000a
000228 0011
000229 001e
00022a 0004      	.DB  0xA,0x0,0x11,0x0,0x1E,0x0,0x4,0x0
00022b 000a
00022c 0011
00022d 001e
00022e 0005      	.DB  0xA,0x0,0x11,0x0,0x1E,0x0,0x5,0x0
00022f 000a
000230 0011
000231 001e
000232 0006      	.DB  0xA,0x0,0x11,0x0,0x1E,0x0,0x6,0x0
000233 000a
000234 0011
000235 001e
000236 0007      	.DB  0xA,0x0,0x11,0x0,0x1E,0x0,0x7,0x0
000237 000a
000238 0011
000239 001e
C:\Users\Admin\Desktop\mbscan-type\Debug\List\mbscan.asm(1277): warning: .cseg .db misalignment - padding zero byte
00023a 0008      	.DB  0xA,0x0,0x11,0x0,0x1E,0x0,0x8
                 _0x29:
00023b 0001
00023c 0016
00023d 001e
00023e 0001      	.DB  0x1,0x0,0x16,0x0,0x1E,0x0,0x1,0x0
00023f 0001
000240 0016
000241 001e
000242 0002      	.DB  0x1,0x0,0x16,0x0,0x1E,0x0,0x2,0x0
000243 0001
000244 0016
000245 001e
000246 0003      	.DB  0x1,0x0,0x16,0x0,0x1E,0x0,0x3,0x0
000247 0001
000248 0016
000249 001e
00024a 0004      	.DB  0x1,0x0,0x16,0x0,0x1E,0x0,0x4,0x0
00024b 0001
00024c 0016
00024d 001e
00024e 0005      	.DB  0x1,0x0,0x16,0x0,0x1E,0x0,0x5,0x0
00024f 0001
000250 0016
000251 001e
000252 0006      	.DB  0x1,0x0,0x16,0x0,0x1E,0x0,0x6,0x0
000253 0001
000254 0016
000255 001e
000256 0007      	.DB  0x1,0x0,0x16,0x0,0x1E,0x0,0x7,0x0
000257 0001
000258 0016
000259 001e
C:\Users\Admin\Desktop\mbscan-type\Debug\List\mbscan.asm(1286): warning: .cseg .db misalignment - padding zero byte
00025a 0008      	.DB  0x1,0x0,0x16,0x0,0x1E,0x0,0x8
                 _0x2A:
00025b 000d
00025c 0018
00025d 001e
00025e 0001      	.DB  0xD,0x0,0x18,0x0,0x1E,0x0,0x1,0x0
00025f 000d
000260 0018
000261 001e
000262 0002      	.DB  0xD,0x0,0x18,0x0,0x1E,0x0,0x2,0x0
000263 000d
000264 0018
000265 001e
000266 0003      	.DB  0xD,0x0,0x18,0x0,0x1E,0x0,0x3,0x0
000267 000d
000268 0018
000269 001e
00026a 0004      	.DB  0xD,0x0,0x18,0x0,0x1E,0x0,0x4,0x0
00026b 000d
00026c 0018
00026d 001e
00026e 0005      	.DB  0xD,0x0,0x18,0x0,0x1E,0x0,0x5,0x0
00026f 000d
000270 0018
000271 001e
000272 0006      	.DB  0xD,0x0,0x18,0x0,0x1E,0x0,0x6,0x0
000273 000d
000274 0018
000275 001e
000276 0007      	.DB  0xD,0x0,0x18,0x0,0x1E,0x0,0x7,0x0
000277 000d
000278 0018
000279 001e
C:\Users\Admin\Desktop\mbscan-type\Debug\List\mbscan.asm(1295): warning: .cseg .db misalignment - padding zero byte
00027a 0008      	.DB  0xD,0x0,0x18,0x0,0x1E,0x0,0x8
                 _0x2B:
00027b 001b
00027c 0016
00027d 0005
00027e 0013      	.DB  0x1B,0x0,0x16,0x0,0x5,0x0,0x13,0x0
00027f 0005
000280 0013
000281 0001
C:\Users\Admin\Desktop\mbscan-type\Debug\List\mbscan.asm(1298): warning: .cseg .db misalignment - padding zero byte
000282 0018      	.DB  0x5,0x0,0x13,0x0,0x1,0x0,0x18
                 _0x2C:
000283 0021
000284 0018
000285 001a
000286 0001      	.DB  0x21,0x0,0x18,0x0,0x1A,0x0,0x1,0x0
000287 0021
000288 0018
000289 001a
00028a 0002      	.DB  0x21,0x0,0x18,0x0,0x1A,0x0,0x2,0x0
00028b 0021
00028c 0021
00028d 0021
00028e 0012      	.DB  0x21,0x0,0x21,0x0,0x21,0x0,0x12,0x0
00028f 0021
000290 0021
000291 0021
000292 0013      	.DB  0x21,0x0,0x21,0x0,0x21,0x0,0x13,0x0
000293 0021
000294 0021
000295 0021
000296 0019      	.DB  0x21,0x0,0x21,0x0,0x21,0x0,0x19,0x0
000297 0021
000298 0021
000299 0021
00029a 0005      	.DB  0x21,0x0,0x21,0x0,0x21,0x0,0x5,0x0
00029b 0021
00029c 0021
00029d 0021
00029e 001a      	.DB  0x21,0x0,0x21,0x0,0x21,0x0,0x1A,0x0
00029f 001b
0002a0 0017
0002a1 0014
0002a2 001a      	.DB  0x1B,0x0,0x17,0x0,0x14,0x0,0x1A,0x0
0002a3 0004
0002a4 001e
C:\Users\Admin\Desktop\mbscan-type\Debug\List\mbscan.asm(1308): warning: .cseg .db misalignment - padding zero byte
0002a5 0002      	.DB  0x4,0x0,0x1E,0x0,0x2
                 _0x2D:
0002a6 0021
0002a7 0020
0002a8 0006
0002a9 0013      	.DB  0x21,0x0,0x20,0x0,0x6,0x0,0x13,0x0
0002aa 0001
0002ab 0020
0002ac 0002
0002ad 0013      	.DB  0x1,0x0,0x20,0x0,0x2,0x0,0x13,0x0
0002ae 0003
0002af 001f
0002b0 0004
0002b1 0013      	.DB  0x3,0x0,0x1F,0x0,0x4,0x0,0x13,0x0
0002b2 0001
0002b3 0001
0002b4 0024
C:\Users\Admin\Desktop\mbscan-type\Debug\List\mbscan.asm(1313): warning: .cseg .db misalignment - padding zero byte
0002b5 0002      	.DB  0x1,0x0,0x1,0x0,0x24,0x0,0x2
                 _0x2E:
0002b6 000c
0002b7 0014
0002b8 001e
0002b9 0001      	.DB  0xC,0x0,0x14,0x0,0x1E,0x0,0x1,0x0
0002ba 000c
0002bb 0014
0002bc 001e
0002bd 0002      	.DB  0xC,0x0,0x14,0x0,0x1E,0x0,0x2,0x0
0002be 000c
0002bf 0014
0002c0 001e
0002c1 0003      	.DB  0xC,0x0,0x14,0x0,0x1E,0x0,0x3,0x0
0002c2 000c
0002c3 0014
0002c4 001e
0002c5 0004      	.DB  0xC,0x0,0x14,0x0,0x1E,0x0,0x4,0x0
0002c6 000c
0002c7 0014
0002c8 001e
0002c9 0005      	.DB  0xC,0x0,0x14,0x0,0x1E,0x0,0x5,0x0
0002ca 000c
0002cb 0014
0002cc 001e
0002cd 0006      	.DB  0xC,0x0,0x14,0x0,0x1E,0x0,0x6,0x0
0002ce 000c
0002cf 0014
0002d0 001e
0002d1 0007      	.DB  0xC,0x0,0x14,0x0,0x1E,0x0,0x7,0x0
0002d2 000c
0002d3 0014
0002d4 001e
C:\Users\Admin\Desktop\mbscan-type\Debug\List\mbscan.asm(1322): warning: .cseg .db misalignment - padding zero byte
0002d5 0008      	.DB  0xC,0x0,0x14,0x0,0x1E,0x0,0x8
                 _0x2F:
0002d6 0022
0002d7 0000
0002d8 0000
0002d9 0001      	.DB  0x22,0x0,0x0,0x0,0x0,0x0,0x1,0x0
0002da 0000
0002db 0022
0002dc 0000
0002dd 0001      	.DB  0x0,0x0,0x22,0x0,0x0,0x0,0x1,0x0
0002de 0000
0002df 0000
0002e0 0022
0002e1 0001      	.DB  0x0,0x0,0x0,0x0,0x22,0x0,0x1,0x0
0002e2 0000
0002e3 0000
0002e4 0000
C:\Users\Admin\Desktop\mbscan-type\Debug\List\mbscan.asm(1327): warning: .cseg .db misalignment - padding zero byte
0002e5 0001      	.DB  0x0,0x0,0x0,0x0,0x0,0x0,0x1
                 _0x30:
0002e6 001e
0002e7 001e
0002e8 001e
C:\Users\Admin\Desktop\mbscan-type\Debug\List\mbscan.asm(1329): warning: .cseg .db misalignment - padding zero byte
0002e9 001e      	.DB  0x1E,0x0,0x1E,0x0,0x1E,0x0,0x1E
                 _0x31:
0002ea 0001
0002eb 0021
0002ec 0021
C:\Users\Admin\Desktop\mbscan-type\Debug\List\mbscan.asm(1331): warning: .cseg .db misalignment - padding zero byte
0002ed 0021      	.DB  0x1,0x0,0x21,0x0,0x21,0x0,0x21
                 _0x32:
0002ee df3c
0002ef e7e0
0002f0 f02a
0002f1 f830      	.DB  0x3C,0xDF,0xE0,0xE7,0x2A,0xF0,0x30,0xF8
0002f2 0000
0002f3 07a3
0002f4 0f1e
0002f5 1662      	.DB  0x0,0x0,0xA3,0x7,0x1E,0xF,0x62,0x16
0002f6 1d82
0002f7 2477
0002f8 2b43
0002f9 31e7      	.DB  0x82,0x1D,0x77,0x24,0x43,0x2B,0xE7,0x31
0002fa 3860
0002fb 3eb4
0002fc 44e3
0002fd 4ae3      	.DB  0x60,0x38,0xB4,0x3E,0xE3,0x44,0xE3,0x4A
0002fe 50cd
0002ff 568e
000300 5dc0      	.DB  0xCD,0x50,0x8E,0x56,0xC0,0x5D
                 _0x33:
000301 0000
000302 0102
000303 020f
000304 0321      	.DB  0x0,0x0,0x2,0x1,0xF,0x2,0x21,0x3
000305 0436
000306 054c
000307 0661
000308 0775      	.DB  0x36,0x4,0x4C,0x5,0x61,0x6,0x75,0x7
000309 0889
00030a 099d
00030b 0ab3
00030c 0bce      	.DB  0x89,0x8,0x9D,0x9,0xB3,0xA,0xCE,0xB
00030d 0cee
00030e 0e17
00030f 0f49      	.DB  0xEE,0xC,0x17,0xE,0x49,0xF
                 _0x34:
000310 0000
000311 00ca
000312 019a
000313 0266      	.DB  0x0,0x0,0xCA,0x0,0x9A,0x1,0x66,0x2
000314 032e
000315 03f7
000316 04c5
000317 0596      	.DB  0x2E,0x3,0xF7,0x3,0xC5,0x4,0x96,0x5
000318 0668
000319 073c
00031a 0810
00031b 08e6      	.DB  0x68,0x6,0x3C,0x7,0x10,0x8,0xE6,0x8
00031c 09bb
00031d 0a8f
00031e 0b61
00031f 0c31      	.DB  0xBB,0x9,0x8F,0xA,0x61,0xB,0x31,0xC
000320 0d00
000321 0dcb
000322 0e95
000323 0f5b      	.DB  0x0,0xD,0xCB,0xD,0x95,0xE,0x5B,0xF
000324 1020
000325 10e1
000326 11a0
000327 125c      	.DB  0x20,0x10,0xE1,0x10,0xA0,0x11,0x5C,0x12
000328 1314
000329 13c8
00032a 1479
00032b 1526      	.DB  0x14,0x13,0xC8,0x13,0x79,0x14,0x26,0x15
                 _0x35:
00032c 0000
00032d 0128
00032e 0287
00032f 0411      	.DB  0x0,0x0,0x28,0x1,0x87,0x2,0x11,0x4
000330 05bd
000331 0783
000332 0961
000333 0b50      	.DB  0xBD,0x5,0x83,0x7,0x61,0x9,0x50,0xB
000334 0d50
000335 0f5d
000336 1177
000337 139d      	.DB  0x50,0xD,0x5D,0xF,0x77,0x11,0x9D,0x13
000338 15cf
000339 180d
00033a 1a57
00033b 1cac      	.DB  0xCF,0x15,0xD,0x18,0x57,0x1A,0xAC,0x1C
00033c 1f0e
00033d 217b
00033e 23f5
00033f 267a      	.DB  0xE,0x1F,0x7B,0x21,0xF5,0x23,0x7A,0x26
000340 290a
000341 2ba5
000342 2e4a
000343 30f7      	.DB  0xA,0x29,0xA5,0x2B,0x4A,0x2E,0xF7,0x30
000344 33ac
000345 3666
000346 3925
000347 3be6      	.DB  0xAC,0x33,0x66,0x36,0x25,0x39,0xE6,0x3B
000348 3ea8
000349 416a
00034a 442b
00034b 46e8      	.DB  0xA8,0x3E,0x6A,0x41,0x2B,0x44,0xE8,0x46
00034c 49a1
00034d 4c54
00034e 4efe
00034f 518d      	.DB  0xA1,0x49,0x54,0x4C,0xFE,0x4E,0x8D,0x51
                 _0x36:
000350 0000
000351 012b
000352 0286
000353 0405      	.DB  0x0,0x0,0x2B,0x1,0x86,0x2,0x5,0x4
000354 05a1
000355 0752
000356 0913
000357 0ae2      	.DB  0xA1,0x5,0x52,0x7,0x13,0x9,0xE2,0xA
000358 0cbb
000359 0e9e
00035a 1089
00035b 127c      	.DB  0xBB,0xC,0x9E,0xE,0x89,0x10,0x7C,0x12
00035c 1477
00035d 1679
00035e 1883
00035f 1a96      	.DB  0x77,0x14,0x79,0x16,0x83,0x18,0x96,0x1A
000360 1cb1
000361 1ed5
000362 2101
000363 2336      	.DB  0xB1,0x1C,0xD5,0x1E,0x1,0x21,0x36,0x23
000364 2573
000365 27b8
000366 2a05
000367 2c57      	.DB  0x73,0x25,0xB8,0x27,0x5,0x2A,0x57,0x2C
000368 2eaf
000369 310a
00036a 3367
00036b 35c6      	.DB  0xAF,0x2E,0xA,0x31,0x67,0x33,0xC6,0x35
00036c 3825
00036d 3a82
00036e 3cde
00036f 3f36      	.DB  0x25,0x38,0x82,0x3A,0xDE,0x3C,0x36,0x3F
000370 4189
000371 43d6
000372 461b
000373 4847      	.DB  0x89,0x41,0xD6,0x43,0x1B,0x46,0x47,0x48
                 _0x37:
000374 fdd0
000375 fe30
000376 feae
000377 ff4a      	.DB  0xD0,0xFD,0x30,0xFE,0xAE,0xFE,0x4A,0xFF
000378 0000
000379 00cc
00037a 01ac
00037b 029e      	.DB  0x0,0x0,0xCC,0x0,0xAC,0x1,0x9E,0x2
00037c 03a1
00037d 04b1
00037e 05ce
00037f 06f6      	.DB  0xA1,0x3,0xB1,0x4,0xCE,0x5,0xF6,0x6
                 _0xED:
000380 0000
000381 0000
000382 0000
000383 0000      	.DB  0x0,0x0,0x0,0x0,0x0,0x0,0x0,0x0
000384 0000      	.DB  0x0,0x0
                 _0xF4:
000385 0000
000386 0000
000387 0000
000388 0000      	.DB  0x0,0x0,0x0,0x0,0x0,0x0,0x0,0x0
000389 0000      	.DB  0x0,0x0
                 _0xFB:
00038a 0000
00038b 0000
00038c 0000
00038d 0000      	.DB  0x0,0x0,0x0,0x0,0x0,0x0,0x0,0x0
00038e 0000      	.DB  0x0,0x0
                 
                 __GLOBAL_INI_TBL:
00038f 0002      	.DW  0x02
000390 0002      	.DW  0x02
000391 0266      	.DW  __REG_BIT_VARS*2
                 
000392 0025      	.DW  0x25
000393 028c      	.DW  _segment_table
000394 0268      	.DW  _0x1F*2
                 
000395 0007      	.DW  0x07
000396 02c1      	.DW  _ms_menu
000397 028e      	.DW  _0x20*2
                 
000398 0047      	.DW  0x47
000399 02c9      	.DW  _message_menu
00039a 0296      	.DW  _0x21*2
                 
00039b 0017      	.DW  0x17
00039c 0311      	.DW  _message_gen
00039d 02de      	.DW  _0x22*2
                 
00039e 003f      	.DW  0x3F
00039f 0329      	.DW  _message_os
0003a0 02f6      	.DW  _0x23*2
                 
0003a1 003f      	.DW  0x3F
0003a2 0369      	.DW  _message_skip
0003a3 0336      	.DW  _0x24*2
                 
0003a4 003f      	.DW  0x3F
0003a5 03a9      	.DW  _message_rlow
0003a6 0376      	.DW  _0x25*2
                 
0003a7 003f      	.DW  0x3F
0003a8 03e9      	.DW  _message_rhigh
0003a9 03b6      	.DW  _0x26*2
                 
0003aa 003f      	.DW  0x3F
0003ab 0429      	.DW  _message_alow
0003ac 03f6      	.DW  _0x27*2
                 
0003ad 003f      	.DW  0x3F
0003ae 0469      	.DW  _message_ahigh
0003af 0436      	.DW  _0x28*2
                 
0003b0 003f      	.DW  0x3F
0003b1 04a9      	.DW  _message_in
0003b2 0476      	.DW  _0x29*2
                 
0003b3 003f      	.DW  0x3F
0003b4 04e9      	.DW  _message_dp
0003b5 04b6      	.DW  _0x2A*2
                 
0003b6 000f      	.DW  0x0F
0003b7 0539      	.DW  _message_skuk
0003b8 04f6      	.DW  _0x2B*2
                 
0003b9 0045      	.DW  0x45
0003ba 0549      	.DW  _message_inp
0003bb 0506      	.DW  _0x2C*2
                 
0003bc 001f      	.DW  0x1F
0003bd 0591      	.DW  _message_baud
0003be 054c      	.DW  _0x2D*2
                 
0003bf 003f      	.DW  0x3F
0003c0 05b1      	.DW  _message_cal
0003c1 056c      	.DW  _0x2E*2
                 
0003c2 001f      	.DW  0x1F
0003c3 05f1      	.DW  _message_dp1
0003c4 05ac      	.DW  _0x2F*2
                 
0003c5 0007      	.DW  0x07
0003c6 0611      	.DW  _message_neg
0003c7 05cc      	.DW  _0x30*2
                 
0003c8 0007      	.DW  0x07
0003c9 0619      	.DW  _message_open
0003ca 05d4      	.DW  _0x31*2
                 
0003cb 0026      	.DW  0x26
0003cc 0621      	.DW  _table_p
0003cd 05dc      	.DW  _0x32*2
                 
0003ce 001e      	.DW  0x1E
0003cf 0647      	.DW  _table_j
0003d0 0602      	.DW  _0x33*2
                 
0003d1 0038      	.DW  0x38
0003d2 0665      	.DW  _table_k
0003d3 0620      	.DW  _0x34*2
                 
0003d4 0048      	.DW  0x48
0003d5 069d      	.DW  _table_r
0003d6 0658      	.DW  _0x35*2
                 
0003d7 0048      	.DW  0x48
0003d8 06e5      	.DW  _table_s
0003d9 06a0      	.DW  _0x36*2
                 
0003da 0018      	.DW  0x18
0003db 072d      	.DW  _table_t
0003dc 06e8      	.DW  _0x37*2
                 
                 _0xFFFFFFFF:
0003dd 0000      	.DW  0
                 
                 #define __GLOBAL_INI_TBL_PRESENT 1
                 
                 __RESET:
0003de 94f8      	CLI
0003df 27ee      	CLR  R30
0003e0 bbec      	OUT  EECR,R30
                 
                 ;INTERRUPT VECTORS ARE PLACED
                 ;AT THE START OF FLASH
0003e1 e0f1      	LDI  R31,1
0003e2 bff5      	OUT  MCUCR,R31
0003e3 bfe5      	OUT  MCUCR,R30
                 
                 ;CLEAR R2-R14
0003e4 e08d      	LDI  R24,(14-2)+1
0003e5 e0a2      	LDI  R26,2
0003e6 27bb      	CLR  R27
                 __CLEAR_REG:
0003e7 93ed      	ST   X+,R30
0003e8 958a      	DEC  R24
0003e9 f7e9      	BRNE __CLEAR_REG
                 
                 ;CLEAR SRAM
0003ea e080      	LDI  R24,LOW(__CLEAR_SRAM_SIZE)
0003eb e098      	LDI  R25,HIGH(__CLEAR_SRAM_SIZE)
0003ec e6a0      	LDI  R26,__SRAM_START
                 __CLEAR_SRAM:
0003ed 93ed      	ST   X+,R30
0003ee 9701      	SBIW R24,1
0003ef f7e9      	BRNE __CLEAR_SRAM
                 
                 ;GLOBAL VARIABLES INITIALIZATION
0003f0 e1ee      	LDI  R30,LOW(__GLOBAL_INI_TBL*2)
0003f1 e0f7      	LDI  R31,HIGH(__GLOBAL_INI_TBL*2)
                 __GLOBAL_INI_NEXT:
0003f2 9185      	LPM  R24,Z+
0003f3 9195      	LPM  R25,Z+
0003f4 9700      	SBIW R24,0
0003f5 f061      	BREQ __GLOBAL_INI_END
0003f6 91a5      	LPM  R26,Z+
0003f7 91b5      	LPM  R27,Z+
0003f8 9005      	LPM  R0,Z+
0003f9 9015      	LPM  R1,Z+
0003fa 01bf      	MOVW R22,R30
0003fb 01f0      	MOVW R30,R0
                 __GLOBAL_INI_LOOP:
0003fc 9005      	LPM  R0,Z+
0003fd 920d      	ST   X+,R0
0003fe 9701      	SBIW R24,1
0003ff f7e1      	BRNE __GLOBAL_INI_LOOP
000400 01fb      	MOVW R30,R22
000401 cff0      	RJMP __GLOBAL_INI_NEXT
                 __GLOBAL_INI_END:
                 
                 ;HARDWARE STACK POINTER INITIALIZATION
000402 e5ef      	LDI  R30,LOW(__SRAM_END-__HEAP_SIZE)
000403 bfed      	OUT  SPL,R30
000404 e0e8      	LDI  R30,HIGH(__SRAM_END-__HEAP_SIZE)
000405 bfee      	OUT  SPH,R30
                 
                 ;DATA STACK POINTER INITIALIZATION
000406 e6c0      	LDI  R28,LOW(__SRAM_START+__DSTACK_SIZE)
000407 e0d1      	LDI  R29,HIGH(__SRAM_START+__DSTACK_SIZE)
                 
000408 940c 236e 	JMP  _main
                 
                 	.ESEG
                 	.ORG 0
                 
                 	.DSEG
                 	.ORG 0x160
                 
                 	.CSEG
                 ;
                 ;/*******************************************************
                 ;derived from mbscan15.c
                 ;reason: the relay for al-hi and al-lo are to be interchanged
                 ;as per the connection sticker.
                 ;to be corrected in main universal unit as well
                 ;
                 ;derived from mbscan14.c
                 ;reason:
                 ;done: converted to T type -ve range
                 ;todo:
                 ;fix r-lo,r-hi and other parmeters to fixed values
                 ;remove them in programming.
                 ;
                 ;r-lo : all -200
                 ;r-hi : all +300
                 ;dp: all 3
                 ;inp: all T type
                 ;
                 ;
                 ;
                 ;
                 ;date: 25-02-2020
                 ;derived from mbscan10.c
                 ;
                 ;reason: to add dp in function code 4 along with PV so that it can be scanned and displayed along with
                 ;decimal point by PC software
                 ;delay change from 20mS to 50mS
                 ;
                 ;
                 ;date: 26-11-2019
                 ;derived from mbscan9.c
                 ;reason:
                 ;*to add preset single register function in modbus.
                 ;function code 06
                 ;
                 ;
                 ;date: 16-11-2019
                 ;derived from mbscan8.c
                 ;todo:
                 ;* add other functions to modbus protocol
                 ;    04  ---read input register
                 ;    16  ---preset multiple register
                 ;
                 ;* limit the no. of registers read to 16 bytes. if more, than return only 16
                 ;* add tick timer to timeout error request.. timeout is 1 second and poll timeout is 20ms
                 ;* add scan time logic
                 ;* add scan/hold logic
                 ;*add open sensor status
                 ;* add predefined code to channels for open/underrange/skip status in modbus transmission
                 ;        underrange ---- 0xbbbb hex
                 ;        overrange ------0xcccc hex
                 ;        skipped   ------0xdddd hex
                 ;
                 ;
                 ;
                 ;date 11-11-2019
                 ;derived from mbscan7.c
                 ;reason: to add modbus
                 ;
                 ;
                 ;
                 ;
                 ;date: 06-11-2019
                 ;derived from mbscan6.c
                 ;todo:
                 ;*add 4~20ma linearisation
                 ;*add voltage linearisation
                 ;add offset
                 ;add skip status to relay and led logic
                 ;skip channel 8 if thermocouple selected on any channel and collect ch8 data for ambient calculation
                 ;ambient calibration temp value in rhi-8
                 ;add ambient compensation to thermocouples
                 ;
                 ;
                 ;
                 ;derived from mbscan4.c
                 ;to do:
                 ;*add led logic
                 ;*add decimal point for pt100 0.1
                 ;*add relay logic and link to led status
                 ;*add common relay logic
                 ;*add range limits for thermocouple and pt100
                 ;*add skip status
                 ;*eeprom store and retrieve dp status.
                 ;*add serial speed
                 ;
                 ;
                 ;derived from mbscan3.c
                 ;date: 01-11-2019
                 ;reason:
                 ;to add voltage and 4~20mA tables
                 ;to correct blinking issue
                 ;to add decimal point
                 ;
                 ;date 04-10-2019
                 ;reason: to add menu routines
                 ;main menu: Scan time st,offset OSx8, skip/unskip x 8,alarm low x 8,alarm high x8,input x 8, modbus id,baudrate
                 ;
                 ;
                 ;derived from mbscan1.c
                 ;date: 2-10-2019
                 ;achieved:
                 ;*display and led scan
                 ;*adc 3421 operating with mux scanning
                 ;
                 ;
                 ;todo
                 ;* scan display with chno. on bottom and pv on top. fixed scan time of 2 seconds
                 ;
                 ;
                 ;
                 ;
                 ;
                 ;
                 ;
                 ;
                 ;
                 ;This program was created by the
                 ;CodeWizardAVR V3.12 Advanced
                 ;Automatic Program Generator
                 ; Copyright 1998-2014 Pavel Haiduc, HP InfoTech s.r.l.
                 ;http://www.hpinfotech.com
                 ;
                 ;Project : mbscan
                 ;Version : 1.0
                 ;Date    : 10/1/2019
                 ;Author  : pundalik
                 ;Company : bhoomi controls
                 ;Comments:
                 ;this is compatible with mbscan1/2/3/4
                 ;hardware
                 ;
                 ;
                 ;Chip type               : ATmega32A
                 ;Program type            : Application
                 ;AVR Core Clock frequency: 11.059200 MHz
                 ;Memory model            : Small
                 ;External RAM size       : 0
                 ;Data Stack size         : 512
                 ;*******************************************************/
                 ;
                 ;#include <mega32a.h>
                 	#ifndef __SLEEP_DEFINED__
                 	#define __SLEEP_DEFINED__
                 	.EQU __se_bit=0x80
                 	.EQU __sm_mask=0x70
                 	.EQU __sm_powerdown=0x20
                 	.EQU __sm_powersave=0x30
                 	.EQU __sm_standby=0x60
                 	.EQU __sm_ext_standby=0x70
                 	.EQU __sm_adc_noise_red=0x10
                 	.SET power_ctrl_reg=mcucr
                 	#endif
                 ;
                 ;// I2C Bus functions
                 ;#include <i2c.h>
                 ;
                 ;// Declare your global variables here
                 ;
                 ;#define DATA_REGISTER_EMPTY (1<<UDRE)
                 ;#define RX_COMPLETE (1<<RXC)
                 ;#define FRAMING_ERROR (1<<FE)
                 ;#define PARITY_ERROR (1<<UPE)
                 ;#define DATA_OVERRUN (1<<DOR)
                 ;
                 ;
                 ;
                 ;#define digit1() PORTC.0 = 1
                 ;#define digit2() PORTC.7 = 1
                 ;#define digit3() PORTC.6 = 1
                 ;#define digit4() PORTC.5 = 1
                 ;#define digit5() PORTC.1 = 1
                 ;#define digit6() PORTC.2 = 1
                 ;#define digit7() PORTC.3 = 1
                 ;#define digit8() PORTC.4 = 1
                 ;#define digit9() PORTB.6 = 1        //led red common
                 ;#define digit10() PORTB.7 = 1       //led green common
                 ;
                 ;
                 ;#define relay1 PORTD.7
                 ;#define relay2 PORTD.6
                 ;
                 ;#define key1 PINB.2
                 ;#define key2 PINB.3
                 ;#define key3 PINB.4
                 ;#define key4 PINB.5
                 ;#define key5 PINB.2
                 ;
                 ;#define mux9 PORTD.3
                 ;#define mux10 PORTD.4
                 ;#define mux11 PORTD.5
                 ;
                 ;void clear_display(void)
                 ; 0000 00B8 {
                 
                 	.CSEG
                 _clear_display:
                 ; .FSTART _clear_display
                 ; 0000 00B9 PORTA =0xff;    //segment off
00040a efef      	LDI  R30,LOW(255)
00040b bbeb      	OUT  0x1B,R30
                 ; 0000 00BA PORTC = 0x00;  //digit drive off
00040c e0e0      	LDI  R30,LOW(0)
00040d bbe5      	OUT  0x15,R30
                 ; 0000 00BB PORTB.6 = 0;   //led common off
00040e 98c6      	CBI  0x18,6
                 ; 0000 00BC PORTB.7 =0;
00040f 98c7      	CBI  0x18,7
                 ; 0000 00BD 
                 ; 0000 00BE 
                 ; 0000 00BF }
000410 9508      	RET
                 ; .FEND
                 ;
                 ;unsigned short int led_status,led_status1;
                 ;unsigned short int display_buffer[10];
                 ;short int dummy[1] = {0};
                 ;short int dummy2[1] = {0};
                 ;int process_value[8];
                 ;short int display_count;
                 ;short int display_scan_cnt;
                 ;bit modbus_fl;      // recieved modbus flag
                 ;
                 ;#define all_led_off() led_status = 0xff;             //red led status
                 ;#define rled3_on() led_status &= 0xfe
                 ;#define rled2_on() led_status &= 0xfd
                 ;#define rled1_on() led_status &= 0xfb
                 ;#define rled4_on() led_status &= 0xf7
                 ;#define rled5_on() led_status &= 0xef
                 ;#define rled6_on() led_status &= 0xdf
                 ;#define rled7_on() led_status &= 0xbf
                 ;#define rled8_on() led_status &= 0x7f
                 ;#define rled3_off() led_status |= 0x01
                 ;#define rled2_off() led_status |= 0x02
                 ;#define rled1_off() led_status |= 0x04
                 ;#define rled4_off() led_status |= 0x08
                 ;#define rled5_off() led_status |= 0x10
                 ;#define rled6_off() led_status |= 0x20
                 ;#define rled7_off() led_status |= 0x40
                 ;#define rled8_off() led_status |= 0x80
                 ;
                 ;#define all_led_off1() led_status1 = 0xff;             //red led status
                 ;#define gled3_on() led_status1 &= 0xfe
                 ;#define gled2_on() led_status1 &= 0xfd
                 ;#define gled1_on() led_status1 &= 0xfb
                 ;#define gled4_on() led_status1 &= 0xf7
                 ;#define gled5_on() led_status1 &= 0xef
                 ;#define gled6_on() led_status1 &= 0xdf
                 ;#define gled7_on() led_status1 &= 0xbf
                 ;#define gled8_on() led_status1 &= 0x7f
                 ;#define gled3_off() led_status1 |= 0x01
                 ;#define gled2_off() led_status1 |= 0x02
                 ;#define gled1_off() led_status1 |= 0x04
                 ;#define gled4_off() led_status1 |= 0x08
                 ;#define gled5_off() led_status1 |= 0x10
                 ;#define gled6_off() led_status1 |= 0x20
                 ;#define gled7_off() led_status1 |= 0x40
                 ;#define gled8_off() led_status1 |= 0x80
                 ;
                 ;#define mb_dir  PORTD.2
                 ;
                 ;
                 ;
                 ;//memory map
                 ;int gen[8];
                 ;eeprom int ee_gen[8]={1,1,0,0,0,0,0,0};
                 ;int os[8];
                 ;eeprom int ee_os[8]={0,0,0,0,0,0,0,0};
                 ;int skip[8];
                 ;eeprom int ee_skip[8]={0,0,0,0,0,0,0,0};
                 ;int rlow[8];
                 ;eeprom int ee_rlow[8]={0,0,0,0,0,0,0,0};
                 ;int rhigh[8];
                 ;eeprom int ee_rhigh[8]={100,100,100,100,100,100,100,100};
                 ;int alow[8];
                 ;eeprom int ee_alow[8]={0,0,0,0,0,0,0,0};
                 ;int ahigh[8];
                 ;eeprom int ee_ahigh[8]={100,100,100,100,100,100,100,100};
                 ;int input[8];
                 ;eeprom int ee_input[8]={0,0,0,0,0,0,0,0};
                 ;int dp[8];
                 ;eeprom int ee_dp[8]={0,0,0,0,0,0,0,0};
                 ;
                 ;int cal_zero[8];
                 ;eeprom int ee_cal_zero[8]={10300,10300,10300,10300,10300,10300,10300,10300};
                 ;int cal_span[8];
                 ;eeprom int ee_cal_span[8]={21300,21300,21300,21300,21300,21300,21300,21300};
                 ;int ambient_val;
                 ;bit tc_fl;
                 ;
                 ;
                 ;
                 ;
                 ;
                 ;
                 ;
                 ;
                 ;
                 ;
                 ;
                 ;
                 ;
                 ;
                 ;
                 ;
                 ;
                 ;
                 ;
                 ;
                 ;
                 ;
                 ;// USART Receiver buffer
                 ;#define RX_BUFFER_SIZE 20
                 ;char rx_buffer[RX_BUFFER_SIZE];
                 ;
                 ;#if RX_BUFFER_SIZE <= 256
                 ;unsigned char rx_wr_index=0,rx_rd_index=0;
                 ;#else
                 ;unsigned int rx_wr_index=0,rx_rd_index=0;
                 ;#endif
                 ;
                 ;#if RX_BUFFER_SIZE < 256
                 ;unsigned char rx_counter=0;
                 ;#else
                 ;unsigned int rx_counter=0;
                 ;#endif
                 ;char mbreceived_data[10];
                 ;
                 ;// This flag is set on USART Receiver buffer overflow
                 ;bit rx_buffer_overflow;
                 ;
                 ;// USART Receiver interrupt service routine
                 ;interrupt [USART_RXC] void usart_rx_isr(void)
                 ; 0000 0138 {
                 _usart_rx_isr:
                 ; .FSTART _usart_rx_isr
000411 93aa      	ST   -Y,R26
000412 93ba      	ST   -Y,R27
000413 93ea      	ST   -Y,R30
000414 93fa      	ST   -Y,R31
000415 b7ef      	IN   R30,SREG
000416 93ea      	ST   -Y,R30
                 ; 0000 0139 char status,data,i;
                 ; 0000 013A status=UCSRA;
000417 940e 26cb 	CALL __SAVELOCR4
                 ;	status -> R17
                 ;	data -> R16
                 ;	i -> R19
000419 b11b      	IN   R17,11
                 ; 0000 013B data=UDR;
00041a b10c      	IN   R16,12
                 ; 0000 013C if ((status & (FRAMING_ERROR | PARITY_ERROR | DATA_OVERRUN))==0)
00041b 2fe1      	MOV  R30,R17
00041c 71ec      	ANDI R30,LOW(0x1C)
00041d f009      	BREQ PC+2
00041e c047      	RJMP _0x7
                 ; 0000 013D    {
                 ; 0000 013E    rx_buffer[rx_wr_index++]=data;
00041f 91e0 024c 	LDS  R30,_rx_wr_index
000421 5fef      	SUBI R30,-LOW(1)
000422 93e0 024c 	STS  _rx_wr_index,R30
000424 50e1      	SUBI R30,LOW(1)
000425 e0f0      	LDI  R31,0
000426 5ce8      	SUBI R30,LOW(-_rx_buffer)
000427 4ffd      	SBCI R31,HIGH(-_rx_buffer)
000428 8300      	ST   Z,R16
                 ; 0000 013F #if RX_BUFFER_SIZE == 256
                 ; 0000 0140    // special case for receiver buffer size=256
                 ; 0000 0141    if (++rx_counter == 0) rx_buffer_overflow=1;
                 ; 0000 0142 #else
                 ; 0000 0143    if (rx_wr_index == RX_BUFFER_SIZE) rx_wr_index=0;
000429 91a0 024c 	LDS  R26,_rx_wr_index
00042b 31a4      	CPI  R26,LOW(0x14)
00042c f419      	BRNE _0x8
00042d e0e0      	LDI  R30,LOW(0)
00042e 93e0 024c 	STS  _rx_wr_index,R30
                 ; 0000 0144    if (++rx_counter == RX_BUFFER_SIZE)
                 _0x8:
000430 91a0 024e 	LDS  R26,_rx_counter
000432 5faf      	SUBI R26,-LOW(1)
000433 93a0 024e 	STS  _rx_counter,R26
000435 31a4      	CPI  R26,LOW(0x14)
000436 f429      	BRNE _0x9
                 ; 0000 0145       {
                 ; 0000 0146       rx_counter=0;
000437 e0e0      	LDI  R30,LOW(0)
000438 93e0 024e 	STS  _rx_counter,R30
                 ; 0000 0147       rx_buffer_overflow=1;
00043a 9468      	SET
00043b f822      	BLD  R2,2
                 ; 0000 0148       }
                 ; 0000 0149 #endif
                 ; 0000 014A ///////////////////////////////////
                 ; 0000 014B //added to form modbus frame
                 ; 0000 014C if (rx_counter==1)
                 _0x9:
00043c 91a0 024e 	LDS  R26,_rx_counter
00043e 30a1      	CPI  R26,LOW(0x1)
00043f f461      	BRNE _0xA
                 ; 0000 014D     {
                 ; 0000 014E     if (rx_buffer[0] != (char)(gen[1]))
                +
000440 91e0 018a+LDS R30 , _gen + ( 2 )
                 	__GETB1MN _gen,2
000442 91a0 0238 	LDS  R26,_rx_buffer
000444 17ea      	CP   R30,R26
000445 f029      	BREQ _0xB
                 ; 0000 014F         rx_counter = rx_wr_index =0;    //reset frame till first byte matchs slave address
000446 e0e0      	LDI  R30,LOW(0)
000447 93e0 024c 	STS  _rx_wr_index,R30
000449 93e0 024e 	STS  _rx_counter,R30
                 ; 0000 0150     }
                 _0xB:
                 ; 0000 0151 else
00044b c01a      	RJMP _0xC
                 _0xA:
                 ; 0000 0152     {
                 ; 0000 0153     // valid slave address.allot frame size according to function code.
                 ; 0000 0154     if (rx_counter >=8)
00044c 91a0 024e 	LDS  R26,_rx_counter
00044e 30a8      	CPI  R26,LOW(0x8)
00044f f0b0      	BRLO _0xD
                 ; 0000 0155       {
                 ; 0000 0156     //modbus frame complete. transfer data to mbreceived_data[]
                 ; 0000 0157         for (i=0;i<8;i++)
000450 e030      	LDI  R19,LOW(0)
                 _0xF:
000451 3038      	CPI  R19,8
000452 f460      	BRSH _0x10
                 ; 0000 0158         {
                 ; 0000 0159         mbreceived_data[i] = rx_buffer[i];
000453 2fa3      	MOV  R26,R19
000454 e0b0      	LDI  R27,0
000455 5ba1      	SUBI R26,LOW(-_mbreceived_data)
000456 4fbd      	SBCI R27,HIGH(-_mbreceived_data)
000457 2fe3      	MOV  R30,R19
000458 e0f0      	LDI  R31,0
000459 5ce8      	SUBI R30,LOW(-_rx_buffer)
00045a 4ffd      	SBCI R31,HIGH(-_rx_buffer)
00045b 81e0      	LD   R30,Z
00045c 93ec      	ST   X,R30
                 ; 0000 015A         }
00045d 5f3f      	SUBI R19,-1
00045e cff2      	RJMP _0xF
                 _0x10:
                 ; 0000 015B         rx_counter = rx_wr_index =0;        //reset counter to start for next frame
00045f e0e0      	LDI  R30,LOW(0)
000460 93e0 024c 	STS  _rx_wr_index,R30
000462 93e0 024e 	STS  _rx_counter,R30
                 ; 0000 015C         modbus_fl =1;                       // set flag to indicate frame recieved in main routine.
000464 9468      	SET
000465 f820      	BLD  R2,0
                 ; 0000 015D //        mb_dir =1;      //ready for transmit
                 ; 0000 015E       }
                 ; 0000 015F     }
                 _0xD:
                 _0xC:
                 ; 0000 0160 
                 ; 0000 0161 
                 ; 0000 0162 //////////////////////////////////
                 ; 0000 0163 
                 ; 0000 0164    }
                 ; 0000 0165 }
                 _0x7:
000466 940e 26d2 	CALL __LOADLOCR4
000468 9624      	ADIW R28,4
000469 91e9      	LD   R30,Y+
00046a bfef      	OUT  SREG,R30
00046b 91f9      	LD   R31,Y+
00046c 91e9      	LD   R30,Y+
00046d 91b9      	LD   R27,Y+
00046e 91a9      	LD   R26,Y+
00046f 9518      	RETI
                 ; .FEND
                 ;
                 ;#ifndef _DEBUG_TERMINAL_IO_
                 ;// Get a character from the USART Receiver buffer
                 ;#define _ALTERNATE_GETCHAR_
                 ;#pragma used+
                 ;char getchar(void)
                 ; 0000 016C {
                 ; 0000 016D char data;
                 ; 0000 016E while (rx_counter==0);
                 ;	data -> R17
                 ; 0000 016F data=rx_buffer[rx_rd_index++];
                 ; 0000 0170 #if RX_BUFFER_SIZE != 256
                 ; 0000 0171 if (rx_rd_index == RX_BUFFER_SIZE) rx_rd_index=0;
                 ; 0000 0172 #endif
                 ; 0000 0173 #asm("cli")
                 ; 0000 0174 --rx_counter;
                 ; 0000 0175 #asm("sei")
                 ; 0000 0176 return data;
                 ; 0000 0177 }
                 ;#pragma used-
                 ;#endif
                 ;
                 ;// USART Transmitter buffer
                 ;#define TX_BUFFER_SIZE 48
                 ;char tx_buffer[TX_BUFFER_SIZE];
                 ;
                 ;#if TX_BUFFER_SIZE <= 256
                 ;unsigned char tx_wr_index=0,tx_rd_index=0;
                 ;#else
                 ;unsigned int tx_wr_index=0,tx_rd_index=0;
                 ;#endif
                 ;
                 ;#if TX_BUFFER_SIZE < 256
                 ;unsigned char tx_counter=0;
                 ;#else
                 ;unsigned int tx_counter=0;
                 ;#endif
                 ;
                 ;// USART Transmitter interrupt service routine
                 ;interrupt [USART_TXC] void usart_tx_isr(void)
                 ; 0000 018D {
                 _usart_tx_isr:
                 ; .FSTART _usart_tx_isr
000470 93aa      	ST   -Y,R26
000471 93ea      	ST   -Y,R30
000472 93fa      	ST   -Y,R31
000473 b7ef      	IN   R30,SREG
000474 93ea      	ST   -Y,R30
                 ; 0000 018E if (tx_counter)
000475 91e0 028b 	LDS  R30,_tx_counter
000477 30e0      	CPI  R30,0
000478 f0a9      	BREQ _0x15
                 ; 0000 018F    {
                 ; 0000 0190    --tx_counter;
000479 50e1      	SUBI R30,LOW(1)
00047a 93e0 028b 	STS  _tx_counter,R30
                 ; 0000 0191    UDR=tx_buffer[tx_rd_index++];
00047c 91e0 028a 	LDS  R30,_tx_rd_index
00047e 5fef      	SUBI R30,-LOW(1)
00047f 93e0 028a 	STS  _tx_rd_index,R30
000481 50e1      	SUBI R30,LOW(1)
000482 e0f0      	LDI  R31,0
000483 5ae7      	SUBI R30,LOW(-_tx_buffer)
000484 4ffd      	SBCI R31,HIGH(-_tx_buffer)
000485 81e0      	LD   R30,Z
000486 b9ec      	OUT  0xC,R30
                 ; 0000 0192 #if TX_BUFFER_SIZE != 256
                 ; 0000 0193    if (tx_rd_index == TX_BUFFER_SIZE) tx_rd_index=0;
000487 91a0 028a 	LDS  R26,_tx_rd_index
000489 33a0      	CPI  R26,LOW(0x30)
00048a f419      	BRNE _0x16
00048b e0e0      	LDI  R30,LOW(0)
00048c 93e0 028a 	STS  _tx_rd_index,R30
                 ; 0000 0194 #endif
                 ; 0000 0195    }
                 _0x16:
                 ; 0000 0196 }
                 _0x15:
00048e 91e9      	LD   R30,Y+
00048f bfef      	OUT  SREG,R30
000490 91f9      	LD   R31,Y+
000491 91e9      	LD   R30,Y+
000492 91a9      	LD   R26,Y+
000493 9518      	RETI
                 ; .FEND
                 ;
                 ;#ifndef _DEBUG_TERMINAL_IO_
                 ;// Write a character to the USART Transmitter buffer
                 ;#define _ALTERNATE_PUTCHAR_
                 ;#pragma used+
                 ;void putchar(char c)
                 ; 0000 019D {
                 _putchar:
                 ; .FSTART _putchar
                 ; 0000 019E while (tx_counter == TX_BUFFER_SIZE);
000494 93aa      	ST   -Y,R26
                 ;	c -> Y+0
                 _0x17:
000495 91a0 028b 	LDS  R26,_tx_counter
000497 33a0      	CPI  R26,LOW(0x30)
000498 f3e1      	BREQ _0x17
                 ; 0000 019F //#asm("cli")
                 ; 0000 01A0 if (tx_counter || ((UCSRA & DATA_REGISTER_EMPTY)==0))
000499 91e0 028b 	LDS  R30,_tx_counter
00049b 30e0      	CPI  R30,0
00049c f411      	BRNE _0x1B
00049d 995d      	SBIC 0xB,5
00049e c018      	RJMP _0x1A
                 _0x1B:
                 ; 0000 01A1    {
                 ; 0000 01A2    tx_buffer[tx_wr_index++]=c;
00049f 91e0 0289 	LDS  R30,_tx_wr_index
0004a1 5fef      	SUBI R30,-LOW(1)
0004a2 93e0 0289 	STS  _tx_wr_index,R30
0004a4 50e1      	SUBI R30,LOW(1)
0004a5 e0f0      	LDI  R31,0
0004a6 5ae7      	SUBI R30,LOW(-_tx_buffer)
0004a7 4ffd      	SBCI R31,HIGH(-_tx_buffer)
0004a8 81a8      	LD   R26,Y
0004a9 83a0      	STD  Z+0,R26
                 ; 0000 01A3 #if TX_BUFFER_SIZE != 256
                 ; 0000 01A4    if (tx_wr_index == TX_BUFFER_SIZE) tx_wr_index=0;
0004aa 91a0 0289 	LDS  R26,_tx_wr_index
0004ac 33a0      	CPI  R26,LOW(0x30)
0004ad f419      	BRNE _0x1D
0004ae e0e0      	LDI  R30,LOW(0)
0004af 93e0 0289 	STS  _tx_wr_index,R30
                 ; 0000 01A5 #endif
                 ; 0000 01A6    ++tx_counter;
                 _0x1D:
0004b1 91e0 028b 	LDS  R30,_tx_counter
0004b3 5fef      	SUBI R30,-LOW(1)
0004b4 93e0 028b 	STS  _tx_counter,R30
                 ; 0000 01A7    }
                 ; 0000 01A8 else
0004b6 c002      	RJMP _0x1E
                 _0x1A:
                 ; 0000 01A9    UDR=c;
0004b7 81e8      	LD   R30,Y
0004b8 b9ec      	OUT  0xC,R30
                 ; 0000 01AA  //#asm("sei")
                 ; 0000 01AB }
                 _0x1E:
0004b9 9621      	ADIW R28,1
0004ba 9508      	RET
                 ; .FEND
                 ;#pragma used-
                 ;#endif
                 ;
                 ;// Standard Input/Output functions
                 ;#include <stdio.h>
                 ;#include <delay.h>
                 ;
                 ;
                 ;//                              0     1     2   3    4    5    6    7     8    9   10    11   12   13   14   15   16   1 ...
                 ;//                              0     1     2   3    4    5    6    7     8    9    a    b    c    d    e    f    g    h ...
                 ;unsigned char segment_table[]= {0x84,0xf5,0xc2,0xc1,0xb1,0x89,0x88,0xe5,0x80,0x81,0xa0,0x98,0x8e,0xd0,0x8a,0xaa,0x8c,0xb ...
                 
                 	.DSEG
                 ;bit blink_flag,blinking,qsecfl,tsec_fl,hsec_fl;
                 ;short int blink_digit;
                 ;short int mux_scan,tsec_cnt;
                 ;
                 ;//key routine map
                 ;
                 ;short int key_count;
                 ;bit key1_old,key2_old,key3_old,key4_old;
                 ;bit menu_fl;
                 ;short int menu_count,item1,item2;
                 ;short int level;    //level  = 0,1,2 sub level
                 ;short int item1,item2;  // item 1 has common parameters st/id/baudrate
                 ;//menu text
                 ;short int ms_menu[]={21,14,22,27};
                 ;//menu message
                 ;//gen,os,skip,r-lo,r-hi,a-lo,a-hi,inp
                 ;short int message_menu[] = {33,16,14,22,33,33,23,05,05,19,01,24,25,30,20,23,25,30,17,01,10,30,20,23,10,30,17,01,33,01,22 ...
                 ;//st,id,baud
                 ;short int message_gen[]={33,33,5,26,33,33,1,13,11,10,27,13};
                 ;//os-1,os-2.....os-8
                 ;short int message_os[]={23,5,30,1,23,5,30,2,23,5,30,3,23,5,30,4,23,5,30,5,23,5,30,6,23,5,30,7,23,5,30,8};
                 ;//sk-1,sk-2.....sk-8
                 ;short int message_skip[]={05,19,30,01,05,19,30,02,05,19,30,03,05,19,30,04,05,19,30,05,05,19,30,06,05,19,30,07,05,19,30,8 ...
                 ;//rl-1,rl-2....rl-8
                 ;short int message_rlow[]={25,20,30,01,25,20,30,02,25,20,30,03,25,20,30,04,25,20,30,05,25,20,30,06,25,20,30,07,25,20,30,8 ...
                 ;//rh-1...rh-8
                 ;short int message_rhigh[]={25,17,30,01,25,17,30,02,25,17,30,03,25,17,30,04,25,17,30,05,25,17,30,06,25,17,30,07,25,17,30, ...
                 ;//al-1.....al-8
                 ;short int message_alow[]={10,20,30,01,10,20,30,02,10,20,30,03,10,20,30,04,10,20,30,05,10,20,30,06,10,20,30,07,10,20,30,8 ...
                 ;//ah-1...ah-8
                 ;short int message_ahigh[]={10,17,30,01,10,17,30,02,10,17,30,03,10,17,30,04,10,17,30,05,10,17,30,06,10,17,30,07,10,17,30, ...
                 ;//in-1....in-8
                 ;short int message_in[]={01,22,30,01,01,22,30,02,01,22,30,03,01,22,30,04,01,22,30,05,01,22,30,06,01,22,30,07,01,22,30,8};
                 ;//dp-1....dp-8
                 ;short int message_dp[]={13,24,30,1,13,24,30,2,13,24,30,3,13,24,30,4,13,24,30,5,13,24,30,6,13,24,30,7,13,24,30,8};
                 ;
                 ;//process error byte: 0: normal,1: underrange,2: overrange,3: skip
                 ;short int process_error[8];
                 ;
                 ;
                 ;//sub menu messages for skip/unskip,input
                 ;//unsk/skip
                 ;short int message_skuk[]={27,22,05,19,05,19,01,24};
                 ;//pt1,pt2,j,k,r,s,t,volt,4~20
                 ;short int message_inp[]={33,24,26,01,33,24,26,02,33,33,33,18,33,33,33,19,33,33,33,25,33,33,33,05,33,33,33,26,27,23,20,26 ...
                 ;short int message_baud[]={33,32,6,19,1,32,2,19,03,31,04,19,01,01,36,02};  // 9.6k,19.2k,38.4k,115.2
                 ;short int message_cal[]={12,20,30,01,12,20,30,02,12,20,30,03,12,20,30,04,12,20,30,05,12,20,30,06,12,20,30,07,12,20,30,8} ...
                 ;short int message_dp1[]={34,0,0,1,0,34,0,1,0,0,34,1,0,0,0,1}; //0.001,00.01,000.1,0001
                 ;short int message_neg[]={30,30,30,30}; //----
                 ;short int message_open[]={01,33,33,33}; //1
                 ;
                 ;bit cal_fl,ser_fl,hold_fl;     //calibration mode flag;
                 ;
                 ;
                 ;// end of key routine parameters map/////
                 ;
                 ;int table_p[]={-8388,-6176,-4054,-2000,0,1955,3870,5730,7554,9335,11075,12775,14432,16052,17635,19171,20685,22158,24000} ...
                 ;unsigned int table_j[]={0,258,527,801,1078,1356,1633,1909,2185,2461,2739,3022,3310,3607,3913};
                 ;unsigned int table_k[]={0,202,410,614,814,1015,1221,1430,1640,1852,2064,2278,2491,2703,2913,3121,3328,3531,3733,3931,412 ...
                 ;//unsigned int table_k[]={0,184,392,597,797,1000,1206,1415,1626,1839,2052,2266,2480,2693,2903,3112,3319,3524,3726,3925,4 ...
                 ;//unsigned int table_j[]={0,239,509,784,1062,1339,1619,1895,2172,2449,2729,3012,3301,3600,3906};
                 ;
                 ;//unsigned int table_r[]={0,296,647,1041,1469,1923,2401,2896,3408,3933,4471,5021,5583,6157,6743,7340,7950,8571,9205,9850 ...
                 ;//unsigned int table_s[]={0,299,646,1029,1441,1874,2323,2786,3259,3742,4233,4732,5239,5753,6275,6806,7345,7893,8449,9014 ...
                 ;//unsigned int table_t[]={0,204,428,670,929,1201,1486,1782};
                 ;unsigned int table_r[]={0,296,647,1041,1469,1923,2401,2896,3408,3933,4471,5021,5583,6157,6743,7340,7950,8571,9205,9850,1 ...
                 ;unsigned int table_s[]={0,299,646,1029,1441,1874,2323,2786,3259,3742,4233,4732,5239,5753,6275,6806,7345,7893,8449,9014,9 ...
                 ;int table_t[]={-560,-464,-338,-182,0,204,428,670,929,1201,1486,1782};
                 ;
                 ;
                 ;///////////////////////MODBUS CODES /////////////////////////
                 ;
                 ;
                 ;
                 ;
                 ;
                 ;flash int wCRCTable[] = {
                 ;0X0000, 0XC0C1, 0XC181, 0X0140, 0XC301, 0X03C0, 0X0280, 0XC241,
                 ;0XC601, 0X06C0, 0X0780, 0XC741, 0X0500, 0XC5C1, 0XC481, 0X0440,
                 ;0XCC01, 0X0CC0, 0X0D80, 0XCD41, 0X0F00, 0XCFC1, 0XCE81, 0X0E40,
                 ;0X0A00, 0XCAC1, 0XCB81, 0X0B40, 0XC901, 0X09C0, 0X0880, 0XC841,
                 ;0XD801, 0X18C0, 0X1980, 0XD941, 0X1B00, 0XDBC1, 0XDA81, 0X1A40,
                 ;0X1E00, 0XDEC1, 0XDF81, 0X1F40, 0XDD01, 0X1DC0, 0X1C80, 0XDC41,
                 ;0X1400, 0XD4C1, 0XD581, 0X1540, 0XD701, 0X17C0, 0X1680, 0XD641,
                 ;0XD201, 0X12C0, 0X1380, 0XD341, 0X1100, 0XD1C1, 0XD081, 0X1040,
                 ;0XF001, 0X30C0, 0X3180, 0XF141, 0X3300, 0XF3C1, 0XF281, 0X3240,
                 ;0X3600, 0XF6C1, 0XF781, 0X3740, 0XF501, 0X35C0, 0X3480, 0XF441,
                 ;0X3C00, 0XFCC1, 0XFD81, 0X3D40, 0XFF01, 0X3FC0, 0X3E80, 0XFE41,
                 ;0XFA01, 0X3AC0, 0X3B80, 0XFB41, 0X3900, 0XF9C1, 0XF881, 0X3840,
                 ;0X2800, 0XE8C1, 0XE981, 0X2940, 0XEB01, 0X2BC0, 0X2A80, 0XEA41,
                 ;0XEE01, 0X2EC0, 0X2F80, 0XEF41, 0X2D00, 0XEDC1, 0XEC81, 0X2C40,
                 ;0XE401, 0X24C0, 0X2580, 0XE541, 0X2700, 0XE7C1, 0XE681, 0X2640,
                 ;0X2200, 0XE2C1, 0XE381, 0X2340, 0XE101, 0X21C0, 0X2080, 0XE041,
                 ;0XA001, 0X60C0, 0X6180, 0XA141, 0X6300, 0XA3C1, 0XA281, 0X6240,
                 ;0X6600, 0XA6C1, 0XA781, 0X6740, 0XA501, 0X65C0, 0X6480, 0XA441,
                 ;0X6C00, 0XACC1, 0XAD81, 0X6D40, 0XAF01, 0X6FC0, 0X6E80, 0XAE41,
                 ;0XAA01, 0X6AC0, 0X6B80, 0XAB41, 0X6900, 0XA9C1, 0XA881, 0X6840,
                 ;0X7800, 0XB8C1, 0XB981, 0X7940, 0XBB01, 0X7BC0, 0X7A80, 0XBA41,
                 ;0XBE01, 0X7EC0, 0X7F80, 0XBF41, 0X7D00, 0XBDC1, 0XBC81, 0X7C40,
                 ;0XB401, 0X74C0, 0X7580, 0XB541, 0X7700, 0XB7C1, 0XB681, 0X7640,
                 ;0X7200, 0XB2C1, 0XB381, 0X7340, 0XB101, 0X71C0, 0X7080, 0XB041,
                 ;0X5000, 0X90C1, 0X9181, 0X5140, 0X9301, 0X53C0, 0X5280, 0X9241,
                 ;0X9601, 0X56C0, 0X5780, 0X9741, 0X5500, 0X95C1, 0X9481, 0X5440,
                 ;0X9C01, 0X5CC0, 0X5D80, 0X9D41, 0X5F00, 0X9FC1, 0X9E81, 0X5E40,
                 ;0X5A00, 0X9AC1, 0X9B81, 0X5B40, 0X9901, 0X59C0, 0X5880, 0X9841,
                 ;0X8801, 0X48C0, 0X4980, 0X8941, 0X4B00, 0X8BC1, 0X8A81, 0X4A40,
                 ;0X4E00, 0X8EC1, 0X8F81, 0X4F40, 0X8D01, 0X4DC0, 0X4C80, 0X8C41,
                 ;0X4400, 0X84C1, 0X8581, 0X4540, 0X8701, 0X47C0, 0X4680, 0X8641,
                 ;0X8201, 0X42C0, 0X4380, 0X8341, 0X4100, 0X81C1, 0X8081, 0X4040 };
                 ;
                 ;unsigned int CRC16 (const char *nData, unsigned int wLength)
                 ; 0000 0226 {
                 
                 	.CSEG
                 _CRC16:
                 ; .FSTART _CRC16
                 ; 0000 0227 
                 ; 0000 0228 
                 ; 0000 0229 char nTemp;
                 ; 0000 022A unsigned int wCRCWord = 0xFFFF;
                 ; 0000 022B 
                 ; 0000 022C    while (wLength--)
0004bb 93ba      	ST   -Y,R27
0004bc 93aa      	ST   -Y,R26
0004bd 940e 26cb 	CALL __SAVELOCR4
                 ;	*nData -> Y+6
                 ;	wLength -> Y+4
                 ;	nTemp -> R17
                 ;	wCRCWord -> R18,R19
                +
0004bf ef2f     +LDI R18 , LOW ( - 1 )
0004c0 ef3f     +LDI R19 , HIGH ( - 1 )
                 	__GETWRN 18,19,-1
                 _0x38:
0004c1 81ec      	LDD  R30,Y+4
0004c2 81fd      	LDD  R31,Y+4+1
0004c3 9731      	SBIW R30,1
0004c4 83ec      	STD  Y+4,R30
0004c5 83fd      	STD  Y+4+1,R31
0004c6 9631      	ADIW R30,1
0004c7 f0a9      	BREQ _0x3A
                 ; 0000 022D    {
                 ; 0000 022E       nTemp = *nData++ ^ wCRCWord;
0004c8 81ae      	LDD  R26,Y+6
0004c9 81bf      	LDD  R27,Y+6+1
0004ca 91ed      	LD   R30,X+
0004cb 83ae      	STD  Y+6,R26
0004cc 83bf      	STD  Y+6+1,R27
0004cd 27e2      	EOR  R30,R18
0004ce 2f1e      	MOV  R17,R30
                 ; 0000 022F       wCRCWord >>= 8;
0004cf 2f23      	MOV  R18,R19
0004d0 2733      	CLR  R19
                 ; 0000 0230       wCRCWord ^= wCRCTable[nTemp];
0004d1 e5a4      	LDI  R26,LOW(_wCRCTable*2)
0004d2 e0b0      	LDI  R27,HIGH(_wCRCTable*2)
0004d3 e0f0      	LDI  R31,0
0004d4 0fee      	LSL  R30
0004d5 1fff      	ROL  R31
0004d6 0fea      	ADD  R30,R26
0004d7 1ffb      	ADC  R31,R27
0004d8 940e 2680 	CALL __GETW1PF
                +
0004da 272e     +EOR R18 , R30
0004db 273f     +EOR R19 , R31
                 	__EORWRR 18,19,30,31
                 ; 0000 0231    }
0004dc cfe4      	RJMP _0x38
                 _0x3A:
                 ; 0000 0232    return wCRCWord;
0004dd 01f9      	MOVW R30,R18
0004de 940e 26d2 	CALL __LOADLOCR4
0004e0 9628      	ADIW R28,8
0004e1 9508      	RET
                 ; 0000 0233 
                 ; 0000 0234 }
                 ; .FEND
                 ;
                 ;int mb_data[57];
                 ;int mb_inputdata[21];
                 ;//function  codes
                 ;#define mbreadholdingregisters  3
                 ;#define mbreadinputregisters    4
                 ;#define mb presetmultipleregisters 16
                 ;#define mbreportslaveid  17
                 ;
                 ;//error codes
                 ;#define mbillegalfunction 1
                 ;#define mbillegaldataaddress 2
                 ;#define mbillegaldatavalue 3
                 ;#define mbslavedevicefailure 4
                 ;#define mbacknowledge 5
                 ;#define mbslavedevicebusy 6
                 ;#define mbnegativeacknowledge 7
                 ;#define mbmemoryparityerror 8
                 ;
                 ;
                 ;
                 ;void mbreset()
                 ; 0000 024B {
                 _mbreset:
                 ; .FSTART _mbreset
                 ; 0000 024C 
                 ; 0000 024D     rx_counter=0;
0004e2 e0e0      	LDI  R30,LOW(0)
0004e3 93e0 024e 	STS  _rx_counter,R30
                 ; 0000 024E     rx_rd_index=0;
0004e5 93e0 024d 	STS  _rx_rd_index,R30
                 ; 0000 024F     rx_rd_index =0;
0004e7 93e0 024d 	STS  _rx_rd_index,R30
                 ; 0000 0250     tx_counter =0;
0004e9 93e0 028b 	STS  _tx_counter,R30
                 ; 0000 0251     tx_wr_index =0;
0004eb 93e0 0289 	STS  _tx_wr_index,R30
                 ; 0000 0252     tx_rd_index =0;
0004ed 93e0 028a 	STS  _tx_rd_index,R30
                 ; 0000 0253 }
0004ef 9508      	RET
                 ; .FEND
                 ;
                 ;
                 ;//map
                 ;//40001 - 8    process_Value
                 ;//40009-16   al-hi
                 ;//40017-24   al-lo
                 ;//40018-32    r-hi
                 ;//40033-40   r-lo
                 ;void mb_datatransfer()
                 ; 0000 025D {
                 _mb_datatransfer:
                 ; .FSTART _mb_datatransfer
                 ; 0000 025E short int i,count =0;
                 ; 0000 025F for (i =0;i<8;i++)
0004f0 940e 26cb 	CALL __SAVELOCR4
                 ;	i -> R16,R17
                 ;	count -> R18,R19
                +
0004f2 e020     +LDI R18 , LOW ( 0 )
0004f3 e030     +LDI R19 , HIGH ( 0 )
                 	__GETWRN 18,19,0
                +
0004f4 e000     +LDI R16 , LOW ( 0 )
0004f5 e010     +LDI R17 , HIGH ( 0 )
                 	__GETWRN 16,17,0
                 _0x3C:
                +
0004f6 3008     +CPI R16 , LOW ( 8 )
0004f7 e0e0     +LDI R30 , HIGH ( 8 )
0004f8 071e     +CPC R17 , R30
                 	__CPWRN 16,17,8
0004f9 f4cc      	BRGE _0x3D
                 ; 0000 0260     {
                 ; 0000 0261     mb_data[count] = os[i];
0004fa 01f9      	MOVW R30,R18
0004fb e4a5      	LDI  R26,LOW(_mb_data)
0004fc e0b7      	LDI  R27,HIGH(_mb_data)
0004fd 0fee      	LSL  R30
0004fe 1fff      	ROL  R31
0004ff 0fea      	ADD  R30,R26
000500 1ffb      	ADC  R31,R27
000501 010f      	MOVW R0,R30
000502 01f8      	MOVW R30,R16
000503 e9a8      	LDI  R26,LOW(_os)
000504 e0b1      	LDI  R27,HIGH(_os)
000505 0fee      	LSL  R30
000506 1fff      	ROL  R31
000507 0fae      	ADD  R26,R30
000508 1fbf      	ADC  R27,R31
000509 940e 2677 	CALL __GETW1P
00050b 01d0      	MOVW R26,R0
00050c 93ed      	ST   X+,R30
00050d 93fc      	ST   X,R31
                 ; 0000 0262     count++;
                +
00050e 5f2f     +SUBI R18 , LOW ( - 1 )
00050f 4f3f     +SBCI R19 , HIGH ( - 1 )
                 	__ADDWRN 18,19,1
                 ; 0000 0263     }
                +
000510 5f0f     +SUBI R16 , LOW ( - 1 )
000511 4f1f     +SBCI R17 , HIGH ( - 1 )
                 	__ADDWRN 16,17,1
000512 cfe3      	RJMP _0x3C
                 _0x3D:
                 ; 0000 0264 for (i =0;i<8;i++)
                +
000513 e000     +LDI R16 , LOW ( 0 )
000514 e010     +LDI R17 , HIGH ( 0 )
                 	__GETWRN 16,17,0
                 _0x3F:
                +
000515 3008     +CPI R16 , LOW ( 8 )
000516 e0e0     +LDI R30 , HIGH ( 8 )
000517 071e     +CPC R17 , R30
                 	__CPWRN 16,17,8
000518 f4cc      	BRGE _0x40
                 ; 0000 0265     {
                 ; 0000 0266     mb_data[count] = skip[i];
000519 01f9      	MOVW R30,R18
00051a e4a5      	LDI  R26,LOW(_mb_data)
00051b e0b7      	LDI  R27,HIGH(_mb_data)
00051c 0fee      	LSL  R30
00051d 1fff      	ROL  R31
00051e 0fea      	ADD  R30,R26
00051f 1ffb      	ADC  R31,R27
000520 010f      	MOVW R0,R30
000521 01f8      	MOVW R30,R16
000522 eaa8      	LDI  R26,LOW(_skip)
000523 e0b1      	LDI  R27,HIGH(_skip)
000524 0fee      	LSL  R30
000525 1fff      	ROL  R31
000526 0fae      	ADD  R26,R30
000527 1fbf      	ADC  R27,R31
000528 940e 2677 	CALL __GETW1P
00052a 01d0      	MOVW R26,R0
00052b 93ed      	ST   X+,R30
00052c 93fc      	ST   X,R31
                 ; 0000 0267     count++;
                +
00052d 5f2f     +SUBI R18 , LOW ( - 1 )
00052e 4f3f     +SBCI R19 , HIGH ( - 1 )
                 	__ADDWRN 18,19,1
                 ; 0000 0268     }
                +
00052f 5f0f     +SUBI R16 , LOW ( - 1 )
000530 4f1f     +SBCI R17 , HIGH ( - 1 )
                 	__ADDWRN 16,17,1
000531 cfe3      	RJMP _0x3F
                 _0x40:
                 ; 0000 0269 for (i =0;i<8;i++)
                +
000532 e000     +LDI R16 , LOW ( 0 )
000533 e010     +LDI R17 , HIGH ( 0 )
                 	__GETWRN 16,17,0
                 _0x42:
                +
000534 3008     +CPI R16 , LOW ( 8 )
000535 e0e0     +LDI R30 , HIGH ( 8 )
000536 071e     +CPC R17 , R30
                 	__CPWRN 16,17,8
000537 f4cc      	BRGE _0x43
                 ; 0000 026A     {
                 ; 0000 026B     mb_data[count] = ahigh[i];
000538 01f9      	MOVW R30,R18
000539 e4a5      	LDI  R26,LOW(_mb_data)
00053a e0b7      	LDI  R27,HIGH(_mb_data)
00053b 0fee      	LSL  R30
00053c 1fff      	ROL  R31
00053d 0fea      	ADD  R30,R26
00053e 1ffb      	ADC  R31,R27
00053f 010f      	MOVW R0,R30
000540 01f8      	MOVW R30,R16
000541 eea8      	LDI  R26,LOW(_ahigh)
000542 e0b1      	LDI  R27,HIGH(_ahigh)
000543 0fee      	LSL  R30
000544 1fff      	ROL  R31
000545 0fae      	ADD  R26,R30
000546 1fbf      	ADC  R27,R31
000547 940e 2677 	CALL __GETW1P
000549 01d0      	MOVW R26,R0
00054a 93ed      	ST   X+,R30
00054b 93fc      	ST   X,R31
                 ; 0000 026C     count++;
                +
00054c 5f2f     +SUBI R18 , LOW ( - 1 )
00054d 4f3f     +SBCI R19 , HIGH ( - 1 )
                 	__ADDWRN 18,19,1
                 ; 0000 026D     }
                +
00054e 5f0f     +SUBI R16 , LOW ( - 1 )
00054f 4f1f     +SBCI R17 , HIGH ( - 1 )
                 	__ADDWRN 16,17,1
000550 cfe3      	RJMP _0x42
                 _0x43:
                 ; 0000 026E for (i =0;i<8;i++)
                +
000551 e000     +LDI R16 , LOW ( 0 )
000552 e010     +LDI R17 , HIGH ( 0 )
                 	__GETWRN 16,17,0
                 _0x45:
                +
000553 3008     +CPI R16 , LOW ( 8 )
000554 e0e0     +LDI R30 , HIGH ( 8 )
000555 071e     +CPC R17 , R30
                 	__CPWRN 16,17,8
000556 f4cc      	BRGE _0x46
                 ; 0000 026F     {
                 ; 0000 0270     mb_data[count] = alow[i];
000557 01f9      	MOVW R30,R18
000558 e4a5      	LDI  R26,LOW(_mb_data)
000559 e0b7      	LDI  R27,HIGH(_mb_data)
00055a 0fee      	LSL  R30
00055b 1fff      	ROL  R31
00055c 0fea      	ADD  R30,R26
00055d 1ffb      	ADC  R31,R27
00055e 010f      	MOVW R0,R30
00055f 01f8      	MOVW R30,R16
000560 eda8      	LDI  R26,LOW(_alow)
000561 e0b1      	LDI  R27,HIGH(_alow)
000562 0fee      	LSL  R30
000563 1fff      	ROL  R31
000564 0fae      	ADD  R26,R30
000565 1fbf      	ADC  R27,R31
000566 940e 2677 	CALL __GETW1P
000568 01d0      	MOVW R26,R0
000569 93ed      	ST   X+,R30
00056a 93fc      	ST   X,R31
                 ; 0000 0271     count++;
                +
00056b 5f2f     +SUBI R18 , LOW ( - 1 )
00056c 4f3f     +SBCI R19 , HIGH ( - 1 )
                 	__ADDWRN 18,19,1
                 ; 0000 0272     }
                +
00056d 5f0f     +SUBI R16 , LOW ( - 1 )
00056e 4f1f     +SBCI R17 , HIGH ( - 1 )
                 	__ADDWRN 16,17,1
00056f cfe3      	RJMP _0x45
                 _0x46:
                 ; 0000 0273 for (i =0;i<8;i++)
                +
000570 e000     +LDI R16 , LOW ( 0 )
000571 e010     +LDI R17 , HIGH ( 0 )
                 	__GETWRN 16,17,0
                 _0x48:
                +
000572 3008     +CPI R16 , LOW ( 8 )
000573 e0e0     +LDI R30 , HIGH ( 8 )
000574 071e     +CPC R17 , R30
                 	__CPWRN 16,17,8
000575 f4cc      	BRGE _0x49
                 ; 0000 0274     {
                 ; 0000 0275     mb_data[count] = rhigh[i];
000576 01f9      	MOVW R30,R18
000577 e4a5      	LDI  R26,LOW(_mb_data)
000578 e0b7      	LDI  R27,HIGH(_mb_data)
000579 0fee      	LSL  R30
00057a 1fff      	ROL  R31
00057b 0fea      	ADD  R30,R26
00057c 1ffb      	ADC  R31,R27
00057d 010f      	MOVW R0,R30
00057e 01f8      	MOVW R30,R16
00057f eca8      	LDI  R26,LOW(_rhigh)
000580 e0b1      	LDI  R27,HIGH(_rhigh)
000581 0fee      	LSL  R30
000582 1fff      	ROL  R31
000583 0fae      	ADD  R26,R30
000584 1fbf      	ADC  R27,R31
000585 940e 2677 	CALL __GETW1P
000587 01d0      	MOVW R26,R0
000588 93ed      	ST   X+,R30
000589 93fc      	ST   X,R31
                 ; 0000 0276     count++;
                +
00058a 5f2f     +SUBI R18 , LOW ( - 1 )
00058b 4f3f     +SBCI R19 , HIGH ( - 1 )
                 	__ADDWRN 18,19,1
                 ; 0000 0277     }
                +
00058c 5f0f     +SUBI R16 , LOW ( - 1 )
00058d 4f1f     +SBCI R17 , HIGH ( - 1 )
                 	__ADDWRN 16,17,1
00058e cfe3      	RJMP _0x48
                 _0x49:
                 ; 0000 0278 for (i =0;i<8;i++)
                +
00058f e000     +LDI R16 , LOW ( 0 )
000590 e010     +LDI R17 , HIGH ( 0 )
                 	__GETWRN 16,17,0
                 _0x4B:
                +
000591 3008     +CPI R16 , LOW ( 8 )
000592 e0e0     +LDI R30 , HIGH ( 8 )
000593 071e     +CPC R17 , R30
                 	__CPWRN 16,17,8
000594 f4cc      	BRGE _0x4C
                 ; 0000 0279     {
                 ; 0000 027A     mb_data[count] = rlow[i];
000595 01f9      	MOVW R30,R18
000596 e4a5      	LDI  R26,LOW(_mb_data)
000597 e0b7      	LDI  R27,HIGH(_mb_data)
000598 0fee      	LSL  R30
000599 1fff      	ROL  R31
00059a 0fea      	ADD  R30,R26
00059b 1ffb      	ADC  R31,R27
00059c 010f      	MOVW R0,R30
00059d 01f8      	MOVW R30,R16
00059e eba8      	LDI  R26,LOW(_rlow)
00059f e0b1      	LDI  R27,HIGH(_rlow)
0005a0 0fee      	LSL  R30
0005a1 1fff      	ROL  R31
0005a2 0fae      	ADD  R26,R30
0005a3 1fbf      	ADC  R27,R31
0005a4 940e 2677 	CALL __GETW1P
0005a6 01d0      	MOVW R26,R0
0005a7 93ed      	ST   X+,R30
0005a8 93fc      	ST   X,R31
                 ; 0000 027B     count++;
                +
0005a9 5f2f     +SUBI R18 , LOW ( - 1 )
0005aa 4f3f     +SBCI R19 , HIGH ( - 1 )
                 	__ADDWRN 18,19,1
                 ; 0000 027C     }
                +
0005ab 5f0f     +SUBI R16 , LOW ( - 1 )
0005ac 4f1f     +SBCI R17 , HIGH ( - 1 )
                 	__ADDWRN 16,17,1
0005ad cfe3      	RJMP _0x4B
                 _0x4C:
                 ; 0000 027D for (i =0;i<8;i++)
                +
0005ae e000     +LDI R16 , LOW ( 0 )
0005af e010     +LDI R17 , HIGH ( 0 )
                 	__GETWRN 16,17,0
                 _0x4E:
                +
0005b0 3008     +CPI R16 , LOW ( 8 )
0005b1 e0e0     +LDI R30 , HIGH ( 8 )
0005b2 071e     +CPC R17 , R30
                 	__CPWRN 16,17,8
0005b3 f4cc      	BRGE _0x4F
                 ; 0000 027E     {
                 ; 0000 027F     mb_data[count] = dp[i];
0005b4 01f9      	MOVW R30,R18
0005b5 e4a5      	LDI  R26,LOW(_mb_data)
0005b6 e0b7      	LDI  R27,HIGH(_mb_data)
0005b7 0fee      	LSL  R30
0005b8 1fff      	ROL  R31
0005b9 0fea      	ADD  R30,R26
0005ba 1ffb      	ADC  R31,R27
0005bb 010f      	MOVW R0,R30
0005bc 01f8      	MOVW R30,R16
0005bd e0a8      	LDI  R26,LOW(_dp)
0005be e0b2      	LDI  R27,HIGH(_dp)
0005bf 0fee      	LSL  R30
0005c0 1fff      	ROL  R31
0005c1 0fae      	ADD  R26,R30
0005c2 1fbf      	ADC  R27,R31
0005c3 940e 2677 	CALL __GETW1P
0005c5 01d0      	MOVW R26,R0
0005c6 93ed      	ST   X+,R30
0005c7 93fc      	ST   X,R31
                 ; 0000 0280     count++;
                +
0005c8 5f2f     +SUBI R18 , LOW ( - 1 )
0005c9 4f3f     +SBCI R19 , HIGH ( - 1 )
                 	__ADDWRN 18,19,1
                 ; 0000 0281     }
                +
0005ca 5f0f     +SUBI R16 , LOW ( - 1 )
0005cb 4f1f     +SBCI R17 , HIGH ( - 1 )
                 	__ADDWRN 16,17,1
0005cc cfe3      	RJMP _0x4E
                 _0x4F:
                 ; 0000 0282 mb_data[count] = gen[0];        //scan time
0005cd 01f9      	MOVW R30,R18
0005ce e4a5      	LDI  R26,LOW(_mb_data)
0005cf e0b7      	LDI  R27,HIGH(_mb_data)
0005d0 0fee      	LSL  R30
0005d1 1fff      	ROL  R31
0005d2 0fea      	ADD  R30,R26
0005d3 1ffb      	ADC  R31,R27
0005d4 91a0 0188 	LDS  R26,_gen
0005d6 91b0 0189 	LDS  R27,_gen+1
0005d8 83a0      	STD  Z+0,R26
0005d9 83b1      	STD  Z+1,R27
                 ; 0000 0283 //end of holding register transfer
                 ; 0000 0284 //start of input register(read only) data
                 ; 0000 0285 count=0;
                +
0005da e020     +LDI R18 , LOW ( 0 )
0005db e030     +LDI R19 , HIGH ( 0 )
                 	__GETWRN 18,19,0
                 ; 0000 0286 for (i =0;i<8;i++)
                +
0005dc e000     +LDI R16 , LOW ( 0 )
0005dd e010     +LDI R17 , HIGH ( 0 )
                 	__GETWRN 16,17,0
                 _0x51:
                +
0005de 3008     +CPI R16 , LOW ( 8 )
0005df e0e0     +LDI R30 , HIGH ( 8 )
0005e0 071e     +CPC R17 , R30
                 	__CPWRN 16,17,8
0005e1 f00c      	BRLT PC+2
0005e2 c058      	RJMP _0x52
                 ; 0000 0287     {
                 ; 0000 0288     switch (process_error[i])
0005e3 01f8      	MOVW R30,R16
0005e4 e2a9      	LDI  R26,LOW(_process_error)
0005e5 e0b5      	LDI  R27,HIGH(_process_error)
0005e6 0fee      	LSL  R30
0005e7 1fff      	ROL  R31
0005e8 0fae      	ADD  R26,R30
0005e9 1fbf      	ADC  R27,R31
0005ea 940e 2677 	CALL __GETW1P
                 ; 0000 0289     {
                 ; 0000 028A     case 0: mb_inputdata[count] = process_value[i];
0005ec 9730      	SBIW R30,0
0005ed f0e1      	BREQ _0x333
                 ; 0000 028B             break;
                 ; 0000 028C     case 1: mb_inputdata[count] = 20000;       //overrange
0005ee 30e1      	CPI  R30,LOW(0x1)
0005ef e0a0      	LDI  R26,HIGH(0x1)
0005f0 07fa      	CPC  R31,R26
0005f1 f451      	BRNE _0x57
0005f2 01f9      	MOVW R30,R18
0005f3 eba7      	LDI  R26,LOW(_mb_inputdata)
0005f4 e0b7      	LDI  R27,HIGH(_mb_inputdata)
0005f5 0fee      	LSL  R30
0005f6 1fff      	ROL  R31
0005f7 0fae      	ADD  R26,R30
0005f8 1fbf      	ADC  R27,R31
0005f9 e2e0      	LDI  R30,LOW(20000)
0005fa e4fe      	LDI  R31,HIGH(20000)
0005fb c020      	RJMP _0x334
                 ; 0000 028D             break;
                 ; 0000 028E     case 2: mb_inputdata[count] = 22000;      //underrange
                 _0x57:
0005fc 30e2      	CPI  R30,LOW(0x2)
0005fd e0a0      	LDI  R26,HIGH(0x2)
0005fe 07fa      	CPC  R31,R26
0005ff f451      	BRNE _0x59
000600 01f9      	MOVW R30,R18
000601 eba7      	LDI  R26,LOW(_mb_inputdata)
000602 e0b7      	LDI  R27,HIGH(_mb_inputdata)
000603 0fee      	LSL  R30
000604 1fff      	ROL  R31
000605 0fae      	ADD  R26,R30
000606 1fbf      	ADC  R27,R31
000607 efe0      	LDI  R30,LOW(22000)
000608 e5f5      	LDI  R31,HIGH(22000)
000609 c012      	RJMP _0x334
                 ; 0000 028F             break;
                 ; 0000 0290     default:mb_inputdata[count] = process_value[i];
                 _0x59:
                 _0x333:
00060a 01f9      	MOVW R30,R18
00060b eba7      	LDI  R26,LOW(_mb_inputdata)
00060c e0b7      	LDI  R27,HIGH(_mb_inputdata)
00060d 0fee      	LSL  R30
00060e 1fff      	ROL  R31
00060f 0fea      	ADD  R30,R26
000610 1ffb      	ADC  R31,R27
000611 010f      	MOVW R0,R30
000612 01f8      	MOVW R30,R16
000613 e7a8      	LDI  R26,LOW(_process_value)
000614 e0b1      	LDI  R27,HIGH(_process_value)
000615 0fee      	LSL  R30
000616 1fff      	ROL  R31
000617 0fae      	ADD  R26,R30
000618 1fbf      	ADC  R27,R31
000619 940e 2677 	CALL __GETW1P
00061b 01d0      	MOVW R26,R0
                 _0x334:
00061c 93ed      	ST   X+,R30
00061d 93fc      	ST   X,R31
                 ; 0000 0291             break;
                 ; 0000 0292     }
                 ; 0000 0293     if (skip[i] ==1) mb_inputdata[count] =24000;
00061e 01f8      	MOVW R30,R16
00061f eaa8      	LDI  R26,LOW(_skip)
000620 e0b1      	LDI  R27,HIGH(_skip)
000621 0fee      	LSL  R30
000622 1fff      	ROL  R31
000623 0fae      	ADD  R26,R30
000624 1fbf      	ADC  R27,R31
000625 940e 2677 	CALL __GETW1P
000627 30e1      	CPI  R30,LOW(0x1)
000628 e0a0      	LDI  R26,HIGH(0x1)
000629 07fa      	CPC  R31,R26
00062a f459      	BRNE _0x5A
00062b 01f9      	MOVW R30,R18
00062c eba7      	LDI  R26,LOW(_mb_inputdata)
00062d e0b7      	LDI  R27,HIGH(_mb_inputdata)
00062e 0fee      	LSL  R30
00062f 1fff      	ROL  R31
000630 0fae      	ADD  R26,R30
000631 1fbf      	ADC  R27,R31
000632 ece0      	LDI  R30,LOW(24000)
000633 e5fd      	LDI  R31,HIGH(24000)
000634 93ed      	ST   X+,R30
000635 93fc      	ST   X,R31
                 ; 0000 0294     count++;
                 _0x5A:
                +
000636 5f2f     +SUBI R18 , LOW ( - 1 )
000637 4f3f     +SBCI R19 , HIGH ( - 1 )
                 	__ADDWRN 18,19,1
                 ; 0000 0295     }
                +
000638 5f0f     +SUBI R16 , LOW ( - 1 )
000639 4f1f     +SBCI R17 , HIGH ( - 1 )
                 	__ADDWRN 16,17,1
00063a cfa3      	RJMP _0x51
                 _0x52:
                 ; 0000 0296 ///added to store factor to be divided from process value according to dp
                 ; 0000 0297 for (i =0;i<8;i++)
                +
00063b e000     +LDI R16 , LOW ( 0 )
00063c e010     +LDI R17 , HIGH ( 0 )
                 	__GETWRN 16,17,0
                 _0x5C:
                +
00063d 3008     +CPI R16 , LOW ( 8 )
00063e e0e0     +LDI R30 , HIGH ( 8 )
00063f 071e     +CPC R17 , R30
                 	__CPWRN 16,17,8
000640 f00c      	BRLT PC+2
000641 c041      	RJMP _0x5D
                 ; 0000 0298     {
                 ; 0000 0299     switch (dp[i])
000642 01f8      	MOVW R30,R16
000643 e0a8      	LDI  R26,LOW(_dp)
000644 e0b2      	LDI  R27,HIGH(_dp)
000645 0fee      	LSL  R30
000646 1fff      	ROL  R31
000647 0fae      	ADD  R26,R30
000648 1fbf      	ADC  R27,R31
000649 940e 2677 	CALL __GETW1P
                 ; 0000 029A     {
                 ; 0000 029B     case 0: mb_inputdata[count] = 1000;
00064b 9730      	SBIW R30,0
00064c f451      	BRNE _0x61
00064d 01f9      	MOVW R30,R18
00064e eba7      	LDI  R26,LOW(_mb_inputdata)
00064f e0b7      	LDI  R27,HIGH(_mb_inputdata)
000650 0fee      	LSL  R30
000651 1fff      	ROL  R31
000652 0fae      	ADD  R26,R30
000653 1fbf      	ADC  R27,R31
000654 eee8      	LDI  R30,LOW(1000)
000655 e0f3      	LDI  R31,HIGH(1000)
000656 c025      	RJMP _0x335
                 ; 0000 029C             break;
                 ; 0000 029D     case 1: mb_inputdata[count] = 100;
                 _0x61:
000657 30e1      	CPI  R30,LOW(0x1)
000658 e0a0      	LDI  R26,HIGH(0x1)
000659 07fa      	CPC  R31,R26
00065a f451      	BRNE _0x62
00065b 01f9      	MOVW R30,R18
00065c eba7      	LDI  R26,LOW(_mb_inputdata)
00065d e0b7      	LDI  R27,HIGH(_mb_inputdata)
00065e 0fee      	LSL  R30
00065f 1fff      	ROL  R31
000660 0fae      	ADD  R26,R30
000661 1fbf      	ADC  R27,R31
000662 e6e4      	LDI  R30,LOW(100)
000663 e0f0      	LDI  R31,HIGH(100)
000664 c017      	RJMP _0x335
                 ; 0000 029E             break;
                 ; 0000 029F     case 2: mb_inputdata[count] = 10;
                 _0x62:
000665 30e2      	CPI  R30,LOW(0x2)
000666 e0a0      	LDI  R26,HIGH(0x2)
000667 07fa      	CPC  R31,R26
000668 f451      	BRNE _0x64
000669 01f9      	MOVW R30,R18
00066a eba7      	LDI  R26,LOW(_mb_inputdata)
00066b e0b7      	LDI  R27,HIGH(_mb_inputdata)
00066c 0fee      	LSL  R30
00066d 1fff      	ROL  R31
00066e 0fae      	ADD  R26,R30
00066f 1fbf      	ADC  R27,R31
000670 e0ea      	LDI  R30,LOW(10)
000671 e0f0      	LDI  R31,HIGH(10)
000672 c009      	RJMP _0x335
                 ; 0000 02A0             break;
                 ; 0000 02A1     default:mb_inputdata[count] = 1;
                 _0x64:
000673 01f9      	MOVW R30,R18
000674 eba7      	LDI  R26,LOW(_mb_inputdata)
000675 e0b7      	LDI  R27,HIGH(_mb_inputdata)
000676 0fee      	LSL  R30
000677 1fff      	ROL  R31
000678 0fae      	ADD  R26,R30
000679 1fbf      	ADC  R27,R31
00067a e0e1      	LDI  R30,LOW(1)
00067b e0f0      	LDI  R31,HIGH(1)
                 _0x335:
00067c 93ed      	ST   X+,R30
00067d 93fc      	ST   X,R31
                 ; 0000 02A2             break;
                 ; 0000 02A3     }
                 ; 0000 02A4     count++;
                +
00067e 5f2f     +SUBI R18 , LOW ( - 1 )
00067f 4f3f     +SBCI R19 , HIGH ( - 1 )
                 	__ADDWRN 18,19,1
                 ; 0000 02A5     }
                +
000680 5f0f     +SUBI R16 , LOW ( - 1 )
000681 4f1f     +SBCI R17 , HIGH ( - 1 )
                 	__ADDWRN 16,17,1
000682 cfba      	RJMP _0x5C
                 _0x5D:
                 ; 0000 02A6 ///////////////////////////
                 ; 0000 02A7 
                 ; 0000 02A8 mb_inputdata[count] = gen[1];       //slave ID
000683 01f9      	MOVW R30,R18
000684 eba7      	LDI  R26,LOW(_mb_inputdata)
000685 e0b7      	LDI  R27,HIGH(_mb_inputdata)
000686 0fee      	LSL  R30
000687 1fff      	ROL  R31
000688 0fae      	ADD  R26,R30
000689 1fbf      	ADC  R27,R31
                +
00068a 91e0 018a+LDS R30 , _gen + ( 2 )
00068c 91f0 018b+LDS R31 , _gen + ( 2 ) + 1
                 	__GETW1MN _gen,2
00068e 93ed      	ST   X+,R30
00068f 93fc      	ST   X,R31
                 ; 0000 02A9 count++;
                +
000690 5f2f     +SUBI R18 , LOW ( - 1 )
000691 4f3f     +SBCI R19 , HIGH ( - 1 )
                 	__ADDWRN 18,19,1
                 ; 0000 02AA mb_inputdata[count] = gen[2];       //baud rate
000692 01f9      	MOVW R30,R18
000693 eba7      	LDI  R26,LOW(_mb_inputdata)
000694 e0b7      	LDI  R27,HIGH(_mb_inputdata)
000695 0fee      	LSL  R30
000696 1fff      	ROL  R31
000697 0fae      	ADD  R26,R30
000698 1fbf      	ADC  R27,R31
                +
000699 91e0 018c+LDS R30 , _gen + ( 4 )
00069b 91f0 018d+LDS R31 , _gen + ( 4 ) + 1
                 	__GETW1MN _gen,4
00069d 93ed      	ST   X+,R30
00069e 93fc      	ST   X,R31
                 ; 0000 02AB count++;
                +
00069f 5f2f     +SUBI R18 , LOW ( - 1 )
0006a0 4f3f     +SBCI R19 , HIGH ( - 1 )
                 	__ADDWRN 18,19,1
                 ; 0000 02AC mb_inputdata[count] = ~led_status;       //bitwise status of alarm high of individual channels
0006a1 01f9      	MOVW R30,R18
0006a2 eba7      	LDI  R26,LOW(_mb_inputdata)
0006a3 e0b7      	LDI  R27,HIGH(_mb_inputdata)
0006a4 0fee      	LSL  R30
0006a5 1fff      	ROL  R31
0006a6 0fae      	ADD  R26,R30
0006a7 1fbf      	ADC  R27,R31
0006a8 01f2      	MOVW R30,R4
0006a9 95e0      	COM  R30
0006aa 95f0      	COM  R31
0006ab 93ed      	ST   X+,R30
0006ac 93fc      	ST   X,R31
                 ; 0000 02AD count++;
                +
0006ad 5f2f     +SUBI R18 , LOW ( - 1 )
0006ae 4f3f     +SBCI R19 , HIGH ( - 1 )
                 	__ADDWRN 18,19,1
                 ; 0000 02AE mb_inputdata[count] = ~led_status1;       //bitwise status of alarm high of individual channels
0006af 01f9      	MOVW R30,R18
0006b0 eba7      	LDI  R26,LOW(_mb_inputdata)
0006b1 e0b7      	LDI  R27,HIGH(_mb_inputdata)
0006b2 0fee      	LSL  R30
0006b3 1fff      	ROL  R31
0006b4 0fae      	ADD  R26,R30
0006b5 1fbf      	ADC  R27,R31
0006b6 01f3      	MOVW R30,R6
0006b7 95e0      	COM  R30
0006b8 95f0      	COM  R31
0006b9 93ed      	ST   X+,R30
0006ba 93fc      	ST   X,R31
                 ; 0000 02AF count++;
                +
0006bb 5f2f     +SUBI R18 , LOW ( - 1 )
0006bc 4f3f     +SBCI R19 , HIGH ( - 1 )
                 	__ADDWRN 18,19,1
                 ; 0000 02B0 }
0006bd 940e 26d2 	CALL __LOADLOCR4
0006bf 9624      	ADIW R28,4
0006c0 9508      	RET
                 ; .FEND
                 ;
                 ;
                 ;//used for function code 06. write single register.
                 ;//checks the address to be written,if valid,writes to the address and returns 0,else returns 1
                 ;short int mblimitcheck(int address,int value)
                 ; 0000 02B6 {
                 _mblimitcheck:
                 ; .FSTART _mblimitcheck
                 ; 0000 02B7 int min[8],max[8],i;
                 ; 0000 02B8 short int ok_st=1;
                 ; 0000 02B9 //update min max values according to input
                 ; 0000 02BA for (i=0;i<8;i++)
0006c1 93ba      	ST   -Y,R27
0006c2 93aa      	ST   -Y,R26
0006c3 97a0      	SBIW R28,32
0006c4 940e 26cb 	CALL __SAVELOCR4
                 ;	address -> Y+38
                 ;	value -> Y+36
                 ;	min -> Y+20
                 ;	max -> Y+4
                 ;	i -> R16,R17
                 ;	ok_st -> R18,R19
                +
0006c6 e021     +LDI R18 , LOW ( 1 )
0006c7 e030     +LDI R19 , HIGH ( 1 )
                 	__GETWRN 18,19,1
                +
0006c8 e000     +LDI R16 , LOW ( 0 )
0006c9 e010     +LDI R17 , HIGH ( 0 )
                 	__GETWRN 16,17,0
                 _0x66:
                +
0006ca 3008     +CPI R16 , LOW ( 8 )
0006cb e0e0     +LDI R30 , HIGH ( 8 )
0006cc 071e     +CPC R17 , R30
                 	__CPWRN 16,17,8
0006cd f00c      	BRLT PC+2
0006ce c103      	RJMP _0x67
                 ; 0000 02BB     {
                 ; 0000 02BC     switch (input[i])
0006cf 01f8      	MOVW R30,R16
0006d0 efa8      	LDI  R26,LOW(_input)
0006d1 e0b1      	LDI  R27,HIGH(_input)
0006d2 0fee      	LSL  R30
0006d3 1fff      	ROL  R31
0006d4 0fae      	ADD  R26,R30
0006d5 1fbf      	ADC  R27,R31
0006d6 940e 2677 	CALL __GETW1P
                 ; 0000 02BD         {
                 ; 0000 02BE         case 0: min[i] = -1999  ;
0006d8 9730      	SBIW R30,0
0006d9 f4a9      	BRNE _0x6B
0006da 01f8      	MOVW R30,R16
0006db 01de      	MOVW R26,R28
0006dc 9654      	ADIW R26,20
0006dd 0fee      	LSL  R30
0006de 1fff      	ROL  R31
0006df 0fae      	ADD  R26,R30
0006e0 1fbf      	ADC  R27,R31
0006e1 e3e1      	LDI  R30,LOW(63537)
0006e2 eff8      	LDI  R31,HIGH(63537)
0006e3 93ed      	ST   X+,R30
0006e4 93fc      	ST   X,R31
                 ; 0000 02BF                 max[i] = 7000  ;
0006e5 01f8      	MOVW R30,R16
0006e6 01de      	MOVW R26,R28
0006e7 9614      	ADIW R26,4
0006e8 0fee      	LSL  R30
0006e9 1fff      	ROL  R31
0006ea 0fae      	ADD  R26,R30
0006eb 1fbf      	ADC  R27,R31
0006ec e5e8      	LDI  R30,LOW(7000)
0006ed e1fb      	LDI  R31,HIGH(7000)
0006ee c0de      	RJMP _0x336
                 ; 0000 02C0                 break;
                 ; 0000 02C1         case 1: min[i] =-199  ;
                 _0x6B:
0006ef 30e1      	CPI  R30,LOW(0x1)
0006f0 e0a0      	LDI  R26,HIGH(0x1)
0006f1 07fa      	CPC  R31,R26
0006f2 f4a9      	BRNE _0x6C
0006f3 01f8      	MOVW R30,R16
0006f4 01de      	MOVW R26,R28
0006f5 9654      	ADIW R26,20
0006f6 0fee      	LSL  R30
0006f7 1fff      	ROL  R31
0006f8 0fae      	ADD  R26,R30
0006f9 1fbf      	ADC  R27,R31
0006fa e3e9      	LDI  R30,LOW(65337)
0006fb efff      	LDI  R31,HIGH(65337)
0006fc 93ed      	ST   X+,R30
0006fd 93fc      	ST   X,R31
                 ; 0000 02C2                 max[i] =700  ;
0006fe 01f8      	MOVW R30,R16
0006ff 01de      	MOVW R26,R28
000700 9614      	ADIW R26,4
000701 0fee      	LSL  R30
000702 1fff      	ROL  R31
000703 0fae      	ADD  R26,R30
000704 1fbf      	ADC  R27,R31
000705 ebec      	LDI  R30,LOW(700)
000706 e0f2      	LDI  R31,HIGH(700)
000707 c0c5      	RJMP _0x336
                 ; 0000 02C3                 break;
                 ; 0000 02C4         case 2: min[i] =0  ;
                 _0x6C:
000708 30e2      	CPI  R30,LOW(0x2)
000709 e0a0      	LDI  R26,HIGH(0x2)
00070a 07fa      	CPC  R31,R26
00070b f4a9      	BRNE _0x6D
00070c 01f8      	MOVW R30,R16
00070d 01de      	MOVW R26,R28
00070e 9654      	ADIW R26,20
00070f 0fee      	LSL  R30
000710 1fff      	ROL  R31
000711 0fae      	ADD  R26,R30
000712 1fbf      	ADC  R27,R31
000713 e0e0      	LDI  R30,LOW(0)
000714 e0f0      	LDI  R31,HIGH(0)
000715 93ed      	ST   X+,R30
000716 93fc      	ST   X,R31
                 ; 0000 02C5                 max[i] =700  ;
000717 01f8      	MOVW R30,R16
000718 01de      	MOVW R26,R28
000719 9614      	ADIW R26,4
00071a 0fee      	LSL  R30
00071b 1fff      	ROL  R31
00071c 0fae      	ADD  R26,R30
00071d 1fbf      	ADC  R27,R31
00071e ebec      	LDI  R30,LOW(700)
00071f e0f2      	LDI  R31,HIGH(700)
000720 c0ac      	RJMP _0x336
                 ; 0000 02C6                 break;
                 ; 0000 02C7         case 3: min[i] =0  ;
                 _0x6D:
000721 30e3      	CPI  R30,LOW(0x3)
000722 e0a0      	LDI  R26,HIGH(0x3)
000723 07fa      	CPC  R31,R26
000724 f4a9      	BRNE _0x6E
000725 01f8      	MOVW R30,R16
000726 01de      	MOVW R26,R28
000727 9654      	ADIW R26,20
000728 0fee      	LSL  R30
000729 1fff      	ROL  R31
00072a 0fae      	ADD  R26,R30
00072b 1fbf      	ADC  R27,R31
00072c e0e0      	LDI  R30,LOW(0)
00072d e0f0      	LDI  R31,HIGH(0)
00072e 93ed      	ST   X+,R30
00072f 93fc      	ST   X,R31
                 ; 0000 02C8                 max[i] =1300  ;
000730 01f8      	MOVW R30,R16
000731 01de      	MOVW R26,R28
000732 9614      	ADIW R26,4
000733 0fee      	LSL  R30
000734 1fff      	ROL  R31
000735 0fae      	ADD  R26,R30
000736 1fbf      	ADC  R27,R31
000737 e1e4      	LDI  R30,LOW(1300)
000738 e0f5      	LDI  R31,HIGH(1300)
000739 c093      	RJMP _0x336
                 ; 0000 02C9                 break;
                 ; 0000 02CA         case 4:
                 _0x6E:
00073a 30e4      	CPI  R30,LOW(0x4)
00073b e0a0      	LDI  R26,HIGH(0x4)
00073c 07fa      	CPC  R31,R26
00073d f021      	BREQ _0x70
                 ; 0000 02CB         case 5: min[i] =0  ;
00073e 30e5      	CPI  R30,LOW(0x5)
00073f e0a0      	LDI  R26,HIGH(0x5)
000740 07fa      	CPC  R31,R26
000741 f4a9      	BRNE _0x71
                 _0x70:
000742 01f8      	MOVW R30,R16
000743 01de      	MOVW R26,R28
000744 9654      	ADIW R26,20
000745 0fee      	LSL  R30
000746 1fff      	ROL  R31
000747 0fae      	ADD  R26,R30
000748 1fbf      	ADC  R27,R31
000749 e0e0      	LDI  R30,LOW(0)
00074a e0f0      	LDI  R31,HIGH(0)
00074b 93ed      	ST   X+,R30
00074c 93fc      	ST   X,R31
                 ; 0000 02CC                 max[i] =1700  ;
00074d 01f8      	MOVW R30,R16
00074e 01de      	MOVW R26,R28
00074f 9614      	ADIW R26,4
000750 0fee      	LSL  R30
000751 1fff      	ROL  R31
000752 0fae      	ADD  R26,R30
000753 1fbf      	ADC  R27,R31
000754 eae4      	LDI  R30,LOW(1700)
000755 e0f6      	LDI  R31,HIGH(1700)
000756 c076      	RJMP _0x336
                 ; 0000 02CD                 break;
                 ; 0000 02CE         case 6: min[i] =-200  ;
                 _0x71:
000757 30e6      	CPI  R30,LOW(0x6)
000758 e0a0      	LDI  R26,HIGH(0x6)
000759 07fa      	CPC  R31,R26
00075a f4a9      	BRNE _0x72
00075b 01f8      	MOVW R30,R16
00075c 01de      	MOVW R26,R28
00075d 9654      	ADIW R26,20
00075e 0fee      	LSL  R30
00075f 1fff      	ROL  R31
000760 0fae      	ADD  R26,R30
000761 1fbf      	ADC  R27,R31
000762 e3e8      	LDI  R30,LOW(65336)
000763 efff      	LDI  R31,HIGH(65336)
000764 93ed      	ST   X+,R30
000765 93fc      	ST   X,R31
                 ; 0000 02CF                 max[i] =300  ;
000766 01f8      	MOVW R30,R16
000767 01de      	MOVW R26,R28
000768 9614      	ADIW R26,4
000769 0fee      	LSL  R30
00076a 1fff      	ROL  R31
00076b 0fae      	ADD  R26,R30
00076c 1fbf      	ADC  R27,R31
00076d e2ec      	LDI  R30,LOW(300)
00076e e0f1      	LDI  R31,HIGH(300)
00076f c05d      	RJMP _0x336
                 ; 0000 02D0                 break;
                 ; 0000 02D1         case 7:
                 _0x72:
000770 30e7      	CPI  R30,LOW(0x7)
000771 e0a0      	LDI  R26,HIGH(0x7)
000772 07fa      	CPC  R31,R26
000773 f029      	BREQ _0x74
                 ; 0000 02D2         case 8: min[i] =rlow[i] - (rlow[i]*20/100);
000774 30e8      	CPI  R30,LOW(0x8)
000775 e0a0      	LDI  R26,HIGH(0x8)
000776 07fa      	CPC  R31,R26
000777 f009      	BREQ PC+2
000778 c056      	RJMP _0x6A
                 _0x74:
000779 01f8      	MOVW R30,R16
00077a 01de      	MOVW R26,R28
00077b 9654      	ADIW R26,20
00077c 0fee      	LSL  R30
00077d 1fff      	ROL  R31
00077e 0fea      	ADD  R30,R26
00077f 1ffb      	ADC  R31,R27
000780 93ff      	PUSH R31
000781 93ef      	PUSH R30
000782 01f8      	MOVW R30,R16
000783 eba8      	LDI  R26,LOW(_rlow)
000784 e0b1      	LDI  R27,HIGH(_rlow)
000785 0fee      	LSL  R30
000786 1fff      	ROL  R31
000787 0fae      	ADD  R26,R30
000788 1fbf      	ADC  R27,R31
000789 916d      	LD   R22,X+
00078a 917c      	LD   R23,X
00078b 01f8      	MOVW R30,R16
00078c eba8      	LDI  R26,LOW(_rlow)
00078d e0b1      	LDI  R27,HIGH(_rlow)
00078e 0fee      	LSL  R30
00078f 1fff      	ROL  R31
000790 0fae      	ADD  R26,R30
000791 1fbf      	ADC  R27,R31
000792 940e 2677 	CALL __GETW1P
000794 e1a4      	LDI  R26,LOW(20)
000795 e0b0      	LDI  R27,HIGH(20)
000796 940e 25fc 	CALL __MULW12
000798 01df      	MOVW R26,R30
000799 e6e4      	LDI  R30,LOW(100)
00079a e0f0      	LDI  R31,HIGH(100)
00079b 940e 2619 	CALL __DIVW21
00079d 01df      	MOVW R26,R30
00079e 01fb      	MOVW R30,R22
00079f 1bea      	SUB  R30,R26
0007a0 0bfb      	SBC  R31,R27
0007a1 91af      	POP  R26
0007a2 91bf      	POP  R27
0007a3 93ed      	ST   X+,R30
0007a4 93fc      	ST   X,R31
                 ; 0000 02D3                 max[i] =rhigh[i]+ (rhigh[i]*20/100);
0007a5 01f8      	MOVW R30,R16
0007a6 01de      	MOVW R26,R28
0007a7 9614      	ADIW R26,4
0007a8 0fee      	LSL  R30
0007a9 1fff      	ROL  R31
0007aa 0fea      	ADD  R30,R26
0007ab 1ffb      	ADC  R31,R27
0007ac 93ff      	PUSH R31
0007ad 93ef      	PUSH R30
0007ae 01f8      	MOVW R30,R16
0007af eca8      	LDI  R26,LOW(_rhigh)
0007b0 e0b1      	LDI  R27,HIGH(_rhigh)
0007b1 0fee      	LSL  R30
0007b2 1fff      	ROL  R31
0007b3 0fae      	ADD  R26,R30
0007b4 1fbf      	ADC  R27,R31
0007b5 916d      	LD   R22,X+
0007b6 917c      	LD   R23,X
0007b7 01f8      	MOVW R30,R16
0007b8 eca8      	LDI  R26,LOW(_rhigh)
0007b9 e0b1      	LDI  R27,HIGH(_rhigh)
0007ba 0fee      	LSL  R30
0007bb 1fff      	ROL  R31
0007bc 0fae      	ADD  R26,R30
0007bd 1fbf      	ADC  R27,R31
0007be 940e 2677 	CALL __GETW1P
0007c0 e1a4      	LDI  R26,LOW(20)
0007c1 e0b0      	LDI  R27,HIGH(20)
0007c2 940e 25fc 	CALL __MULW12
0007c4 01df      	MOVW R26,R30
0007c5 e6e4      	LDI  R30,LOW(100)
0007c6 e0f0      	LDI  R31,HIGH(100)
0007c7 940e 2619 	CALL __DIVW21
0007c9 0fe6      	ADD  R30,R22
0007ca 1ff7      	ADC  R31,R23
0007cb 91af      	POP  R26
0007cc 91bf      	POP  R27
                 _0x336:
0007cd 93ed      	ST   X+,R30
0007ce 93fc      	ST   X,R31
                 ; 0000 02D4                 break;
                 ; 0000 02D5         }
                 _0x6A:
                 ; 0000 02D6 
                 ; 0000 02D7     }
                +
0007cf 5f0f     +SUBI R16 , LOW ( - 1 )
0007d0 4f1f     +SBCI R17 , HIGH ( - 1 )
                 	__ADDWRN 16,17,1
0007d1 cef8      	RJMP _0x66
                 _0x67:
                 ; 0000 02D8 
                 ; 0000 02D9 //offset range check
                 ; 0000 02DA if (address <=7)
0007d2 a1ae      	LDD  R26,Y+38
0007d3 a1bf      	LDD  R27,Y+38+1
0007d4 9718      	SBIW R26,8
0007d5 f534      	BRGE _0x76
                 ; 0000 02DB     {
                 ; 0000 02DC     if (value >=-999 && value <= 999)
0007d6 a1ac      	LDD  R26,Y+36
0007d7 a1bd      	LDD  R27,Y+36+1
0007d8 31a9      	CPI  R26,LOW(0xFC19)
0007d9 efec      	LDI  R30,HIGH(0xFC19)
0007da 07be      	CPC  R27,R30
0007db f024      	BRLT _0x78
0007dc 3ea8      	CPI  R26,LOW(0x3E8)
0007dd e0e3      	LDI  R30,HIGH(0x3E8)
0007de 07be      	CPC  R27,R30
0007df f00c      	BRLT _0x79
                 _0x78:
0007e0 c01a      	RJMP _0x77
                 _0x79:
                 ; 0000 02DD         {
                 ; 0000 02DE         ee_os[address] = os[address] = value;
0007e1 a1ee      	LDD  R30,Y+38
0007e2 a1ff      	LDD  R31,Y+38+1
0007e3 e1a0      	LDI  R26,LOW(_ee_os)
0007e4 e0b0      	LDI  R27,HIGH(_ee_os)
0007e5 0fee      	LSL  R30
0007e6 1fff      	ROL  R31
0007e7 0fea      	ADD  R30,R26
0007e8 1ffb      	ADC  R31,R27
0007e9 010f      	MOVW R0,R30
0007ea a1ee      	LDD  R30,Y+38
0007eb a1ff      	LDD  R31,Y+38+1
0007ec e9a8      	LDI  R26,LOW(_os)
0007ed e0b1      	LDI  R27,HIGH(_os)
0007ee 0fee      	LSL  R30
0007ef 1fff      	ROL  R31
0007f0 0fae      	ADD  R26,R30
0007f1 1fbf      	ADC  R27,R31
0007f2 a1ec      	LDD  R30,Y+36
0007f3 a1fd      	LDD  R31,Y+36+1
0007f4 93ed      	ST   X+,R30
0007f5 93fc      	ST   X,R31
0007f6 01d0      	MOVW R26,R0
0007f7 940e 26b0 	CALL __EEPROMWRW
                 ; 0000 02DF         ok_st =0;
                +
0007f9 e020     +LDI R18 , LOW ( 0 )
0007fa e030     +LDI R19 , HIGH ( 0 )
                 	__GETWRN 18,19,0
                 ; 0000 02E0         }
                 ; 0000 02E1     }
                 _0x77:
                 ; 0000 02E2 // skip status check
                 ; 0000 02E3 else if (address>=8 && address <=15)
0007fb c15e      	RJMP _0x7A
                 _0x76:
0007fc a1ae      	LDD  R26,Y+38
0007fd a1bf      	LDD  R27,Y+38+1
0007fe 9718      	SBIW R26,8
0007ff f024      	BRLT _0x7C
000800 a1ae      	LDD  R26,Y+38
000801 a1bf      	LDD  R27,Y+38+1
000802 9750      	SBIW R26,16
000803 f00c      	BRLT _0x7D
                 _0x7C:
000804 c024      	RJMP _0x7B
                 _0x7D:
                 ; 0000 02E4     {
                 ; 0000 02E5     if (value >=0 && value <= 1)
000805 a1ad      	LDD  R26,Y+37
000806 23aa      	TST  R26
000807 f022      	BRMI _0x7F
000808 a1ac      	LDD  R26,Y+36
000809 a1bd      	LDD  R27,Y+36+1
00080a 9712      	SBIW R26,2
00080b f00c      	BRLT _0x80
                 _0x7F:
00080c c01b      	RJMP _0x7E
                 _0x80:
                 ; 0000 02E6         {
                 ; 0000 02E7         ee_skip[address-8] = skip[address-8] = value;
00080d a1ee      	LDD  R30,Y+38
00080e a1ff      	LDD  R31,Y+38+1
00080f 9738      	SBIW R30,8
000810 01bf      	MOVW R22,R30
000811 e2a0      	LDI  R26,LOW(_ee_skip)
000812 e0b0      	LDI  R27,HIGH(_ee_skip)
000813 0fee      	LSL  R30
000814 1fff      	ROL  R31
000815 0fea      	ADD  R30,R26
000816 1ffb      	ADC  R31,R27
000817 010f      	MOVW R0,R30
000818 01fb      	MOVW R30,R22
000819 eaa8      	LDI  R26,LOW(_skip)
00081a e0b1      	LDI  R27,HIGH(_skip)
00081b 0fee      	LSL  R30
00081c 1fff      	ROL  R31
00081d 0fae      	ADD  R26,R30
00081e 1fbf      	ADC  R27,R31
00081f a1ec      	LDD  R30,Y+36
000820 a1fd      	LDD  R31,Y+36+1
000821 93ed      	ST   X+,R30
000822 93fc      	ST   X,R31
000823 01d0      	MOVW R26,R0
000824 940e 26b0 	CALL __EEPROMWRW
                 ; 0000 02E8         ok_st =0;
                +
000826 e020     +LDI R18 , LOW ( 0 )
000827 e030     +LDI R19 , HIGH ( 0 )
                 	__GETWRN 18,19,0
                 ; 0000 02E9         }
                 ; 0000 02EA     }
                 _0x7E:
                 ; 0000 02EB //alarm high
                 ; 0000 02EC else if (address>=16 && address <=23)
000828 c131      	RJMP _0x81
                 _0x7B:
000829 a1ae      	LDD  R26,Y+38
00082a a1bf      	LDD  R27,Y+38+1
00082b 9750      	SBIW R26,16
00082c f024      	BRLT _0x83
00082d a1ae      	LDD  R26,Y+38
00082e a1bf      	LDD  R27,Y+38+1
00082f 9758      	SBIW R26,24
000830 f00c      	BRLT _0x84
                 _0x83:
000831 c03c      	RJMP _0x82
                 _0x84:
                 ; 0000 02ED     {
                 ; 0000 02EE     if (value >=min[address-16] && value <= max[address-16])
000832 a1ee      	LDD  R30,Y+38
000833 a1ff      	LDD  R31,Y+38+1
000834 9770      	SBIW R30,16
000835 010f      	MOVW R0,R30
000836 01de      	MOVW R26,R28
000837 9654      	ADIW R26,20
000838 0fee      	LSL  R30
000839 1fff      	ROL  R31
00083a 0fae      	ADD  R26,R30
00083b 1fbf      	ADC  R27,R31
00083c 940e 2677 	CALL __GETW1P
00083e a1ac      	LDD  R26,Y+36
00083f a1bd      	LDD  R27,Y+36+1
000840 17ae      	CP   R26,R30
000841 07bf      	CPC  R27,R31
000842 f074      	BRLT _0x86
000843 01f0      	MOVW R30,R0
000844 01de      	MOVW R26,R28
000845 9614      	ADIW R26,4
000846 0fee      	LSL  R30
000847 1fff      	ROL  R31
000848 0fae      	ADD  R26,R30
000849 1fbf      	ADC  R27,R31
00084a 940e 2677 	CALL __GETW1P
00084c a1ac      	LDD  R26,Y+36
00084d a1bd      	LDD  R27,Y+36+1
00084e 17ea      	CP   R30,R26
00084f 07fb      	CPC  R31,R27
000850 f40c      	BRGE _0x87
                 _0x86:
000851 c01b      	RJMP _0x85
                 _0x87:
                 ; 0000 02EF         {
                 ; 0000 02F0         ee_ahigh[address-16] = ahigh[address-16] = value;
000852 a1ee      	LDD  R30,Y+38
000853 a1ff      	LDD  R31,Y+38+1
000854 9770      	SBIW R30,16
000855 01bf      	MOVW R22,R30
000856 e6a0      	LDI  R26,LOW(_ee_ahigh)
000857 e0b0      	LDI  R27,HIGH(_ee_ahigh)
000858 0fee      	LSL  R30
000859 1fff      	ROL  R31
00085a 0fea      	ADD  R30,R26
00085b 1ffb      	ADC  R31,R27
00085c 010f      	MOVW R0,R30
00085d 01fb      	MOVW R30,R22
00085e eea8      	LDI  R26,LOW(_ahigh)
00085f e0b1      	LDI  R27,HIGH(_ahigh)
000860 0fee      	LSL  R30
000861 1fff      	ROL  R31
000862 0fae      	ADD  R26,R30
000863 1fbf      	ADC  R27,R31
000864 a1ec      	LDD  R30,Y+36
000865 a1fd      	LDD  R31,Y+36+1
000866 93ed      	ST   X+,R30
000867 93fc      	ST   X,R31
000868 01d0      	MOVW R26,R0
000869 940e 26b0 	CALL __EEPROMWRW
                 ; 0000 02F1         ok_st =0;
                +
00086b e020     +LDI R18 , LOW ( 0 )
00086c e030     +LDI R19 , HIGH ( 0 )
                 	__GETWRN 18,19,0
                 ; 0000 02F2         }
                 ; 0000 02F3     }
                 _0x85:
                 ; 0000 02F4 //alarm low
                 ; 0000 02F5 else if (address>=24 && address <=31)
00086d c0ec      	RJMP _0x88
                 _0x82:
00086e a1ae      	LDD  R26,Y+38
00086f a1bf      	LDD  R27,Y+38+1
000870 9758      	SBIW R26,24
000871 f024      	BRLT _0x8A
000872 a1ae      	LDD  R26,Y+38
000873 a1bf      	LDD  R27,Y+38+1
000874 9790      	SBIW R26,32
000875 f00c      	BRLT _0x8B
                 _0x8A:
000876 c03c      	RJMP _0x89
                 _0x8B:
                 ; 0000 02F6     {
                 ; 0000 02F7     if (value >=min[address-24] && value <= max[address-24])
000877 a1ee      	LDD  R30,Y+38
000878 a1ff      	LDD  R31,Y+38+1
000879 9778      	SBIW R30,24
00087a 010f      	MOVW R0,R30
00087b 01de      	MOVW R26,R28
00087c 9654      	ADIW R26,20
00087d 0fee      	LSL  R30
00087e 1fff      	ROL  R31
00087f 0fae      	ADD  R26,R30
000880 1fbf      	ADC  R27,R31
000881 940e 2677 	CALL __GETW1P
000883 a1ac      	LDD  R26,Y+36
000884 a1bd      	LDD  R27,Y+36+1
000885 17ae      	CP   R26,R30
000886 07bf      	CPC  R27,R31
000887 f074      	BRLT _0x8D
000888 01f0      	MOVW R30,R0
000889 01de      	MOVW R26,R28
00088a 9614      	ADIW R26,4
00088b 0fee      	LSL  R30
00088c 1fff      	ROL  R31
00088d 0fae      	ADD  R26,R30
00088e 1fbf      	ADC  R27,R31
00088f 940e 2677 	CALL __GETW1P
000891 a1ac      	LDD  R26,Y+36
000892 a1bd      	LDD  R27,Y+36+1
000893 17ea      	CP   R30,R26
000894 07fb      	CPC  R31,R27
000895 f40c      	BRGE _0x8E
                 _0x8D:
000896 c01b      	RJMP _0x8C
                 _0x8E:
                 ; 0000 02F8         {
                 ; 0000 02F9         ee_alow[address-24] = alow[address-24] = value;
000897 a1ee      	LDD  R30,Y+38
000898 a1ff      	LDD  R31,Y+38+1
000899 9778      	SBIW R30,24
00089a 01bf      	MOVW R22,R30
00089b e5a0      	LDI  R26,LOW(_ee_alow)
00089c e0b0      	LDI  R27,HIGH(_ee_alow)
00089d 0fee      	LSL  R30
00089e 1fff      	ROL  R31
00089f 0fea      	ADD  R30,R26
0008a0 1ffb      	ADC  R31,R27
0008a1 010f      	MOVW R0,R30
0008a2 01fb      	MOVW R30,R22
0008a3 eda8      	LDI  R26,LOW(_alow)
0008a4 e0b1      	LDI  R27,HIGH(_alow)
0008a5 0fee      	LSL  R30
0008a6 1fff      	ROL  R31
0008a7 0fae      	ADD  R26,R30
0008a8 1fbf      	ADC  R27,R31
0008a9 a1ec      	LDD  R30,Y+36
0008aa a1fd      	LDD  R31,Y+36+1
0008ab 93ed      	ST   X+,R30
0008ac 93fc      	ST   X,R31
0008ad 01d0      	MOVW R26,R0
0008ae 940e 26b0 	CALL __EEPROMWRW
                 ; 0000 02FA         ok_st =0;
                +
0008b0 e020     +LDI R18 , LOW ( 0 )
0008b1 e030     +LDI R19 , HIGH ( 0 )
                 	__GETWRN 18,19,0
                 ; 0000 02FB         }
                 ; 0000 02FC     }
                 _0x8C:
                 ; 0000 02FD //range high
                 ; 0000 02FE else if (address>=32 && address <=39)
0008b2 c0a7      	RJMP _0x8F
                 _0x89:
0008b3 a1ae      	LDD  R26,Y+38
0008b4 a1bf      	LDD  R27,Y+38+1
0008b5 9790      	SBIW R26,32
0008b6 f024      	BRLT _0x91
0008b7 a1ae      	LDD  R26,Y+38
0008b8 a1bf      	LDD  R27,Y+38+1
0008b9 9798      	SBIW R26,40
0008ba f00c      	BRLT _0x92
                 _0x91:
0008bb c027      	RJMP _0x90
                 _0x92:
                 ; 0000 02FF     {
                 ; 0000 0300     if (value >=-1999 && value <= 9999)
0008bc a1ac      	LDD  R26,Y+36
0008bd a1bd      	LDD  R27,Y+36+1
0008be 33a1      	CPI  R26,LOW(0xF831)
0008bf efe8      	LDI  R30,HIGH(0xF831)
0008c0 07be      	CPC  R27,R30
0008c1 f024      	BRLT _0x94
0008c2 31a0      	CPI  R26,LOW(0x2710)
0008c3 e2e7      	LDI  R30,HIGH(0x2710)
0008c4 07be      	CPC  R27,R30
0008c5 f00c      	BRLT _0x95
                 _0x94:
0008c6 c01b      	RJMP _0x93
                 _0x95:
                 ; 0000 0301         {
                 ; 0000 0302         ee_rhigh[address-32] = rhigh[address-32] = value;
0008c7 a1ee      	LDD  R30,Y+38
0008c8 a1ff      	LDD  R31,Y+38+1
0008c9 97b0      	SBIW R30,32
0008ca 01bf      	MOVW R22,R30
0008cb e4a0      	LDI  R26,LOW(_ee_rhigh)
0008cc e0b0      	LDI  R27,HIGH(_ee_rhigh)
0008cd 0fee      	LSL  R30
0008ce 1fff      	ROL  R31
0008cf 0fea      	ADD  R30,R26
0008d0 1ffb      	ADC  R31,R27
0008d1 010f      	MOVW R0,R30
0008d2 01fb      	MOVW R30,R22
0008d3 eca8      	LDI  R26,LOW(_rhigh)
0008d4 e0b1      	LDI  R27,HIGH(_rhigh)
0008d5 0fee      	LSL  R30
0008d6 1fff      	ROL  R31
0008d7 0fae      	ADD  R26,R30
0008d8 1fbf      	ADC  R27,R31
0008d9 a1ec      	LDD  R30,Y+36
0008da a1fd      	LDD  R31,Y+36+1
0008db 93ed      	ST   X+,R30
0008dc 93fc      	ST   X,R31
0008dd 01d0      	MOVW R26,R0
0008de 940e 26b0 	CALL __EEPROMWRW
                 ; 0000 0303         ok_st =0;
                +
0008e0 e020     +LDI R18 , LOW ( 0 )
0008e1 e030     +LDI R19 , HIGH ( 0 )
                 	__GETWRN 18,19,0
                 ; 0000 0304         }
                 ; 0000 0305     }
                 _0x93:
                 ; 0000 0306 //range low
                 ; 0000 0307 else if (address>=40 && address <=47)
0008e2 c077      	RJMP _0x96
                 _0x90:
0008e3 a1ae      	LDD  R26,Y+38
0008e4 a1bf      	LDD  R27,Y+38+1
0008e5 9798      	SBIW R26,40
0008e6 f024      	BRLT _0x98
0008e7 a1ae      	LDD  R26,Y+38
0008e8 a1bf      	LDD  R27,Y+38+1
0008e9 97d0      	SBIW R26,48
0008ea f00c      	BRLT _0x99
                 _0x98:
0008eb c027      	RJMP _0x97
                 _0x99:
                 ; 0000 0308     {
                 ; 0000 0309     if (value >=-1999 && value <= 9999)
0008ec a1ac      	LDD  R26,Y+36
0008ed a1bd      	LDD  R27,Y+36+1
0008ee 33a1      	CPI  R26,LOW(0xF831)
0008ef efe8      	LDI  R30,HIGH(0xF831)
0008f0 07be      	CPC  R27,R30
0008f1 f024      	BRLT _0x9B
0008f2 31a0      	CPI  R26,LOW(0x2710)
0008f3 e2e7      	LDI  R30,HIGH(0x2710)
0008f4 07be      	CPC  R27,R30
0008f5 f00c      	BRLT _0x9C
                 _0x9B:
0008f6 c01b      	RJMP _0x9A
                 _0x9C:
                 ; 0000 030A         {
                 ; 0000 030B         ee_rlow[address-40] = rlow[address-40] = value;
0008f7 a1ee      	LDD  R30,Y+38
0008f8 a1ff      	LDD  R31,Y+38+1
0008f9 97b8      	SBIW R30,40
0008fa 01bf      	MOVW R22,R30
0008fb e3a0      	LDI  R26,LOW(_ee_rlow)
0008fc e0b0      	LDI  R27,HIGH(_ee_rlow)
0008fd 0fee      	LSL  R30
0008fe 1fff      	ROL  R31
0008ff 0fea      	ADD  R30,R26
000900 1ffb      	ADC  R31,R27
000901 010f      	MOVW R0,R30
000902 01fb      	MOVW R30,R22
000903 eba8      	LDI  R26,LOW(_rlow)
000904 e0b1      	LDI  R27,HIGH(_rlow)
000905 0fee      	LSL  R30
000906 1fff      	ROL  R31
000907 0fae      	ADD  R26,R30
000908 1fbf      	ADC  R27,R31
000909 a1ec      	LDD  R30,Y+36
00090a a1fd      	LDD  R31,Y+36+1
00090b 93ed      	ST   X+,R30
00090c 93fc      	ST   X,R31
00090d 01d0      	MOVW R26,R0
00090e 940e 26b0 	CALL __EEPROMWRW
                 ; 0000 030C         ok_st =0;
                +
000910 e020     +LDI R18 , LOW ( 0 )
000911 e030     +LDI R19 , HIGH ( 0 )
                 	__GETWRN 18,19,0
                 ; 0000 030D         }
                 ; 0000 030E     }
                 _0x9A:
                 ; 0000 030F //decimal point
                 ; 0000 0310 else if (address>=48 && address <=55)
000912 c047      	RJMP _0x9D
                 _0x97:
000913 a1ae      	LDD  R26,Y+38
000914 a1bf      	LDD  R27,Y+38+1
000915 97d0      	SBIW R26,48
000916 f024      	BRLT _0x9F
000917 a1ae      	LDD  R26,Y+38
000918 a1bf      	LDD  R27,Y+38+1
000919 97d8      	SBIW R26,56
00091a f00c      	BRLT _0xA0
                 _0x9F:
00091b c024      	RJMP _0x9E
                 _0xA0:
                 ; 0000 0311     {
                 ; 0000 0312     if (value >=0 && value <= 3)
00091c a1ad      	LDD  R26,Y+37
00091d 23aa      	TST  R26
00091e f022      	BRMI _0xA2
00091f a1ac      	LDD  R26,Y+36
000920 a1bd      	LDD  R27,Y+36+1
000921 9714      	SBIW R26,4
000922 f00c      	BRLT _0xA3
                 _0xA2:
000923 c01b      	RJMP _0xA1
                 _0xA3:
                 ; 0000 0313         {
                 ; 0000 0314         ee_dp[address-48] = dp[address-48] = value;
000924 a1ee      	LDD  R30,Y+38
000925 a1ff      	LDD  R31,Y+38+1
000926 97f0      	SBIW R30,48
000927 01bf      	MOVW R22,R30
000928 e8a0      	LDI  R26,LOW(_ee_dp)
000929 e0b0      	LDI  R27,HIGH(_ee_dp)
00092a 0fee      	LSL  R30
00092b 1fff      	ROL  R31
00092c 0fea      	ADD  R30,R26
00092d 1ffb      	ADC  R31,R27
00092e 010f      	MOVW R0,R30
00092f 01fb      	MOVW R30,R22
000930 e0a8      	LDI  R26,LOW(_dp)
000931 e0b2      	LDI  R27,HIGH(_dp)
000932 0fee      	LSL  R30
000933 1fff      	ROL  R31
000934 0fae      	ADD  R26,R30
000935 1fbf      	ADC  R27,R31
000936 a1ec      	LDD  R30,Y+36
000937 a1fd      	LDD  R31,Y+36+1
000938 93ed      	ST   X+,R30
000939 93fc      	ST   X,R31
00093a 01d0      	MOVW R26,R0
00093b 940e 26b0 	CALL __EEPROMWRW
                 ; 0000 0315         ok_st =0;
                +
00093d e020     +LDI R18 , LOW ( 0 )
00093e e030     +LDI R19 , HIGH ( 0 )
                 	__GETWRN 18,19,0
                 ; 0000 0316         }
                 ; 0000 0317     }
                 _0xA1:
                 ; 0000 0318 //scan time
                 ; 0000 0319 else if (address == 56)
00093f c01a      	RJMP _0xA4
                 _0x9E:
000940 a1ae      	LDD  R26,Y+38
000941 a1bf      	LDD  R27,Y+38+1
000942 97d8      	SBIW R26,56
000943 f4b1      	BRNE _0xA5
                 ; 0000 031A     {
                 ; 0000 031B     if (value >=0 && value <= 99)
000944 a1ad      	LDD  R26,Y+37
000945 23aa      	TST  R26
000946 f032      	BRMI _0xA7
000947 a1ac      	LDD  R26,Y+36
000948 a1bd      	LDD  R27,Y+36+1
000949 36a4      	CPI  R26,LOW(0x64)
00094a e0e0      	LDI  R30,HIGH(0x64)
00094b 07be      	CPC  R27,R30
00094c f00c      	BRLT _0xA8
                 _0xA7:
00094d c00c      	RJMP _0xA6
                 _0xA8:
                 ; 0000 031C         {
                 ; 0000 031D         ee_gen[0] = gen[0] = value;
00094e a1ec      	LDD  R30,Y+36
00094f a1fd      	LDD  R31,Y+36+1
000950 93e0 0188 	STS  _gen,R30
000952 93f0 0189 	STS  _gen+1,R31
000954 e0a0      	LDI  R26,LOW(_ee_gen)
000955 e0b0      	LDI  R27,HIGH(_ee_gen)
000956 940e 26b0 	CALL __EEPROMWRW
                 ; 0000 031E         ok_st =0;
                +
000958 e020     +LDI R18 , LOW ( 0 )
000959 e030     +LDI R19 , HIGH ( 0 )
                 	__GETWRN 18,19,0
                 ; 0000 031F         }
                 ; 0000 0320     }
                 _0xA6:
                 ; 0000 0321 return (ok_st);
                 _0xA5:
                 _0xA4:
                 _0x9D:
                 _0x96:
                 _0x8F:
                 _0x88:
                 _0x81:
                 _0x7A:
00095a 01f9      	MOVW R30,R18
00095b 940e 26d2 	CALL __LOADLOCR4
00095d 96a8      	ADIW R28,40
00095e 9508      	RET
                 ; 0000 0322 }
                 ; .FEND
                 ;
                 ;
                 ;void check_mbreceived()
                 ; 0000 0326 {
                 _check_mbreceived:
                 ; .FSTART _check_mbreceived
                 ; 0000 0327 unsigned int mbaddress;
                 ; 0000 0328 int mbamount;
                 ; 0000 0329 unsigned char mbtransmit_data[40];        //transmit buffer max. 32 nytes or 16 registers
                 ; 0000 032A short int error_code =0;
                 ; 0000 032B unsigned int i,j,k;
                 ; 0000 032C //mb_dir =0;  //set 485 to transmit data
                 ; 0000 032D //check function code
                 ; 0000 032E //printf(" test sending");
                 ; 0000 032F switch (mbreceived_data[1])
00095f 97ae      	SBIW R28,46
000960 940e 26c9 	CALL __SAVELOCR6
                 ;	mbaddress -> R16,R17
                 ;	mbamount -> R18,R19
                 ;	mbtransmit_data -> Y+12
                 ;	error_code -> R20,R21
                 ;	i -> Y+10
                 ;	j -> Y+8
                 ;	k -> Y+6
                +
000962 e040     +LDI R20 , LOW ( 0 )
000963 e050     +LDI R21 , HIGH ( 0 )
                 	__GETWRN 20,21,0
                +
000964 91e0 0250+LDS R30 , _mbreceived_data + ( 1 )
                 	__GETB1MN _mbreceived_data,1
000966 e0f0      	LDI  R31,0
                 ; 0000 0330             {
                 ; 0000 0331             case 0x03:
000967 30e3      	CPI  R30,LOW(0x3)
000968 e0a0      	LDI  R26,HIGH(0x3)
000969 07fa      	CPC  R31,R26
00096a f009      	BREQ PC+2
00096b c0c8      	RJMP _0xAC
                 ; 0000 0332  //                mbaddress = (mbreceived_data[2]*256) + mbreceived_data[3];      //start address;
                 ; 0000 0333                  mbaddress = mbreceived_data[3];      //start address;
                +
00096c 9100 0252+LDS R16 , _mbreceived_data + ( 3 )
                 	__GETBRMN 16,_mbreceived_data,3
00096e 2711      	CLR  R17
                 ; 0000 0334                  if (mbaddress+1 >=58)
00096f 01d8      	MOVW R26,R16
000970 9611      	ADIW R26,1
000971 97da      	SBIW R26,58
000972 f018      	BRLO _0xAD
                 ; 0000 0335                     {
                 ; 0000 0336                     error_code = mbillegaldataaddress;
                +
000973 e042     +LDI R20 , LOW ( 2 )
000974 e050     +LDI R21 , HIGH ( 2 )
                 	__GETWRN 20,21,2
                 ; 0000 0337                     break;
000975 c21d      	RJMP _0xAB
                 ; 0000 0338                     }
                 ; 0000 0339 //                 mbamount = (mbreceived_data[4] *256) +mbreceived_data[5];      //requested amount
                 ; 0000 033A                  mbamount = mbreceived_data[5];      //requested amount
                 _0xAD:
                +
000976 9120 0254+LDS R18 , _mbreceived_data + ( 5 )
                 	__GETBRMN 18,_mbreceived_data,5
000978 2733      	CLR  R19
                 ; 0000 033B                  if ((mbaddress+mbamount) > 58 || mbamount >16)
000979 01d9      	MOVW R26,R18
00097a 0fa0      	ADD  R26,R16
00097b 1fb1      	ADC  R27,R17
00097c 97db      	SBIW R26,59
00097d f420      	BRSH _0xAF
                +
00097e 3121     +CPI R18 , LOW ( 17 )
00097f e0e0     +LDI R30 , HIGH ( 17 )
000980 073e     +CPC R19 , R30
                 	__CPWRN 18,19,17
000981 f01c      	BRLT _0xAE
                 _0xAF:
                 ; 0000 033C                     {
                 ; 0000 033D                     error_code = mbillegaldatavalue;         //requested data overflow
                +
000982 e043     +LDI R20 , LOW ( 3 )
000983 e050     +LDI R21 , HIGH ( 3 )
                 	__GETWRN 20,21,3
                 ; 0000 033E                     break;
000984 c20e      	RJMP _0xAB
                 ; 0000 033F                     }
                 ; 0000 0340                     i = CRC16(rx_buffer,6);
                 _0xAE:
000985 e3e8      	LDI  R30,LOW(_rx_buffer)
000986 e0f2      	LDI  R31,HIGH(_rx_buffer)
000987 93fa      	ST   -Y,R31
000988 93ea      	ST   -Y,R30
000989 e0a6      	LDI  R26,LOW(6)
00098a e0b0      	LDI  R27,0
00098b db2f      	RCALL _CRC16
00098c 87ea      	STD  Y+10,R30
00098d 87fb      	STD  Y+10+1,R31
                 ; 0000 0341 
                 ; 0000 0342                     if((rx_buffer[6] != i%256) || (rx_buffer[7] != i/256)  )
                +
00098e 91a0 023e+LDS R26 , _rx_buffer + ( 6 )
                 	__GETB2MN _rx_buffer,6
000990 70f0      	ANDI R31,HIGH(0xFF)
000991 e0b0      	LDI  R27,0
000992 17ea      	CP   R30,R26
000993 07fb      	CPC  R31,R27
000994 f441      	BRNE _0xB2
                +
000995 91a0 023f+LDS R26 , _rx_buffer + ( 7 )
                 	__GETB2MN _rx_buffer,7
000997 85eb      	LDD  R30,Y+11
000998 70f0      	ANDI R31,HIGH(0x0)
000999 e0b0      	LDI  R27,0
00099a 17ea      	CP   R30,R26
00099b 07fb      	CPC  R31,R27
00099c f019      	BREQ _0xB1
                 _0xB2:
                 ; 0000 0343                     {
                 ; 0000 0344                     error_code = mbillegaldatavalue;      //CRC not matching
                +
00099d e043     +LDI R20 , LOW ( 3 )
00099e e050     +LDI R21 , HIGH ( 3 )
                 	__GETWRN 20,21,3
                 ; 0000 0345                     break;
00099f c1f3      	RJMP _0xAB
                 ; 0000 0346                     }
                 ; 0000 0347                   //valid request so form mb frame accordingly
                 ; 0000 0348                   error_code =0;       //
                 _0xB1:
                +
0009a0 e040     +LDI R20 , LOW ( 0 )
0009a1 e050     +LDI R21 , HIGH ( 0 )
                 	__GETWRN 20,21,0
                 ; 0000 0349                     mb_dir =1;      //transmit
0009a2 9a92      	SBI  0x12,2
                 ; 0000 034A //                  mbamount =8;                  //test
                 ; 0000 034B                   mbtransmit_data[0] = mbreceived_data[0];      //slave id
0009a3 91e0 024f 	LDS  R30,_mbreceived_data
0009a5 87ec      	STD  Y+12,R30
                 ; 0000 034C                   mbtransmit_data[1] = mbreceived_data[1];       //function code
                +
0009a6 91e0 0250+LDS R30 , _mbreceived_data + ( 1 )
                 	__GETB1MN _mbreceived_data,1
0009a8 87ed      	STD  Y+13,R30
                 ; 0000 034D                   mbtransmit_data[2] = (char)mbamount *2;             //SIZE OF DATA IN BYTES
0009a9 2fe2      	MOV  R30,R18
0009aa 0fee      	LSL  R30
0009ab 87ee      	STD  Y+14,R30
                 ; 0000 034E                     j=3;
0009ac e0e3      	LDI  R30,LOW(3)
0009ad e0f0      	LDI  R31,HIGH(3)
0009ae 87e8      	STD  Y+8,R30
0009af 87f9      	STD  Y+8+1,R31
                 ; 0000 034F 
                 ; 0000 0350 //                    mb_dir =0;  //set to transmit
                 ; 0000 0351                     delay_ms(2);
0009b0 e0a2      	LDI  R26,LOW(2)
0009b1 e0b0      	LDI  R27,0
0009b2 940e 2427 	CALL _delay_ms
                 ; 0000 0352                     for (i=0;i<mbamount;i++)               //transfer data
0009b4 e0e0      	LDI  R30,LOW(0)
0009b5 87ea      	STD  Y+10,R30
0009b6 87eb      	STD  Y+10+1,R30
                 _0xB7:
0009b7 85aa      	LDD  R26,Y+10
0009b8 85bb      	LDD  R27,Y+10+1
0009b9 17a2      	CP   R26,R18
0009ba 07b3      	CPC  R27,R19
0009bb f5c8      	BRSH _0xB8
                 ; 0000 0353                         {
                 ; 0000 0354 //                        mbtransmit_data[j] = (char)(mb_data[mbaddress+i]/256);
                 ; 0000 0355                          mbtransmit_data[j] = (short int)((mb_data[mbaddress+i]>>8)& 0X00ff);
0009bc 85e8      	LDD  R30,Y+8
0009bd 85f9      	LDD  R31,Y+8+1
0009be 01de      	MOVW R26,R28
0009bf 961c      	ADIW R26,12
0009c0 0fea      	ADD  R30,R26
0009c1 1ffb      	ADC  R31,R27
0009c2 010f      	MOVW R0,R30
0009c3 85ea      	LDD  R30,Y+10
0009c4 85fb      	LDD  R31,Y+10+1
0009c5 0fe0      	ADD  R30,R16
0009c6 1ff1      	ADC  R31,R17
0009c7 e4a5      	LDI  R26,LOW(_mb_data)
0009c8 e0b7      	LDI  R27,HIGH(_mb_data)
0009c9 0fee      	LSL  R30
0009ca 1fff      	ROL  R31
0009cb 0fae      	ADD  R26,R30
0009cc 1fbf      	ADC  R27,R31
0009cd 940e 2677 	CALL __GETW1P
0009cf 940e 25c5 	CALL __ASRW8
0009d1 01d0      	MOVW R26,R0
0009d2 93ec      	ST   X,R30
                 ; 0000 0356 
                 ; 0000 0357                         j++;
0009d3 85e8      	LDD  R30,Y+8
0009d4 85f9      	LDD  R31,Y+8+1
0009d5 9631      	ADIW R30,1
0009d6 87e8      	STD  Y+8,R30
0009d7 87f9      	STD  Y+8+1,R31
                 ; 0000 0358 //                        mbtransmit_data[j] = (char)(mb_data[mbaddress+i]%256);
                 ; 0000 0359                          mbtransmit_data[j] = (short int)(mb_data[mbaddress+i]& 0X00ff);
0009d8 01de      	MOVW R26,R28
0009d9 961c      	ADIW R26,12
0009da 0fea      	ADD  R30,R26
0009db 1ffb      	ADC  R31,R27
0009dc 010f      	MOVW R0,R30
0009dd 85ea      	LDD  R30,Y+10
0009de 85fb      	LDD  R31,Y+10+1
0009df 0fe0      	ADD  R30,R16
0009e0 1ff1      	ADC  R31,R17
0009e1 e4a5      	LDI  R26,LOW(_mb_data)
0009e2 e0b7      	LDI  R27,HIGH(_mb_data)
0009e3 0fee      	LSL  R30
0009e4 1fff      	ROL  R31
0009e5 0fae      	ADD  R26,R30
0009e6 1fbf      	ADC  R27,R31
0009e7 91ec      	LD   R30,X
0009e8 01d0      	MOVW R26,R0
0009e9 93ec      	ST   X,R30
                 ; 0000 035A 
                 ; 0000 035B                         j++;
0009ea 85e8      	LDD  R30,Y+8
0009eb 85f9      	LDD  R31,Y+8+1
0009ec 9631      	ADIW R30,1
0009ed 87e8      	STD  Y+8,R30
0009ee 87f9      	STD  Y+8+1,R31
                 ; 0000 035C                         }
0009ef 85ea      	LDD  R30,Y+10
0009f0 85fb      	LDD  R31,Y+10+1
0009f1 9631      	ADIW R30,1
0009f2 87ea      	STD  Y+10,R30
0009f3 87fb      	STD  Y+10+1,R31
0009f4 cfc2      	RJMP _0xB7
                 _0xB8:
                 ; 0000 035D                     i= CRC16(mbtransmit_data,(mbamount*2)+3);
0009f5 01fe      	MOVW R30,R28
0009f6 963c      	ADIW R30,12
0009f7 93fa      	ST   -Y,R31
0009f8 93ea      	ST   -Y,R30
0009f9 01f9      	MOVW R30,R18
0009fa 0fee      	LSL  R30
0009fb 1fff      	ROL  R31
0009fc 9633      	ADIW R30,3
0009fd 01df      	MOVW R26,R30
0009fe dabc      	RCALL _CRC16
0009ff 87ea      	STD  Y+10,R30
000a00 87fb      	STD  Y+10+1,R31
                 ; 0000 035E                     mbtransmit_data[j] = i%256;
000a01 85e8      	LDD  R30,Y+8
000a02 85f9      	LDD  R31,Y+8+1
000a03 01de      	MOVW R26,R28
000a04 961c      	ADIW R26,12
000a05 0fae      	ADD  R26,R30
000a06 1fbf      	ADC  R27,R31
000a07 85ea      	LDD  R30,Y+10
000a08 93ec      	ST   X,R30
                 ; 0000 035F                     mbtransmit_data[j+1]=i/256;
000a09 85e8      	LDD  R30,Y+8
000a0a 85f9      	LDD  R31,Y+8+1
000a0b 9631      	ADIW R30,1
000a0c 01de      	MOVW R26,R28
000a0d 961c      	ADIW R26,12
000a0e 0fae      	ADD  R26,R30
000a0f 1fbf      	ADC  R27,R31
000a10 85eb      	LDD  R30,Y+11
000a11 93ec      	ST   X,R30
                 ; 0000 0360                     #asm("cli")
000a12 94f8      	cli
                 ; 0000 0361 
                 ; 0000 0362 //                    mb_dir =0;//set to transmit data
                 ; 0000 0363                     for (i=0;i<mbtransmit_data[2]+4+1;i++)
000a13 e0e0      	LDI  R30,LOW(0)
000a14 87ea      	STD  Y+10,R30
000a15 87eb      	STD  Y+10+1,R30
                 _0xBA:
000a16 85ee      	LDD  R30,Y+14
000a17 e0f0      	LDI  R31,0
000a18 9635      	ADIW R30,5
000a19 85aa      	LDD  R26,Y+10
000a1a 85bb      	LDD  R27,Y+10+1
000a1b 17ae      	CP   R26,R30
000a1c 07bf      	CPC  R27,R31
000a1d f470      	BRSH _0xBB
                 ; 0000 0364                         {
                 ; 0000 0365                         putchar(mbtransmit_data[i]);
000a1e 85ea      	LDD  R30,Y+10
000a1f 85fb      	LDD  R31,Y+10+1
000a20 01de      	MOVW R26,R28
000a21 961c      	ADIW R26,12
000a22 0fae      	ADD  R26,R30
000a23 1fbf      	ADC  R27,R31
000a24 91ac      	LD   R26,X
000a25 da6e      	RCALL _putchar
                 ; 0000 0366                         }
000a26 85ea      	LDD  R30,Y+10
000a27 85fb      	LDD  R31,Y+10+1
000a28 9631      	ADIW R30,1
000a29 87ea      	STD  Y+10,R30
000a2a 87fb      	STD  Y+10+1,R31
000a2b cfea      	RJMP _0xBA
                 _0xBB:
                 ; 0000 0367 
                 ; 0000 0368 //                     mbreset();
                 ; 0000 0369                     #asm("sei")
000a2c 9478      	sei
                 ; 0000 036A                     delay_ms(50);      //wait till all data transmitted need time to transmit max 36 bytes @9600
000a2d e3a2      	LDI  R26,LOW(50)
000a2e e0b0      	LDI  R27,0
000a2f 940e 2427 	CALL _delay_ms
                 ; 0000 036B                     mb_dir =0;   //recieve
000a31 9892      	CBI  0x12,2
                 ; 0000 036C                     mbreset();
000a32 daaf      	RCALL _mbreset
                 ; 0000 036D                     break;
000a33 c15f      	RJMP _0xAB
                 ; 0000 036E             case 0x04:     //read input registers (30xxx)
                 _0xAC:
000a34 30e4      	CPI  R30,LOW(0x4)
000a35 e0a0      	LDI  R26,HIGH(0x4)
000a36 07fa      	CPC  R31,R26
000a37 f009      	BREQ PC+2
000a38 c0c8      	RJMP _0xBE
                 ; 0000 036F                      //                mbaddress = (mbreceived_data[2]*256) + mbreceived_data[3];      //start address;
                 ; 0000 0370                  mbaddress = mbreceived_data[3];      //start address; 30001
                +
000a39 9100 0252+LDS R16 , _mbreceived_data + ( 3 )
                 	__GETBRMN 16,_mbreceived_data,3
000a3b 2711      	CLR  R17
                 ; 0000 0371                  if (mbaddress+1 >=21)
000a3c 01d8      	MOVW R26,R16
000a3d 9611      	ADIW R26,1
000a3e 9755      	SBIW R26,21
000a3f f018      	BRLO _0xBF
                 ; 0000 0372                     {
                 ; 0000 0373                     error_code = mbillegaldataaddress;
                +
000a40 e042     +LDI R20 , LOW ( 2 )
000a41 e050     +LDI R21 , HIGH ( 2 )
                 	__GETWRN 20,21,2
                 ; 0000 0374                     break;
000a42 c150      	RJMP _0xAB
                 ; 0000 0375                     }
                 ; 0000 0376 //                 mbamount = (mbreceived_data[4] *256) +mbreceived_data[5];      //requested amount
                 ; 0000 0377                  mbamount = mbreceived_data[5];      //requested amount
                 _0xBF:
                +
000a43 9120 0254+LDS R18 , _mbreceived_data + ( 5 )
                 	__GETBRMN 18,_mbreceived_data,5
000a45 2733      	CLR  R19
                 ; 0000 0378                  if ((mbaddress+mbamount) > 20 || mbamount >16)
000a46 01d9      	MOVW R26,R18
000a47 0fa0      	ADD  R26,R16
000a48 1fb1      	ADC  R27,R17
000a49 9755      	SBIW R26,21
000a4a f420      	BRSH _0xC1
                +
000a4b 3121     +CPI R18 , LOW ( 17 )
000a4c e0e0     +LDI R30 , HIGH ( 17 )
000a4d 073e     +CPC R19 , R30
                 	__CPWRN 18,19,17
000a4e f01c      	BRLT _0xC0
                 _0xC1:
                 ; 0000 0379                     {
                 ; 0000 037A                     error_code = mbillegaldatavalue;         //requested data overflow
                +
000a4f e043     +LDI R20 , LOW ( 3 )
000a50 e050     +LDI R21 , HIGH ( 3 )
                 	__GETWRN 20,21,3
                 ; 0000 037B                     break;
000a51 c141      	RJMP _0xAB
                 ; 0000 037C                     }
                 ; 0000 037D                     i = CRC16(rx_buffer,6);
                 _0xC0:
000a52 e3e8      	LDI  R30,LOW(_rx_buffer)
000a53 e0f2      	LDI  R31,HIGH(_rx_buffer)
000a54 93fa      	ST   -Y,R31
000a55 93ea      	ST   -Y,R30
000a56 e0a6      	LDI  R26,LOW(6)
000a57 e0b0      	LDI  R27,0
000a58 da62      	RCALL _CRC16
000a59 87ea      	STD  Y+10,R30
000a5a 87fb      	STD  Y+10+1,R31
                 ; 0000 037E 
                 ; 0000 037F                     if((rx_buffer[6] != i%256) || (rx_buffer[7] != i/256)  )
                +
000a5b 91a0 023e+LDS R26 , _rx_buffer + ( 6 )
                 	__GETB2MN _rx_buffer,6
000a5d 70f0      	ANDI R31,HIGH(0xFF)
000a5e e0b0      	LDI  R27,0
000a5f 17ea      	CP   R30,R26
000a60 07fb      	CPC  R31,R27
000a61 f441      	BRNE _0xC4
                +
000a62 91a0 023f+LDS R26 , _rx_buffer + ( 7 )
                 	__GETB2MN _rx_buffer,7
000a64 85eb      	LDD  R30,Y+11
000a65 70f0      	ANDI R31,HIGH(0x0)
000a66 e0b0      	LDI  R27,0
000a67 17ea      	CP   R30,R26
000a68 07fb      	CPC  R31,R27
000a69 f019      	BREQ _0xC3
                 _0xC4:
                 ; 0000 0380                     {
                 ; 0000 0381                     error_code = mbillegaldatavalue;      //CRC not matching
                +
000a6a e043     +LDI R20 , LOW ( 3 )
000a6b e050     +LDI R21 , HIGH ( 3 )
                 	__GETWRN 20,21,3
                 ; 0000 0382                     break;
000a6c c126      	RJMP _0xAB
                 ; 0000 0383                     }
                 ; 0000 0384 
                 ; 0000 0385                   //valid request so form mb frame accordingly
                 ; 0000 0386                   error_code =0;       //
                 _0xC3:
                +
000a6d e040     +LDI R20 , LOW ( 0 )
000a6e e050     +LDI R21 , HIGH ( 0 )
                 	__GETWRN 20,21,0
                 ; 0000 0387                     mb_dir =1;      //transmit
000a6f 9a92      	SBI  0x12,2
                 ; 0000 0388 //                  mbamount =8;                  //test
                 ; 0000 0389                   mbtransmit_data[0] = mbreceived_data[0];      //slave id
000a70 91e0 024f 	LDS  R30,_mbreceived_data
000a72 87ec      	STD  Y+12,R30
                 ; 0000 038A                   mbtransmit_data[1] = mbreceived_data[1];       //function code
                +
000a73 91e0 0250+LDS R30 , _mbreceived_data + ( 1 )
                 	__GETB1MN _mbreceived_data,1
000a75 87ed      	STD  Y+13,R30
                 ; 0000 038B                   mbtransmit_data[2] = (char)mbamount *2;             //SIZE OF DATA IN BYTES
000a76 2fe2      	MOV  R30,R18
000a77 0fee      	LSL  R30
000a78 87ee      	STD  Y+14,R30
                 ; 0000 038C                     j=3;
000a79 e0e3      	LDI  R30,LOW(3)
000a7a e0f0      	LDI  R31,HIGH(3)
000a7b 87e8      	STD  Y+8,R30
000a7c 87f9      	STD  Y+8+1,R31
                 ; 0000 038D 
                 ; 0000 038E //                    mb_dir =0;  //set to transmit
                 ; 0000 038F                     delay_ms(2);
000a7d e0a2      	LDI  R26,LOW(2)
000a7e e0b0      	LDI  R27,0
000a7f 940e 2427 	CALL _delay_ms
                 ; 0000 0390                     for (i=0;i<mbamount;i++)               //transfer data
000a81 e0e0      	LDI  R30,LOW(0)
000a82 87ea      	STD  Y+10,R30
000a83 87eb      	STD  Y+10+1,R30
                 _0xC9:
000a84 85aa      	LDD  R26,Y+10
000a85 85bb      	LDD  R27,Y+10+1
000a86 17a2      	CP   R26,R18
000a87 07b3      	CPC  R27,R19
000a88 f5c8      	BRSH _0xCA
                 ; 0000 0391                         {
                 ; 0000 0392 //                        mbtransmit_data[j] = (char)(mb_inputdata[mbaddress+i]/256);
                 ; 0000 0393                          mbtransmit_data[j] = (short int)((mb_inputdata[mbaddress+i]>>8)& 0X00ff);
000a89 85e8      	LDD  R30,Y+8
000a8a 85f9      	LDD  R31,Y+8+1
000a8b 01de      	MOVW R26,R28
000a8c 961c      	ADIW R26,12
000a8d 0fea      	ADD  R30,R26
000a8e 1ffb      	ADC  R31,R27
000a8f 010f      	MOVW R0,R30
000a90 85ea      	LDD  R30,Y+10
000a91 85fb      	LDD  R31,Y+10+1
000a92 0fe0      	ADD  R30,R16
000a93 1ff1      	ADC  R31,R17
000a94 eba7      	LDI  R26,LOW(_mb_inputdata)
000a95 e0b7      	LDI  R27,HIGH(_mb_inputdata)
000a96 0fee      	LSL  R30
000a97 1fff      	ROL  R31
000a98 0fae      	ADD  R26,R30
000a99 1fbf      	ADC  R27,R31
000a9a 940e 2677 	CALL __GETW1P
000a9c 940e 25c5 	CALL __ASRW8
000a9e 01d0      	MOVW R26,R0
000a9f 93ec      	ST   X,R30
                 ; 0000 0394                         j++;
000aa0 85e8      	LDD  R30,Y+8
000aa1 85f9      	LDD  R31,Y+8+1
000aa2 9631      	ADIW R30,1
000aa3 87e8      	STD  Y+8,R30
000aa4 87f9      	STD  Y+8+1,R31
                 ; 0000 0395 //                        mbtransmit_data[j] = (char)(mb_inputdata[mbaddress+i]%256);
                 ; 0000 0396                          mbtransmit_data[j] = (short int)(mb_inputdata[mbaddress+i]& 0X00ff);
000aa5 01de      	MOVW R26,R28
000aa6 961c      	ADIW R26,12
000aa7 0fea      	ADD  R30,R26
000aa8 1ffb      	ADC  R31,R27
000aa9 010f      	MOVW R0,R30
000aaa 85ea      	LDD  R30,Y+10
000aab 85fb      	LDD  R31,Y+10+1
000aac 0fe0      	ADD  R30,R16
000aad 1ff1      	ADC  R31,R17
000aae eba7      	LDI  R26,LOW(_mb_inputdata)
000aaf e0b7      	LDI  R27,HIGH(_mb_inputdata)
000ab0 0fee      	LSL  R30
000ab1 1fff      	ROL  R31
000ab2 0fae      	ADD  R26,R30
000ab3 1fbf      	ADC  R27,R31
000ab4 91ec      	LD   R30,X
000ab5 01d0      	MOVW R26,R0
000ab6 93ec      	ST   X,R30
                 ; 0000 0397                         j++;
000ab7 85e8      	LDD  R30,Y+8
000ab8 85f9      	LDD  R31,Y+8+1
000ab9 9631      	ADIW R30,1
000aba 87e8      	STD  Y+8,R30
000abb 87f9      	STD  Y+8+1,R31
                 ; 0000 0398                         }
000abc 85ea      	LDD  R30,Y+10
000abd 85fb      	LDD  R31,Y+10+1
000abe 9631      	ADIW R30,1
000abf 87ea      	STD  Y+10,R30
000ac0 87fb      	STD  Y+10+1,R31
000ac1 cfc2      	RJMP _0xC9
                 _0xCA:
                 ; 0000 0399                     i= CRC16(mbtransmit_data,(mbamount*2)+3);
000ac2 01fe      	MOVW R30,R28
000ac3 963c      	ADIW R30,12
000ac4 93fa      	ST   -Y,R31
000ac5 93ea      	ST   -Y,R30
000ac6 01f9      	MOVW R30,R18
000ac7 0fee      	LSL  R30
000ac8 1fff      	ROL  R31
000ac9 9633      	ADIW R30,3
000aca 01df      	MOVW R26,R30
000acb d9ef      	RCALL _CRC16
000acc 87ea      	STD  Y+10,R30
000acd 87fb      	STD  Y+10+1,R31
                 ; 0000 039A                     mbtransmit_data[j] = i%256;
000ace 85e8      	LDD  R30,Y+8
000acf 85f9      	LDD  R31,Y+8+1
000ad0 01de      	MOVW R26,R28
000ad1 961c      	ADIW R26,12
000ad2 0fae      	ADD  R26,R30
000ad3 1fbf      	ADC  R27,R31
000ad4 85ea      	LDD  R30,Y+10
000ad5 93ec      	ST   X,R30
                 ; 0000 039B                     mbtransmit_data[j+1]=i/256;
000ad6 85e8      	LDD  R30,Y+8
000ad7 85f9      	LDD  R31,Y+8+1
000ad8 9631      	ADIW R30,1
000ad9 01de      	MOVW R26,R28
000ada 961c      	ADIW R26,12
000adb 0fae      	ADD  R26,R30
000adc 1fbf      	ADC  R27,R31
000add 85eb      	LDD  R30,Y+11
000ade 93ec      	ST   X,R30
                 ; 0000 039C                     #asm("cli")
000adf 94f8      	cli
                 ; 0000 039D 
                 ; 0000 039E //                    mb_dir =0;//set to transmit data
                 ; 0000 039F                     for (i=0;i<mbtransmit_data[2]+4+1;i++)
000ae0 e0e0      	LDI  R30,LOW(0)
000ae1 87ea      	STD  Y+10,R30
000ae2 87eb      	STD  Y+10+1,R30
                 _0xCC:
000ae3 85ee      	LDD  R30,Y+14
000ae4 e0f0      	LDI  R31,0
000ae5 9635      	ADIW R30,5
000ae6 85aa      	LDD  R26,Y+10
000ae7 85bb      	LDD  R27,Y+10+1
000ae8 17ae      	CP   R26,R30
000ae9 07bf      	CPC  R27,R31
000aea f470      	BRSH _0xCD
                 ; 0000 03A0                         {
                 ; 0000 03A1                         putchar(mbtransmit_data[i]);
000aeb 85ea      	LDD  R30,Y+10
000aec 85fb      	LDD  R31,Y+10+1
000aed 01de      	MOVW R26,R28
000aee 961c      	ADIW R26,12
000aef 0fae      	ADD  R26,R30
000af0 1fbf      	ADC  R27,R31
000af1 91ac      	LD   R26,X
000af2 d9a1      	RCALL _putchar
                 ; 0000 03A2                         }
000af3 85ea      	LDD  R30,Y+10
000af4 85fb      	LDD  R31,Y+10+1
000af5 9631      	ADIW R30,1
000af6 87ea      	STD  Y+10,R30
000af7 87fb      	STD  Y+10+1,R31
000af8 cfea      	RJMP _0xCC
                 _0xCD:
                 ; 0000 03A3 
                 ; 0000 03A4 //                     mbreset();
                 ; 0000 03A5                     #asm("sei")
000af9 9478      	sei
                 ; 0000 03A6                     delay_ms(50);      //wait till all data transmitted need time to transmit max 36 bytes @9600
000afa e3a2      	LDI  R26,LOW(50)
000afb e0b0      	LDI  R27,0
000afc 940e 2427 	CALL _delay_ms
                 ; 0000 03A7                     mb_dir =0;   //recieve
000afe 9892      	CBI  0x12,2
                 ; 0000 03A8                     mbreset();
000aff d9e2      	RCALL _mbreset
                 ; 0000 03A9 
                 ; 0000 03AA 
                 ; 0000 03AB 
                 ; 0000 03AC                     break;
000b00 c092      	RJMP _0xAB
                 ; 0000 03AD             //Preset Single Register
                 ; 0000 03AE             case 0x06:
                 _0xBE:
000b01 30e6      	CPI  R30,LOW(0x6)
000b02 e0a0      	LDI  R26,HIGH(0x6)
000b03 07fa      	CPC  R31,R26
000b04 f009      	BREQ PC+2
000b05 c08b      	RJMP _0xE1
                 ; 0000 03AF                  mbaddress = mbreceived_data[3];      //start address;
                +
000b06 9100 0252+LDS R16 , _mbreceived_data + ( 3 )
                 	__GETBRMN 16,_mbreceived_data,3
000b08 2711      	CLR  R17
                 ; 0000 03B0                  if (mbaddress+1 > 58)
000b09 01d8      	MOVW R26,R16
000b0a 9611      	ADIW R26,1
000b0b 97db      	SBIW R26,59
000b0c f018      	BRLO _0xD1
                 ; 0000 03B1                     {
                 ; 0000 03B2                     error_code = mbillegaldataaddress;
                +
000b0d e042     +LDI R20 , LOW ( 2 )
000b0e e050     +LDI R21 , HIGH ( 2 )
                 	__GETWRN 20,21,2
                 ; 0000 03B3                     break;
000b0f c083      	RJMP _0xAB
                 ; 0000 03B4                     }
                 ; 0000 03B5                  mbamount = (mbreceived_data[4] *256) +mbreceived_data[5];      //requested amount
                 _0xD1:
                +
000b10 91a0 0253+LDS R26 , _mbreceived_data + ( 4 )
                 	__GETB2MN _mbreceived_data,4
000b12 e0b0      	LDI  R27,0
000b13 e0e0      	LDI  R30,LOW(256)
000b14 e0f1      	LDI  R31,HIGH(256)
000b15 940e 25fc 	CALL __MULW12
000b17 01df      	MOVW R26,R30
                +
000b18 91e0 0254+LDS R30 , _mbreceived_data + ( 5 )
                 	__GETB1MN _mbreceived_data,5
000b1a e0f0      	LDI  R31,0
000b1b 0fea      	ADD  R30,R26
000b1c 1ffb      	ADC  R31,R27
000b1d 019f      	MOVW R18,R30
                 ; 0000 03B6 
                 ; 0000 03B7                  if (mbamount < -1999 || mbamount >9999)
                +
000b1e 3321     +CPI R18 , LOW ( - 1999 )
000b1f efe8     +LDI R30 , HIGH ( - 1999 )
000b20 073e     +CPC R19 , R30
                 	__CPWRN 18,19,-1999
000b21 f024      	BRLT _0xD3
                +
000b22 3120     +CPI R18 , LOW ( 10000 )
000b23 e2e7     +LDI R30 , HIGH ( 10000 )
000b24 073e     +CPC R19 , R30
                 	__CPWRN 18,19,10000
000b25 f01c      	BRLT _0xD2
                 _0xD3:
                 ; 0000 03B8                     {
                 ; 0000 03B9                     error_code = mbillegaldatavalue;         //requested data overflow
                +
000b26 e043     +LDI R20 , LOW ( 3 )
000b27 e050     +LDI R21 , HIGH ( 3 )
                 	__GETWRN 20,21,3
                 ; 0000 03BA                     break;
000b28 c06a      	RJMP _0xAB
                 ; 0000 03BB                     }
                 ; 0000 03BC                  else
                 _0xD2:
                 ; 0000 03BD                     {
                 ; 0000 03BE                     k = mblimitcheck(mbaddress,mbamount);
000b29 931a      	ST   -Y,R17
000b2a 930a      	ST   -Y,R16
000b2b 01d9      	MOVW R26,R18
000b2c db94      	RCALL _mblimitcheck
000b2d 83ee      	STD  Y+6,R30
000b2e 83ff      	STD  Y+6+1,R31
                 ; 0000 03BF                     if (k == 1)
000b2f 81ae      	LDD  R26,Y+6
000b30 81bf      	LDD  R27,Y+6+1
000b31 9711      	SBIW R26,1
000b32 f419      	BRNE _0xD6
                 ; 0000 03C0                     {
                 ; 0000 03C1                     error_code = 7;//mbillegaldatavalue;       //write not done. invalid value
                +
000b33 e047     +LDI R20 , LOW ( 7 )
000b34 e050     +LDI R21 , HIGH ( 7 )
                 	__GETWRN 20,21,7
                 ; 0000 03C2                     break;
000b35 c05d      	RJMP _0xAB
                 ; 0000 03C3                     }
                 ; 0000 03C4                     }
                 _0xD6:
                 ; 0000 03C5                     i = CRC16(rx_buffer,6);
000b36 e3e8      	LDI  R30,LOW(_rx_buffer)
000b37 e0f2      	LDI  R31,HIGH(_rx_buffer)
000b38 93fa      	ST   -Y,R31
000b39 93ea      	ST   -Y,R30
000b3a e0a6      	LDI  R26,LOW(6)
000b3b e0b0      	LDI  R27,0
000b3c 940e 04bb 	CALL _CRC16
000b3e 87ea      	STD  Y+10,R30
000b3f 87fb      	STD  Y+10+1,R31
                 ; 0000 03C6 
                 ; 0000 03C7                  if((rx_buffer[6] != i%256) || (rx_buffer[7] != i/256)  )
                +
000b40 91a0 023e+LDS R26 , _rx_buffer + ( 6 )
                 	__GETB2MN _rx_buffer,6
000b42 70f0      	ANDI R31,HIGH(0xFF)
000b43 e0b0      	LDI  R27,0
000b44 17ea      	CP   R30,R26
000b45 07fb      	CPC  R31,R27
000b46 f441      	BRNE _0xD8
                +
000b47 91a0 023f+LDS R26 , _rx_buffer + ( 7 )
                 	__GETB2MN _rx_buffer,7
000b49 85eb      	LDD  R30,Y+11
000b4a 70f0      	ANDI R31,HIGH(0x0)
000b4b e0b0      	LDI  R27,0
000b4c 17ea      	CP   R30,R26
000b4d 07fb      	CPC  R31,R27
000b4e f019      	BREQ _0xD7
                 _0xD8:
                 ; 0000 03C8                     {
                 ; 0000 03C9                     error_code = mbillegaldatavalue;      //CRC not matching
                +
000b4f e043     +LDI R20 , LOW ( 3 )
000b50 e050     +LDI R21 , HIGH ( 3 )
                 	__GETWRN 20,21,3
                 ; 0000 03CA                     break;
000b51 c041      	RJMP _0xAB
                 ; 0000 03CB                     }
                 ; 0000 03CC                   //valid request so form mb frame  echo accordingly
                 ; 0000 03CD                   error_code =0;       //
                 _0xD7:
                +
000b52 e040     +LDI R20 , LOW ( 0 )
000b53 e050     +LDI R21 , HIGH ( 0 )
                 	__GETWRN 20,21,0
                 ; 0000 03CE                   mb_dir =1;      //transmit
000b54 9a92      	SBI  0x12,2
                 ; 0000 03CF                   mbtransmit_data[0] = mbreceived_data[0];      //slave id
000b55 91e0 024f 	LDS  R30,_mbreceived_data
000b57 87ec      	STD  Y+12,R30
                 ; 0000 03D0                   mbtransmit_data[1] = mbreceived_data[1];       //function code
                +
000b58 91e0 0250+LDS R30 , _mbreceived_data + ( 1 )
                 	__GETB1MN _mbreceived_data,1
000b5a 87ed      	STD  Y+13,R30
                 ; 0000 03D1                   mbtransmit_data[2] = mbreceived_data[2];      //slave id
                +
000b5b 91e0 0251+LDS R30 , _mbreceived_data + ( 2 )
                 	__GETB1MN _mbreceived_data,2
000b5d 87ee      	STD  Y+14,R30
                 ; 0000 03D2                   mbtransmit_data[3] = mbreceived_data[3];       //function code
                +
000b5e 91e0 0252+LDS R30 , _mbreceived_data + ( 3 )
                 	__GETB1MN _mbreceived_data,3
000b60 87ef      	STD  Y+15,R30
                 ; 0000 03D3                   mbtransmit_data[4] = mbreceived_data[4];      //slave id
                +
000b61 91e0 0253+LDS R30 , _mbreceived_data + ( 4 )
                 	__GETB1MN _mbreceived_data,4
000b63 8be8      	STD  Y+16,R30
                 ; 0000 03D4                   mbtransmit_data[5] = mbreceived_data[5];       //function code
                +
000b64 91e0 0254+LDS R30 , _mbreceived_data + ( 5 )
                 	__GETB1MN _mbreceived_data,5
000b66 8be9      	STD  Y+17,R30
                 ; 0000 03D5                   mbtransmit_data[6] = mbreceived_data[6];      //slave id
                +
000b67 91e0 0255+LDS R30 , _mbreceived_data + ( 6 )
                 	__GETB1MN _mbreceived_data,6
000b69 8bea      	STD  Y+18,R30
                 ; 0000 03D6                   mbtransmit_data[7] = mbreceived_data[7];       //function code
                +
000b6a 91e0 0256+LDS R30 , _mbreceived_data + ( 7 )
                 	__GETB1MN _mbreceived_data,7
000b6c 8beb      	STD  Y+19,R30
                 ; 0000 03D7 
                 ; 0000 03D8                     delay_ms(2);
000b6d e0a2      	LDI  R26,LOW(2)
000b6e e0b0      	LDI  R27,0
000b6f 940e 2427 	CALL _delay_ms
                 ; 0000 03D9 
                 ; 0000 03DA                     #asm("cli")
000b71 94f8      	cli
                 ; 0000 03DB 
                 ; 0000 03DC //                    mb_dir =0;//set to transmit data
                 ; 0000 03DD                     for (i=0;i<8;i++)
000b72 e0e0      	LDI  R30,LOW(0)
000b73 87ea      	STD  Y+10,R30
000b74 87eb      	STD  Y+10+1,R30
                 _0xDD:
000b75 85aa      	LDD  R26,Y+10
000b76 85bb      	LDD  R27,Y+10+1
000b77 9718      	SBIW R26,8
000b78 f478      	BRSH _0xDE
                 ; 0000 03DE                         {
                 ; 0000 03DF                         putchar(mbtransmit_data[i]);
000b79 85ea      	LDD  R30,Y+10
000b7a 85fb      	LDD  R31,Y+10+1
000b7b 01de      	MOVW R26,R28
000b7c 961c      	ADIW R26,12
000b7d 0fae      	ADD  R26,R30
000b7e 1fbf      	ADC  R27,R31
000b7f 91ac      	LD   R26,X
000b80 940e 0494 	CALL _putchar
                 ; 0000 03E0                         }
000b82 85ea      	LDD  R30,Y+10
000b83 85fb      	LDD  R31,Y+10+1
000b84 9631      	ADIW R30,1
000b85 87ea      	STD  Y+10,R30
000b86 87fb      	STD  Y+10+1,R31
000b87 cfed      	RJMP _0xDD
                 _0xDE:
                 ; 0000 03E1 
                 ; 0000 03E2 //                     mbreset();
                 ; 0000 03E3                     #asm("sei")
000b88 9478      	sei
                 ; 0000 03E4                     delay_ms(50);      //wait till all data transmitted need time to transmit max 36 bytes @9600
000b89 e3a2      	LDI  R26,LOW(50)
000b8a e0b0      	LDI  R27,0
000b8b 940e 2427 	CALL _delay_ms
                 ; 0000 03E5                     mb_dir =0;   //recieve
000b8d 9892      	CBI  0x12,2
                 ; 0000 03E6                     mbreset();
000b8e 940e 04e2 	CALL _mbreset
                 ; 0000 03E7                     break;
000b90 c002      	RJMP _0xAB
                 ; 0000 03E8             default: error_code = mbillegalfunction;
                 _0xE1:
                +
000b91 e041     +LDI R20 , LOW ( 1 )
000b92 e050     +LDI R21 , HIGH ( 1 )
                 	__GETWRN 20,21,1
                 ; 0000 03E9 //                    mbreset();
                 ; 0000 03EA                     break;
                 ; 0000 03EB 
                 ; 0000 03EC             }
                 _0xAB:
                 ; 0000 03ED //        error handling;
                 ; 0000 03EE         if (error_code !=0)
000b93 2e04      	MOV  R0,R20
000b94 2a05      	OR   R0,R21
000b95 f1c1      	BREQ _0xE2
                 ; 0000 03EF             {
                 ; 0000 03F0             //todo : error handling code here
                 ; 0000 03F1                 mb_dir =1;
000b96 9a92      	SBI  0x12,2
                 ; 0000 03F2                 mbtransmit_data[0] = mbreceived_data[0];    //slave id
000b97 91e0 024f 	LDS  R30,_mbreceived_data
000b99 87ec      	STD  Y+12,R30
                 ; 0000 03F3                 mbtransmit_data[1] = mbreceived_data[1] | 0x80;     //set highest bit to indicate exception
                +
000b9a 91e0 0250+LDS R30 , _mbreceived_data + ( 1 )
                 	__GETB1MN _mbreceived_data,1
000b9c 68e0      	ORI  R30,0x80
000b9d 87ed      	STD  Y+13,R30
                 ; 0000 03F4                 mbtransmit_data[2] = error_code;        //error code
000b9e 01fe      	MOVW R30,R28
000b9f 963e      	ADIW R30,14
000ba0 8340      	ST   Z,R20
                 ; 0000 03F5                     i= CRC16(mbtransmit_data,3);    // CRC
000ba1 01fe      	MOVW R30,R28
000ba2 963c      	ADIW R30,12
000ba3 93fa      	ST   -Y,R31
000ba4 93ea      	ST   -Y,R30
000ba5 e0a3      	LDI  R26,LOW(3)
000ba6 e0b0      	LDI  R27,0
000ba7 940e 04bb 	CALL _CRC16
000ba9 87ea      	STD  Y+10,R30
000baa 87fb      	STD  Y+10+1,R31
                 ; 0000 03F6                     mbtransmit_data[3] = i%256;
000bab 85ea      	LDD  R30,Y+10
000bac 87ef      	STD  Y+15,R30
                 ; 0000 03F7                     mbtransmit_data[4]=i/256;
000bad 85eb      	LDD  R30,Y+11
000bae 8be8      	STD  Y+16,R30
                 ; 0000 03F8                     #asm("cli")
000baf 94f8      	cli
                 ; 0000 03F9 
                 ; 0000 03FA //                    mb_dir =0;//set to transmit data
                 ; 0000 03FB                     for (i=0;i<5;i++)
000bb0 e0e0      	LDI  R30,LOW(0)
000bb1 87ea      	STD  Y+10,R30
000bb2 87eb      	STD  Y+10+1,R30
                 _0xE6:
000bb3 85aa      	LDD  R26,Y+10
000bb4 85bb      	LDD  R27,Y+10+1
000bb5 9715      	SBIW R26,5
000bb6 f478      	BRSH _0xE7
                 ; 0000 03FC                         {
                 ; 0000 03FD                         putchar(mbtransmit_data[i]);
000bb7 85ea      	LDD  R30,Y+10
000bb8 85fb      	LDD  R31,Y+10+1
000bb9 01de      	MOVW R26,R28
000bba 961c      	ADIW R26,12
000bbb 0fae      	ADD  R26,R30
000bbc 1fbf      	ADC  R27,R31
000bbd 91ac      	LD   R26,X
000bbe 940e 0494 	CALL _putchar
                 ; 0000 03FE                         }
000bc0 85ea      	LDD  R30,Y+10
000bc1 85fb      	LDD  R31,Y+10+1
000bc2 9631      	ADIW R30,1
000bc3 87ea      	STD  Y+10,R30
000bc4 87fb      	STD  Y+10+1,R31
000bc5 cfed      	RJMP _0xE6
                 _0xE7:
                 ; 0000 03FF 
                 ; 0000 0400 //                     mbreset();
                 ; 0000 0401                     #asm("sei")
000bc6 9478      	sei
                 ; 0000 0402                     delay_ms(50);      //wait till all data transmitted need time to transmit max 36 bytes @9600
000bc7 e3a2      	LDI  R26,LOW(50)
000bc8 e0b0      	LDI  R27,0
000bc9 940e 2427 	CALL _delay_ms
                 ; 0000 0403                     mb_dir =0;   //recieve
000bcb 9892      	CBI  0x12,2
                 ; 0000 0404                     mbreset();
000bcc 940e 04e2 	CALL _mbreset
                 ; 0000 0405 
                 ; 0000 0406 
                 ; 0000 0407             }
                 ; 0000 0408 
                 ; 0000 0409 
                 ; 0000 040A 
                 ; 0000 040B }
                 _0xE2:
000bce 940e 26d0 	CALL __LOADLOCR6
000bd0 96e4      	ADIW R28,52
000bd1 9508      	RET
                 ; .FEND
                 ;
                 ;
                 ;
                 ;
                 ;
                 ;
                 ;
                 ;
                 ;
                 ;
                 ;
                 ;
                 ;////////////////////////////////////////////////////////////
                 ;
                 ;
                 ;
                 ;
                 ;
                 ;
                 ;void set_fixed_values(void)
                 ; 0000 0420 {
                 _set_fixed_values:
                 ; .FSTART _set_fixed_values
                 ; 0000 0421 int i;
                 ; 0000 0422 for (i=0;i<=7;i++)
000bd2 931a      	ST   -Y,R17
000bd3 930a      	ST   -Y,R16
                 ;	i -> R16,R17
                +
000bd4 e000     +LDI R16 , LOW ( 0 )
000bd5 e010     +LDI R17 , HIGH ( 0 )
                 	__GETWRN 16,17,0
                 _0xEB:
                +
000bd6 3008     +CPI R16 , LOW ( 8 )
000bd7 e0e0     +LDI R30 , HIGH ( 8 )
000bd8 071e     +CPC R17 , R30
                 	__CPWRN 16,17,8
000bd9 f57c      	BRGE _0xEC
                 ; 0000 0423     {
                 ; 0000 0424     rlow[i] = -200;
000bda 01f8      	MOVW R30,R16
000bdb eba8      	LDI  R26,LOW(_rlow)
000bdc e0b1      	LDI  R27,HIGH(_rlow)
000bdd 0fee      	LSL  R30
000bde 1fff      	ROL  R31
000bdf 0fae      	ADD  R26,R30
000be0 1fbf      	ADC  R27,R31
000be1 e3e8      	LDI  R30,LOW(65336)
000be2 efff      	LDI  R31,HIGH(65336)
000be3 93ed      	ST   X+,R30
000be4 93fc      	ST   X,R31
                 ; 0000 0425     rhigh[i] =300;
000be5 01f8      	MOVW R30,R16
000be6 eca8      	LDI  R26,LOW(_rhigh)
000be7 e0b1      	LDI  R27,HIGH(_rhigh)
000be8 0fee      	LSL  R30
000be9 1fff      	ROL  R31
000bea 0fae      	ADD  R26,R30
000beb 1fbf      	ADC  R27,R31
000bec e2ec      	LDI  R30,LOW(300)
000bed e0f1      	LDI  R31,HIGH(300)
000bee 93ed      	ST   X+,R30
000bef 93fc      	ST   X,R31
                 ; 0000 0426     dp[i] =3;
000bf0 01f8      	MOVW R30,R16
000bf1 e0a8      	LDI  R26,LOW(_dp)
000bf2 e0b2      	LDI  R27,HIGH(_dp)
000bf3 0fee      	LSL  R30
000bf4 1fff      	ROL  R31
000bf5 0fae      	ADD  R26,R30
000bf6 1fbf      	ADC  R27,R31
000bf7 e0e3      	LDI  R30,LOW(3)
000bf8 e0f0      	LDI  R31,HIGH(3)
000bf9 93ed      	ST   X+,R30
000bfa 93fc      	ST   X,R31
                 ; 0000 0427     input[i] = 6;
000bfb 01f8      	MOVW R30,R16
000bfc efa8      	LDI  R26,LOW(_input)
000bfd e0b1      	LDI  R27,HIGH(_input)
000bfe 0fee      	LSL  R30
000bff 1fff      	ROL  R31
000c00 0fae      	ADD  R26,R30
000c01 1fbf      	ADC  R27,R31
000c02 e0e6      	LDI  R30,LOW(6)
000c03 e0f0      	LDI  R31,HIGH(6)
000c04 93ed      	ST   X+,R30
000c05 93fc      	ST   X,R31
                 ; 0000 0428     }
                +
000c06 5f0f     +SUBI R16 , LOW ( - 1 )
000c07 4f1f     +SBCI R17 , HIGH ( - 1 )
                 	__ADDWRN 16,17,1
000c08 cfcd      	RJMP _0xEB
                 _0xEC:
                 ; 0000 0429 
                 ; 0000 042A 
                 ; 0000 042B }
000c09 9109      	LD   R16,Y+
000c0a 9119      	LD   R17,Y+
000c0b 9508      	RET
                 ; .FEND
                 ;
                 ;
                 ;
                 ; void adc3421_init(void)
                 ; 0000 0430 {
                 _adc3421_init:
                 ; .FSTART _adc3421_init
                 ; 0000 0431 i2c_start();
000c0c 940e 23db 	CALL _i2c_start
                 ; 0000 0432 i2c_write(0xd2);
000c0e eda2      	LDI  R26,LOW(210)
000c0f 940e 240f 	CALL _i2c_write
                 ; 0000 0433 delay_ms(1);
000c11 e0a1      	LDI  R26,LOW(1)
000c12 e0b0      	LDI  R27,0
000c13 940e 2427 	CALL _delay_ms
                 ; 0000 0434 //i2c_write(0x9f);   //18 bit mode 8v/v
                 ; 0000 0435 i2c_write(0x98);        //16 bit 1v/v
000c15 e9a8      	LDI  R26,LOW(152)
000c16 940e 240f 	CALL _i2c_write
                 ; 0000 0436 i2c_stop();
000c18 940e 23ea 	CALL _i2c_stop
                 ; 0000 0437 }
000c1a 9508      	RET
                 ; .FEND
                 ;
                 ;/*
                 ;long int adc3421_read18(void)
                 ;{
                 ; unsigned int buffer1;
                 ; unsigned int buffer2,buffer3;
                 ; long int buffer4;
                 ; i2c_start();
                 ; buffer1 = i2c_write(0xd3);
                 ; buffer1 = i2c_read(1);
                 ; buffer2 = i2c_read(1);
                 ; buffer3 = i2c_read(0);
                 ; i2c_stop();
                 ; buffer1 = buffer1 & 0x01;
                 ; buffer4 = (long) (buffer1) * 65536 ;
                 ; buffer4 = buffer4 + ((long)(buffer2) * 256);
                 ; buffer4 = buffer4 + (long)(buffer3);
                 ; return(buffer4);
                 ;}
                 ;*/
                 ;
                 ;int adc3421_read(void)
                 ; 0000 044E {
                 _adc3421_read:
                 ; .FSTART _adc3421_read
                 ; 0000 044F  unsigned int buffer1;
                 ; 0000 0450  unsigned int buffer2;
                 ; 0000 0451 signed int buffer4;
                 ; 0000 0452  i2c_start();
000c1b 940e 26c9 	CALL __SAVELOCR6
                 ;	buffer1 -> R16,R17
                 ;	buffer2 -> R18,R19
                 ;	buffer4 -> R20,R21
000c1d 940e 23db 	CALL _i2c_start
                 ; 0000 0453  buffer1 = i2c_write(0xd3);
000c1f eda3      	LDI  R26,LOW(211)
000c20 940e 240f 	CALL _i2c_write
000c22 2f0e      	MOV  R16,R30
000c23 2711      	CLR  R17
                 ; 0000 0454  buffer1 = i2c_read(1);
000c24 e0a1      	LDI  R26,LOW(1)
000c25 940e 23f4 	CALL _i2c_read
000c27 2f0e      	MOV  R16,R30
000c28 2711      	CLR  R17
                 ; 0000 0455  buffer2 = i2c_read(0);
000c29 e0a0      	LDI  R26,LOW(0)
000c2a 940e 23f4 	CALL _i2c_read
000c2c 2f2e      	MOV  R18,R30
000c2d 2733      	CLR  R19
                 ; 0000 0456  i2c_stop();
000c2e 940e 23ea 	CALL _i2c_stop
                 ; 0000 0457  //buffer1 = buffer1 & 0x7f;      //ignore sign bit
                 ; 0000 0458  //buffer4 = (long)(buffer1) * 256);
                 ; 0000 0459  //buffer4 = buffer4 + (long)(buffer2);
                 ; 0000 045A  buffer4 = (buffer1 *256) + buffer2;
000c30 2ff0      	MOV  R31,R16
000c31 e0e0      	LDI  R30,LOW(0)
000c32 0fe2      	ADD  R30,R18
000c33 1ff3      	ADC  R31,R19
000c34 01af      	MOVW R20,R30
                 ; 0000 045B //if (buffer4<0) buffer4 = -buffer4;
                 ; 0000 045C  return(buffer4);
000c35 940e 26d0 	CALL __LOADLOCR6
000c37 9626      	ADIW R28,6
000c38 9508      	RET
                 ; 0000 045D }
                 ; .FEND
                 ;
                 ;
                 ;int linearise_p(float a,float zero_tc,float span_tc)
                 ; 0000 0461 {
                 _linearise_p:
                 ; .FSTART _linearise_p
                 ; 0000 0462 int number =0;
                 ; 0000 0463 int count;
                 ; 0000 0464 int b=0;
                 ; 0000 0465 long int temp=0;
                 ; 0000 0466 float temp1=0;
                 ; 0000 0467 int true_value = 0;
                 ; 0000 0468 
                 ; 0000 0469 
                 ; 0000 046A 
                 ; 0000 046B temp1 = ((a - zero_tc) /(span_tc - zero_tc)) * 11075;    //adc value of 300 deg. is 11075 in table_p
000c39 940e 268e 	CALL __PUTPARD2
000c3b 972a      	SBIW R28,10
000c3c e08a      	LDI  R24,10
000c3d e0a0      	LDI  R26,LOW(0)
000c3e e0b0      	LDI  R27,HIGH(0)
000c3f e0e0      	LDI  R30,LOW(_0xED*2)
000c40 e0f7      	LDI  R31,HIGH(_0xED*2)
000c41 940e 26d7 	CALL __INITLOCB
000c43 940e 26c9 	CALL __SAVELOCR6
                 ;	a -> Y+24
                 ;	zero_tc -> Y+20
                 ;	span_tc -> Y+16
                 ;	number -> R16,R17
                 ;	count -> R18,R19
                 ;	b -> R20,R21
                 ;	temp -> Y+12
                 ;	temp1 -> Y+8
                 ;	true_value -> Y+6
                +
000c45 e000     +LDI R16 , LOW ( 0 )
000c46 e010     +LDI R17 , HIGH ( 0 )
                 	__GETWRN 16,17,0
                +
000c47 e040     +LDI R20 , LOW ( 0 )
000c48 e050     +LDI R21 , HIGH ( 0 )
                 	__GETWRN 20,21,0
                +
000c49 89ac     +LDD R26 , Y + 20
000c4a 89bd     +LDD R27 , Y + 20 + 1
000c4b 898e     +LDD R24 , Y + 20 + 2
000c4c 899f     +LDD R25 , Y + 20 + 3
                 	__GETD2S 20
                +
000c4d 8de8     +LDD R30 , Y + 24
000c4e 8df9     +LDD R31 , Y + 24 + 1
000c4f 8d6a     +LDD R22 , Y + 24 + 2
000c50 8d7b     +LDD R23 , Y + 24 + 3
                 	__GETD1S 24
000c51 940e 24ca 	CALL __SUBF12
000c53 937f      	PUSH R23
000c54 936f      	PUSH R22
000c55 93ff      	PUSH R31
000c56 93ef      	PUSH R30
                +
000c57 89ac     +LDD R26 , Y + 20
000c58 89bd     +LDD R27 , Y + 20 + 1
000c59 898e     +LDD R24 , Y + 20 + 2
000c5a 899f     +LDD R25 , Y + 20 + 3
                 	__GETD2S 20
                +
000c5b 89e8     +LDD R30 , Y + 16
000c5c 89f9     +LDD R31 , Y + 16 + 1
000c5d 896a     +LDD R22 , Y + 16 + 2
000c5e 897b     +LDD R23 , Y + 16 + 3
                 	__GETD1S 16
000c5f 940e 24ca 	CALL __SUBF12
000c61 91af      	POP  R26
000c62 91bf      	POP  R27
000c63 918f      	POP  R24
000c64 919f      	POP  R25
000c65 940e 256f 	CALL __DIVF21
                +
000c67 e0a0     +LDI R26 , LOW ( 0x462D0C00 )
000c68 e0bc     +LDI R27 , HIGH ( 0x462D0C00 )
000c69 e28d     +LDI R24 , BYTE3 ( 0x462D0C00 )
000c6a e496     +LDI R25 , BYTE4 ( 0x462D0C00 )
                 	__GETD2N 0x462D0C00
000c6b 940e 2521 	CALL __MULF12
                +
000c6d 87e8     +STD Y + 8 , R30
000c6e 87f9     +STD Y + 8 + 1 , R31
000c6f 876a     +STD Y + 8 + 2 , R22
000c70 877b     +STD Y + 8 + 3 , R23
                 	__PUTD1S 8
                 ; 0000 046C b = (int)temp1;
000c71 940e 2460 	CALL __CFD1
000c73 01af      	MOVW R20,R30
                 ; 0000 046D //if (b<0)
                 ; 0000 046E //{
                 ; 0000 046F //b = -b;
                 ; 0000 0470 //nfl =1;
                 ; 0000 0471 //}
                 ; 0000 0472 //else
                 ; 0000 0473 //{
                 ; 0000 0474 //nfl =0;
                 ; 0000 0475 //}
                 ; 0000 0476 for (count=0;count <= 17; count++)
                +
000c74 e020     +LDI R18 , LOW ( 0 )
000c75 e030     +LDI R19 , HIGH ( 0 )
                 	__GETWRN 18,19,0
                 _0xEF:
                +
000c76 3122     +CPI R18 , LOW ( 18 )
000c77 e0e0     +LDI R30 , HIGH ( 18 )
000c78 073e     +CPC R19 , R30
                 	__CPWRN 18,19,18
000c79 f4e4      	BRGE _0xF0
                 ; 0000 0477     {
                 ; 0000 0478     if (b>table_p[count] && b <= table_p[count+1])
000c7a 01f9      	MOVW R30,R18
000c7b e2a1      	LDI  R26,LOW(_table_p)
000c7c e0b6      	LDI  R27,HIGH(_table_p)
000c7d 0fee      	LSL  R30
000c7e 1fff      	ROL  R31
000c7f 0fae      	ADD  R26,R30
000c80 1fbf      	ADC  R27,R31
000c81 940e 2677 	CALL __GETW1P
000c83 17e4      	CP   R30,R20
000c84 07f5      	CPC  R31,R21
000c85 f454      	BRGE _0xF2
000c86 01d9      	MOVW R26,R18
000c87 0faa      	LSL  R26
000c88 1fbb      	ROL  R27
                +
000c89 5dad     +SUBI R26 , LOW ( - _table_p - ( 2 ) )
000c8a 4fb9     +SBCI R27 , HIGH ( - _table_p - ( 2 ) )
                 	__ADDW2MN _table_p,2
000c8b 940e 2677 	CALL __GETW1P
000c8d 17e4      	CP   R30,R20
000c8e 07f5      	CPC  R31,R21
000c8f f40c      	BRGE _0xF3
                 _0xF2:
000c90 c002      	RJMP _0xF1
                 _0xF3:
                 ; 0000 0479         {
                 ; 0000 047A         number = count;
000c91 0189      	MOVW R16,R18
                 ; 0000 047B         break;
000c92 c003      	RJMP _0xF0
                 ; 0000 047C         }
                 ; 0000 047D     }
                 _0xF1:
                +
000c93 5f2f     +SUBI R18 , LOW ( - 1 )
000c94 4f3f     +SBCI R19 , HIGH ( - 1 )
                 	__ADDWRN 18,19,1
000c95 cfe0      	RJMP _0xEF
                 _0xF0:
                 ; 0000 047E 
                 ; 0000 047F temp = ((500*(temp1-(float)table_p[number]))/((float)table_p[number+1] - (float)table_p[number]))+ ((long)(number-4) * 5 ...
000c96 01f8      	MOVW R30,R16
000c97 e2a1      	LDI  R26,LOW(_table_p)
000c98 e0b6      	LDI  R27,HIGH(_table_p)
000c99 0fee      	LSL  R30
000c9a 1fff      	ROL  R31
000c9b 0fae      	ADD  R26,R30
000c9c 1fbf      	ADC  R27,R31
000c9d 940e 2677 	CALL __GETW1P
000c9f 940e 25ca 	CALL __CWD1
000ca1 940e 2497 	CALL __CDF1
                +
000ca3 85a8     +LDD R26 , Y + 8
000ca4 85b9     +LDD R27 , Y + 8 + 1
000ca5 858a     +LDD R24 , Y + 8 + 2
000ca6 859b     +LDD R25 , Y + 8 + 3
                 	__GETD2S 8
000ca7 940e 2693 	CALL __SWAPD12
000ca9 940e 24ca 	CALL __SUBF12
                +
000cab e0a0     +LDI R26 , LOW ( 0x43FA0000 )
000cac e0b0     +LDI R27 , HIGH ( 0x43FA0000 )
000cad ef8a     +LDI R24 , BYTE3 ( 0x43FA0000 )
000cae e493     +LDI R25 , BYTE4 ( 0x43FA0000 )
                 	__GETD2N 0x43FA0000
000caf 940e 2521 	CALL __MULF12
000cb1 937f      	PUSH R23
000cb2 936f      	PUSH R22
000cb3 93ff      	PUSH R31
000cb4 93ef      	PUSH R30
000cb5 01d8      	MOVW R26,R16
000cb6 0faa      	LSL  R26
000cb7 1fbb      	ROL  R27
                +
000cb8 5dad     +SUBI R26 , LOW ( - _table_p - ( 2 ) )
000cb9 4fb9     +SBCI R27 , HIGH ( - _table_p - ( 2 ) )
                 	__ADDW2MN _table_p,2
000cba 940e 2677 	CALL __GETW1P
000cbc 940e 25ca 	CALL __CWD1
000cbe 940e 2497 	CALL __CDF1
000cc0 937f      	PUSH R23
000cc1 936f      	PUSH R22
000cc2 93ff      	PUSH R31
000cc3 93ef      	PUSH R30
000cc4 01f8      	MOVW R30,R16
000cc5 e2a1      	LDI  R26,LOW(_table_p)
000cc6 e0b6      	LDI  R27,HIGH(_table_p)
000cc7 0fee      	LSL  R30
000cc8 1fff      	ROL  R31
000cc9 0fae      	ADD  R26,R30
000cca 1fbf      	ADC  R27,R31
000ccb 940e 2677 	CALL __GETW1P
000ccd 940e 25ca 	CALL __CWD1
000ccf 940e 2497 	CALL __CDF1
000cd1 91af      	POP  R26
000cd2 91bf      	POP  R27
000cd3 918f      	POP  R24
000cd4 919f      	POP  R25
000cd5 940e 2693 	CALL __SWAPD12
000cd7 940e 24ca 	CALL __SUBF12
000cd9 91af      	POP  R26
000cda 91bf      	POP  R27
000cdb 918f      	POP  R24
000cdc 919f      	POP  R25
000cdd 940e 256f 	CALL __DIVF21
000cdf 937f      	PUSH R23
000ce0 936f      	PUSH R22
000ce1 93ff      	PUSH R31
000ce2 93ef      	PUSH R30
000ce3 01f8      	MOVW R30,R16
000ce4 9734      	SBIW R30,4
000ce5 940e 25ca 	CALL __CWD1
                +
000ce7 efa4     +LDI R26 , LOW ( 0x1F4 )
000ce8 e0b1     +LDI R27 , HIGH ( 0x1F4 )
000ce9 e080     +LDI R24 , BYTE3 ( 0x1F4 )
000cea e090     +LDI R25 , BYTE4 ( 0x1F4 )
                 	__GETD2N 0x1F4
000ceb c0d1      	RJMP _0x2060004
                 ; 0000 0480 true_value = (int) temp;
                 ; 0000 0481 //if (nfl) true_value = -true_value;
                 ; 0000 0482 return (true_value);
                 ; 0000 0483 }
                 ; .FEND
                 ;int linearise_t(float a,float zero_tc,float span_tc)
                 ; 0000 0485 {
                 _linearise_t:
                 ; .FSTART _linearise_t
                 ; 0000 0486 int number =0;
                 ; 0000 0487 int count;
                 ; 0000 0488 int b=0;
                 ; 0000 0489 long int temp=0;
                 ; 0000 048A float temp1=0;
                 ; 0000 048B int true_value = 0;
                 ; 0000 048C 
                 ; 0000 048D 
                 ; 0000 048E 
                 ; 0000 048F temp1 = ((a - zero_tc)*5000 /(span_tc - zero_tc));    //adc value of 300 deg. is 11075 in table_p
000cec 940e 268e 	CALL __PUTPARD2
000cee 972a      	SBIW R28,10
000cef e08a      	LDI  R24,10
000cf0 e0a0      	LDI  R26,LOW(0)
000cf1 e0b0      	LDI  R27,HIGH(0)
000cf2 e0ea      	LDI  R30,LOW(_0xF4*2)
000cf3 e0f7      	LDI  R31,HIGH(_0xF4*2)
000cf4 940e 26d7 	CALL __INITLOCB
000cf6 940e 26c9 	CALL __SAVELOCR6
                 ;	a -> Y+24
                 ;	zero_tc -> Y+20
                 ;	span_tc -> Y+16
                 ;	number -> R16,R17
                 ;	count -> R18,R19
                 ;	b -> R20,R21
                 ;	temp -> Y+12
                 ;	temp1 -> Y+8
                 ;	true_value -> Y+6
                +
000cf8 e000     +LDI R16 , LOW ( 0 )
000cf9 e010     +LDI R17 , HIGH ( 0 )
                 	__GETWRN 16,17,0
                +
000cfa e040     +LDI R20 , LOW ( 0 )
000cfb e050     +LDI R21 , HIGH ( 0 )
                 	__GETWRN 20,21,0
                +
000cfc 89ac     +LDD R26 , Y + 20
000cfd 89bd     +LDD R27 , Y + 20 + 1
000cfe 898e     +LDD R24 , Y + 20 + 2
000cff 899f     +LDD R25 , Y + 20 + 3
                 	__GETD2S 20
                +
000d00 8de8     +LDD R30 , Y + 24
000d01 8df9     +LDD R31 , Y + 24 + 1
000d02 8d6a     +LDD R22 , Y + 24 + 2
000d03 8d7b     +LDD R23 , Y + 24 + 3
                 	__GETD1S 24
000d04 940e 24ca 	CALL __SUBF12
                +
000d06 e0a0     +LDI R26 , LOW ( 0x459C4000 )
000d07 e4b0     +LDI R27 , HIGH ( 0x459C4000 )
000d08 e98c     +LDI R24 , BYTE3 ( 0x459C4000 )
000d09 e495     +LDI R25 , BYTE4 ( 0x459C4000 )
                 	__GETD2N 0x459C4000
000d0a 940e 2521 	CALL __MULF12
000d0c 937f      	PUSH R23
000d0d 936f      	PUSH R22
000d0e 93ff      	PUSH R31
000d0f 93ef      	PUSH R30
                +
000d10 89ac     +LDD R26 , Y + 20
000d11 89bd     +LDD R27 , Y + 20 + 1
000d12 898e     +LDD R24 , Y + 20 + 2
000d13 899f     +LDD R25 , Y + 20 + 3
                 	__GETD2S 20
                +
000d14 89e8     +LDD R30 , Y + 16
000d15 89f9     +LDD R31 , Y + 16 + 1
000d16 896a     +LDD R22 , Y + 16 + 2
000d17 897b     +LDD R23 , Y + 16 + 3
                 	__GETD1S 16
000d18 940e 24ca 	CALL __SUBF12
000d1a 91af      	POP  R26
000d1b 91bf      	POP  R27
000d1c 918f      	POP  R24
000d1d 919f      	POP  R25
000d1e 940e 256f 	CALL __DIVF21
                +
000d20 87e8     +STD Y + 8 , R30
000d21 87f9     +STD Y + 8 + 1 , R31
000d22 876a     +STD Y + 8 + 2 , R22
000d23 877b     +STD Y + 8 + 3 , R23
                 	__PUTD1S 8
                 ; 0000 0490 //added to add ambient value in table value
                 ; 0000 0491 temp1 = temp1 + (table_t[5] * (long)ambient_val /50);
                +
000d24 91a0 0737+LDS R26 , _table_t + ( 10 )
000d26 91b0 0738+LDS R27 , _table_t + ( 10 ) + 1
                 	__GETW2MN _table_t,10
000d28 01f6      	MOVW R30,R12
000d29 940e 25ca 	CALL __CWD1
000d2b 940e 25cf 	CALL __CWD2
000d2d 940e 2601 	CALL __MULD12
000d2f 01df      	MOVW R26,R30
000d30 01cb      	MOVW R24,R22
                +
000d31 e3e2     +LDI R30 , LOW ( 0x32 )
000d32 e0f0     +LDI R31 , HIGH ( 0x32 )
000d33 e060     +LDI R22 , BYTE3 ( 0x32 )
000d34 e070     +LDI R23 , BYTE4 ( 0x32 )
                 	__GETD1N 0x32
000d35 940e 2643 	CALL __DIVD21
                +
000d37 85a8     +LDD R26 , Y + 8
000d38 85b9     +LDD R27 , Y + 8 + 1
000d39 858a     +LDD R24 , Y + 8 + 2
000d3a 859b     +LDD R25 , Y + 8 + 3
                 	__GETD2S 8
000d3b 940e 2497 	CALL __CDF1
000d3d 940e 24d1 	CALL __ADDF12
                +
000d3f 87e8     +STD Y + 8 , R30
000d40 87f9     +STD Y + 8 + 1 , R31
000d41 876a     +STD Y + 8 + 2 , R22
000d42 877b     +STD Y + 8 + 3 , R23
                 	__PUTD1S 8
                 ; 0000 0492 b = (int)temp1;
000d43 940e 2460 	CALL __CFD1
000d45 01af      	MOVW R20,R30
                 ; 0000 0493 //if (b<0)
                 ; 0000 0494 //{
                 ; 0000 0495 //b = -b;
                 ; 0000 0496 //nfl =1;
                 ; 0000 0497 //}
                 ; 0000 0498 //else
                 ; 0000 0499 //{
                 ; 0000 049A //nfl =0;
                 ; 0000 049B //}
                 ; 0000 049C for (count=0;count <= 12; count++)
                +
000d46 e020     +LDI R18 , LOW ( 0 )
000d47 e030     +LDI R19 , HIGH ( 0 )
                 	__GETWRN 18,19,0
                 _0xF6:
                +
000d48 302d     +CPI R18 , LOW ( 13 )
000d49 e0e0     +LDI R30 , HIGH ( 13 )
000d4a 073e     +CPC R19 , R30
                 	__CPWRN 18,19,13
000d4b f4e4      	BRGE _0xF7
                 ; 0000 049D     {
                 ; 0000 049E     if (b>table_t[count] && b <= table_t[count+1])
000d4c 01f9      	MOVW R30,R18
000d4d e2ad      	LDI  R26,LOW(_table_t)
000d4e e0b7      	LDI  R27,HIGH(_table_t)
000d4f 0fee      	LSL  R30
000d50 1fff      	ROL  R31
000d51 0fae      	ADD  R26,R30
000d52 1fbf      	ADC  R27,R31
000d53 940e 2677 	CALL __GETW1P
000d55 17e4      	CP   R30,R20
000d56 07f5      	CPC  R31,R21
000d57 f454      	BRGE _0xF9
000d58 01d9      	MOVW R26,R18
000d59 0faa      	LSL  R26
000d5a 1fbb      	ROL  R27
                +
000d5b 5da1     +SUBI R26 , LOW ( - _table_t - ( 2 ) )
000d5c 4fb8     +SBCI R27 , HIGH ( - _table_t - ( 2 ) )
                 	__ADDW2MN _table_t,2
000d5d 940e 2677 	CALL __GETW1P
000d5f 17e4      	CP   R30,R20
000d60 07f5      	CPC  R31,R21
000d61 f40c      	BRGE _0xFA
                 _0xF9:
000d62 c002      	RJMP _0xF8
                 _0xFA:
                 ; 0000 049F         {
                 ; 0000 04A0         number = count;
000d63 0189      	MOVW R16,R18
                 ; 0000 04A1         break;
000d64 c003      	RJMP _0xF7
                 ; 0000 04A2         }
                 ; 0000 04A3     }
                 _0xF8:
                +
000d65 5f2f     +SUBI R18 , LOW ( - 1 )
000d66 4f3f     +SBCI R19 , HIGH ( - 1 )
                 	__ADDWRN 18,19,1
000d67 cfe0      	RJMP _0xF6
                 _0xF7:
                 ; 0000 04A4 
                 ; 0000 04A5 temp = ((50*(temp1-(float)table_t[number]))/((float)table_t[number+1] - (float)table_t[number]))+ ((long)(number-4) * 50 ...
000d68 01f8      	MOVW R30,R16
000d69 e2ad      	LDI  R26,LOW(_table_t)
000d6a e0b7      	LDI  R27,HIGH(_table_t)
000d6b 0fee      	LSL  R30
000d6c 1fff      	ROL  R31
000d6d 0fae      	ADD  R26,R30
000d6e 1fbf      	ADC  R27,R31
000d6f 940e 2677 	CALL __GETW1P
000d71 940e 25ca 	CALL __CWD1
000d73 940e 2497 	CALL __CDF1
                +
000d75 85a8     +LDD R26 , Y + 8
000d76 85b9     +LDD R27 , Y + 8 + 1
000d77 858a     +LDD R24 , Y + 8 + 2
000d78 859b     +LDD R25 , Y + 8 + 3
                 	__GETD2S 8
000d79 940e 2693 	CALL __SWAPD12
000d7b 940e 24ca 	CALL __SUBF12
                +
000d7d e0a0     +LDI R26 , LOW ( 0x42480000 )
000d7e e0b0     +LDI R27 , HIGH ( 0x42480000 )
000d7f e488     +LDI R24 , BYTE3 ( 0x42480000 )
000d80 e492     +LDI R25 , BYTE4 ( 0x42480000 )
                 	__GETD2N 0x42480000
000d81 940e 2521 	CALL __MULF12
000d83 937f      	PUSH R23
000d84 936f      	PUSH R22
000d85 93ff      	PUSH R31
000d86 93ef      	PUSH R30
000d87 01d8      	MOVW R26,R16
000d88 0faa      	LSL  R26
000d89 1fbb      	ROL  R27
                +
000d8a 5da1     +SUBI R26 , LOW ( - _table_t - ( 2 ) )
000d8b 4fb8     +SBCI R27 , HIGH ( - _table_t - ( 2 ) )
                 	__ADDW2MN _table_t,2
000d8c 940e 2677 	CALL __GETW1P
000d8e 940e 25ca 	CALL __CWD1
000d90 940e 2497 	CALL __CDF1
000d92 937f      	PUSH R23
000d93 936f      	PUSH R22
000d94 93ff      	PUSH R31
000d95 93ef      	PUSH R30
000d96 01f8      	MOVW R30,R16
000d97 e2ad      	LDI  R26,LOW(_table_t)
000d98 e0b7      	LDI  R27,HIGH(_table_t)
000d99 0fee      	LSL  R30
000d9a 1fff      	ROL  R31
000d9b 0fae      	ADD  R26,R30
000d9c 1fbf      	ADC  R27,R31
000d9d 940e 2677 	CALL __GETW1P
000d9f 940e 25ca 	CALL __CWD1
000da1 940e 2497 	CALL __CDF1
000da3 91af      	POP  R26
000da4 91bf      	POP  R27
000da5 918f      	POP  R24
000da6 919f      	POP  R25
000da7 940e 2693 	CALL __SWAPD12
000da9 940e 24ca 	CALL __SUBF12
000dab 91af      	POP  R26
000dac 91bf      	POP  R27
000dad 918f      	POP  R24
000dae 919f      	POP  R25
000daf 940e 256f 	CALL __DIVF21
000db1 937f      	PUSH R23
000db2 936f      	PUSH R22
000db3 93ff      	PUSH R31
000db4 93ef      	PUSH R30
000db5 01f8      	MOVW R30,R16
000db6 9734      	SBIW R30,4
000db7 940e 25ca 	CALL __CWD1
                +
000db9 e3a2     +LDI R26 , LOW ( 0x32 )
000dba e0b0     +LDI R27 , HIGH ( 0x32 )
000dbb e080     +LDI R24 , BYTE3 ( 0x32 )
000dbc e090     +LDI R25 , BYTE4 ( 0x32 )
                 	__GETD2N 0x32
                 _0x2060004:
000dbd 940e 2601 	CALL __MULD12
000dbf 91af      	POP  R26
000dc0 91bf      	POP  R27
000dc1 918f      	POP  R24
000dc2 919f      	POP  R25
000dc3 940e 2497 	CALL __CDF1
000dc5 940e 24d1 	CALL __ADDF12
000dc7 01de      	MOVW R26,R28
000dc8 961c      	ADIW R26,12
000dc9 940e 2460 	CALL __CFD1
000dcb 940e 267b 	CALL __PUTDP1
                 ; 0000 04A6 true_value = (int) temp;
000dcd 85ec      	LDD  R30,Y+12
000dce 85fd      	LDD  R31,Y+12+1
000dcf 83ee      	STD  Y+6,R30
000dd0 83ff      	STD  Y+6+1,R31
                 ; 0000 04A7 //if (nfl) true_value = -true_value;
                 ; 0000 04A8 return (true_value);
000dd1 940e 26d0 	CALL __LOADLOCR6
000dd3 966c      	ADIW R28,28
000dd4 9508      	RET
                 ; 0000 04A9 }
                 ; .FEND
                 ;
                 ;
                 ;int linearise_tc(float a,float zero_tc,float span_tc,int iter,unsigned int* tabletc,long int factor)
                 ; 0000 04AD {
                 _linearise_tc:
                 ; .FSTART _linearise_tc
000dd5 92ff      	PUSH R15
                 ; 0000 04AE int number =0;
                 ; 0000 04AF int count;
                 ; 0000 04B0 int b=0;
                 ; 0000 04B1 long int temp=0;
                 ; 0000 04B2 float temp1=0;
                 ; 0000 04B3 int true_value = 0;
                 ; 0000 04B4 bit nfl;
                 ; 0000 04B5 
                 ; 0000 04B6 temp1 = ((a - zero_tc)*factor /(span_tc - zero_tc));    //adc value of 300 deg. is 11075 in table_p
000dd6 940e 268e 	CALL __PUTPARD2
000dd8 972a      	SBIW R28,10
000dd9 e08a      	LDI  R24,10
000dda e0a0      	LDI  R26,LOW(0)
000ddb e0b0      	LDI  R27,HIGH(0)
000ddc e1e4      	LDI  R30,LOW(_0xFB*2)
000ddd e0f7      	LDI  R31,HIGH(_0xFB*2)
000dde 940e 26d7 	CALL __INITLOCB
000de0 940e 26c9 	CALL __SAVELOCR6
                 ;	a -> Y+32
                 ;	zero_tc -> Y+28
                 ;	span_tc -> Y+24
                 ;	iter -> Y+22
                 ;	*tabletc -> Y+20
                 ;	factor -> Y+16
                 ;	number -> R16,R17
                 ;	count -> R18,R19
                 ;	b -> R20,R21
                 ;	temp -> Y+12
                 ;	temp1 -> Y+8
                 ;	true_value -> Y+6
                 ;	nfl -> R15.0
                +
000de2 e000     +LDI R16 , LOW ( 0 )
000de3 e010     +LDI R17 , HIGH ( 0 )
                 	__GETWRN 16,17,0
                +
000de4 e040     +LDI R20 , LOW ( 0 )
000de5 e050     +LDI R21 , HIGH ( 0 )
                 	__GETWRN 20,21,0
                +
000de6 8dac     +LDD R26 , Y + 28
000de7 8dbd     +LDD R27 , Y + 28 + 1
000de8 8d8e     +LDD R24 , Y + 28 + 2
000de9 8d9f     +LDD R25 , Y + 28 + 3
                 	__GETD2S 28
                +
000dea a1e8     +LDD R30 , Y + 32
000deb a1f9     +LDD R31 , Y + 32 + 1
000dec a16a     +LDD R22 , Y + 32 + 2
000ded a17b     +LDD R23 , Y + 32 + 3
                 	__GETD1S 32
000dee 940e 24ca 	CALL __SUBF12
000df0 01df      	MOVW R26,R30
000df1 01cb      	MOVW R24,R22
                +
000df2 89e8     +LDD R30 , Y + 16
000df3 89f9     +LDD R31 , Y + 16 + 1
000df4 896a     +LDD R22 , Y + 16 + 2
000df5 897b     +LDD R23 , Y + 16 + 3
                 	__GETD1S 16
000df6 940e 2497 	CALL __CDF1
000df8 940e 2521 	CALL __MULF12
000dfa 937f      	PUSH R23
000dfb 936f      	PUSH R22
000dfc 93ff      	PUSH R31
000dfd 93ef      	PUSH R30
                +
000dfe 8dac     +LDD R26 , Y + 28
000dff 8dbd     +LDD R27 , Y + 28 + 1
000e00 8d8e     +LDD R24 , Y + 28 + 2
000e01 8d9f     +LDD R25 , Y + 28 + 3
                 	__GETD2S 28
                +
000e02 8de8     +LDD R30 , Y + 24
000e03 8df9     +LDD R31 , Y + 24 + 1
000e04 8d6a     +LDD R22 , Y + 24 + 2
000e05 8d7b     +LDD R23 , Y + 24 + 3
                 	__GETD1S 24
000e06 940e 24ca 	CALL __SUBF12
000e08 91af      	POP  R26
000e09 91bf      	POP  R27
000e0a 918f      	POP  R24
000e0b 919f      	POP  R25
000e0c 940e 256f 	CALL __DIVF21
                +
000e0e 87e8     +STD Y + 8 , R30
000e0f 87f9     +STD Y + 8 + 1 , R31
000e10 876a     +STD Y + 8 + 2 , R22
000e11 877b     +STD Y + 8 + 3 , R23
                 	__PUTD1S 8
                 ; 0000 04B7 //added to add ambient value in table value
                 ; 0000 04B8 temp1 = temp1 + (*(tabletc+1) * (long)ambient_val /50);
000e12 89ec      	LDD  R30,Y+20
000e13 89fd      	LDD  R31,Y+20+1
000e14 81a2      	LDD  R26,Z+2
000e15 81b3      	LDD  R27,Z+3
000e16 01f6      	MOVW R30,R12
000e17 940e 25ca 	CALL __CWD1
000e19 2788      	CLR  R24
000e1a 2799      	CLR  R25
000e1b 940e 2601 	CALL __MULD12
000e1d 01df      	MOVW R26,R30
000e1e 01cb      	MOVW R24,R22
                +
000e1f e3e2     +LDI R30 , LOW ( 0x32 )
000e20 e0f0     +LDI R31 , HIGH ( 0x32 )
000e21 e060     +LDI R22 , BYTE3 ( 0x32 )
000e22 e070     +LDI R23 , BYTE4 ( 0x32 )
                 	__GETD1N 0x32
000e23 940e 2643 	CALL __DIVD21
                +
000e25 85a8     +LDD R26 , Y + 8
000e26 85b9     +LDD R27 , Y + 8 + 1
000e27 858a     +LDD R24 , Y + 8 + 2
000e28 859b     +LDD R25 , Y + 8 + 3
                 	__GETD2S 8
000e29 940e 2497 	CALL __CDF1
000e2b 940e 24d1 	CALL __ADDF12
                +
000e2d 87e8     +STD Y + 8 , R30
000e2e 87f9     +STD Y + 8 + 1 , R31
000e2f 876a     +STD Y + 8 + 2 , R22
000e30 877b     +STD Y + 8 + 3 , R23
                 	__PUTD1S 8
                 ; 0000 04B9 
                 ; 0000 04BA 
                 ; 0000 04BB 
                 ; 0000 04BC b = (unsigned int)temp1;
000e31 940e 245e 	CALL __CFD1U
000e33 01af      	MOVW R20,R30
                 ; 0000 04BD 
                 ; 0000 04BE if (b<0)
000e34 2355      	TST  R21
000e35 f42a      	BRPL _0xFC
                 ; 0000 04BF {
                 ; 0000 04C0 b = -b;
000e36 940e 25b4 	CALL __ANEGW1
000e38 01af      	MOVW R20,R30
                 ; 0000 04C1 nfl =1;
000e39 9468      	SET
000e3a c001      	RJMP _0x337
                 ; 0000 04C2 }
                 ; 0000 04C3 else
                 _0xFC:
                 ; 0000 04C4 {
                 ; 0000 04C5 nfl =0;
000e3b 94e8      	CLT
                 _0x337:
000e3c f8f0      	BLD  R15,0
                 ; 0000 04C6 }
                 ; 0000 04C7 for (count=0;count <= iter; count++)
                +
000e3d e020     +LDI R18 , LOW ( 0 )
000e3e e030     +LDI R19 , HIGH ( 0 )
                 	__GETWRN 18,19,0
                 _0xFF:
000e3f 89ee      	LDD  R30,Y+22
000e40 89ff      	LDD  R31,Y+22+1
000e41 17e2      	CP   R30,R18
000e42 07f3      	CPC  R31,R19
000e43 f0fc      	BRLT _0x100
                 ; 0000 04C8     {
                 ; 0000 04C9     if (b> *(tabletc+count) && b <= *(tabletc+count+1))
000e44 01f9      	MOVW R30,R18
000e45 89ac      	LDD  R26,Y+20
000e46 89bd      	LDD  R27,Y+20+1
000e47 0fee      	LSL  R30
000e48 1fff      	ROL  R31
000e49 0fae      	ADD  R26,R30
000e4a 1fbf      	ADC  R27,R31
000e4b 940e 2677 	CALL __GETW1P
000e4d 17e4      	CP   R30,R20
000e4e 07f5      	CPC  R31,R21
000e4f f468      	BRSH _0x102
000e50 01f9      	MOVW R30,R18
000e51 89ac      	LDD  R26,Y+20
000e52 89bd      	LDD  R27,Y+20+1
000e53 0fee      	LSL  R30
000e54 1fff      	ROL  R31
000e55 0fae      	ADD  R26,R30
000e56 1fbf      	ADC  R27,R31
000e57 9612      	ADIW R26,2
000e58 940e 2677 	CALL __GETW1P
000e5a 17e4      	CP   R30,R20
000e5b 07f5      	CPC  R31,R21
000e5c f408      	BRSH _0x103
                 _0x102:
000e5d c002      	RJMP _0x101
                 _0x103:
                 ; 0000 04CA         {
                 ; 0000 04CB         number = count;
000e5e 0189      	MOVW R16,R18
                 ; 0000 04CC         break;
000e5f c003      	RJMP _0x100
                 ; 0000 04CD         }
                 ; 0000 04CE     }
                 _0x101:
                +
000e60 5f2f     +SUBI R18 , LOW ( - 1 )
000e61 4f3f     +SBCI R19 , HIGH ( - 1 )
                 	__ADDWRN 18,19,1
000e62 cfdc      	RJMP _0xFF
                 _0x100:
                 ; 0000 04CF 
                 ; 0000 04D0 temp = (50 * (temp1 - *(tabletc+number))/( *(tabletc+number+1) - *(tabletc+number))) + ((long)number*50) ;
000e63 01f8      	MOVW R30,R16
000e64 89ac      	LDD  R26,Y+20
000e65 89bd      	LDD  R27,Y+20+1
000e66 0fee      	LSL  R30
000e67 1fff      	ROL  R31
000e68 0fae      	ADD  R26,R30
000e69 1fbf      	ADC  R27,R31
000e6a 940e 2677 	CALL __GETW1P
                +
000e6c 85a8     +LDD R26 , Y + 8
000e6d 85b9     +LDD R27 , Y + 8 + 1
000e6e 858a     +LDD R24 , Y + 8 + 2
000e6f 859b     +LDD R25 , Y + 8 + 3
                 	__GETD2S 8
000e70 2766      	CLR  R22
000e71 2777      	CLR  R23
000e72 940e 2497 	CALL __CDF1
000e74 940e 2693 	CALL __SWAPD12
000e76 940e 24ca 	CALL __SUBF12
                +
000e78 e0a0     +LDI R26 , LOW ( 0x42480000 )
000e79 e0b0     +LDI R27 , HIGH ( 0x42480000 )
000e7a e488     +LDI R24 , BYTE3 ( 0x42480000 )
000e7b e492     +LDI R25 , BYTE4 ( 0x42480000 )
                 	__GETD2N 0x42480000
000e7c 940e 2521 	CALL __MULF12
000e7e 937f      	PUSH R23
000e7f 936f      	PUSH R22
000e80 93ff      	PUSH R31
000e81 93ef      	PUSH R30
000e82 01f8      	MOVW R30,R16
000e83 89ac      	LDD  R26,Y+20
000e84 89bd      	LDD  R27,Y+20+1
000e85 0fee      	LSL  R30
000e86 1fff      	ROL  R31
000e87 0fae      	ADD  R26,R30
000e88 1fbf      	ADC  R27,R31
000e89 9612      	ADIW R26,2
000e8a 900d      	LD   R0,X+
000e8b 901c      	LD   R1,X
000e8c 01f8      	MOVW R30,R16
000e8d 89ac      	LDD  R26,Y+20
000e8e 89bd      	LDD  R27,Y+20+1
000e8f 0fee      	LSL  R30
000e90 1fff      	ROL  R31
000e91 0fae      	ADD  R26,R30
000e92 1fbf      	ADC  R27,R31
000e93 940e 2677 	CALL __GETW1P
000e95 01df      	MOVW R26,R30
000e96 01f0      	MOVW R30,R0
000e97 1bea      	SUB  R30,R26
000e98 0bfb      	SBC  R31,R27
000e99 91af      	POP  R26
000e9a 91bf      	POP  R27
000e9b 918f      	POP  R24
000e9c 919f      	POP  R25
000e9d 2766      	CLR  R22
000e9e 2777      	CLR  R23
000e9f 940e 2497 	CALL __CDF1
000ea1 940e 256f 	CALL __DIVF21
000ea3 937f      	PUSH R23
000ea4 936f      	PUSH R22
000ea5 93ff      	PUSH R31
000ea6 93ef      	PUSH R30
000ea7 01d8      	MOVW R26,R16
000ea8 940e 25cf 	CALL __CWD2
                +
000eaa e3e2     +LDI R30 , LOW ( 0x32 )
000eab e0f0     +LDI R31 , HIGH ( 0x32 )
000eac e060     +LDI R22 , BYTE3 ( 0x32 )
000ead e070     +LDI R23 , BYTE4 ( 0x32 )
                 	__GETD1N 0x32
000eae 940e 2601 	CALL __MULD12
000eb0 91af      	POP  R26
000eb1 91bf      	POP  R27
000eb2 918f      	POP  R24
000eb3 919f      	POP  R25
000eb4 940e 2497 	CALL __CDF1
000eb6 940e 24d1 	CALL __ADDF12
000eb8 01de      	MOVW R26,R28
000eb9 961c      	ADIW R26,12
000eba 940e 2460 	CALL __CFD1
000ebc 940e 267b 	CALL __PUTDP1
                 ; 0000 04D1 
                 ; 0000 04D2 
                 ; 0000 04D3 //temp = ((500*(temp1-(float)table_p[number]))/((float)table_p[number+1] - (float)table_p[number]))+ ((long)(number-4) * ...
                 ; 0000 04D4 true_value = (int) temp;
000ebe 85ec      	LDD  R30,Y+12
000ebf 85fd      	LDD  R31,Y+12+1
000ec0 83ee      	STD  Y+6,R30
000ec1 83ff      	STD  Y+6+1,R31
                 ; 0000 04D5 if (nfl) true_value = -true_value;
000ec2 fef0      	SBRS R15,0
000ec3 c006      	RJMP _0x104
000ec4 81ee      	LDD  R30,Y+6
000ec5 81ff      	LDD  R31,Y+6+1
000ec6 940e 25b4 	CALL __ANEGW1
000ec8 83ee      	STD  Y+6,R30
000ec9 83ff      	STD  Y+6+1,R31
                 ; 0000 04D6 
                 ; 0000 04D7 return (true_value);
                 _0x104:
000eca 81ee      	LDD  R30,Y+6
000ecb 81ff      	LDD  R31,Y+6+1
000ecc 940e 26d0 	CALL __LOADLOCR6
000ece 96a4      	ADIW R28,36
000ecf 90ff      	POP  R15
000ed0 9508      	RET
                 ; 0000 04D8 }
                 ; .FEND
                 ;
                 ;int linearise_volt(float a,float zero_tc, float span_tc,float rangehigh,float rangelow)
                 ; 0000 04DB {
                 _linearise_volt:
                 ; .FSTART _linearise_volt
                 ; 0000 04DC float b,c,result;
                 ; 0000 04DD 
                 ; 0000 04DE b= (a - zero_tc)*20000/(span_tc-zero_tc);     //scale to 0~20000
000ed1 940e 268e 	CALL __PUTPARD2
000ed3 972c      	SBIW R28,12
                 ;	a -> Y+28
                 ;	zero_tc -> Y+24
                 ;	span_tc -> Y+20
                 ;	rangehigh -> Y+16
                 ;	rangelow -> Y+12
                 ;	b -> Y+8
                 ;	c -> Y+4
                 ;	result -> Y+0
                +
000ed4 8da8     +LDD R26 , Y + 24
000ed5 8db9     +LDD R27 , Y + 24 + 1
000ed6 8d8a     +LDD R24 , Y + 24 + 2
000ed7 8d9b     +LDD R25 , Y + 24 + 3
                 	__GETD2S 24
                +
000ed8 8dec     +LDD R30 , Y + 28
000ed9 8dfd     +LDD R31 , Y + 28 + 1
000eda 8d6e     +LDD R22 , Y + 28 + 2
000edb 8d7f     +LDD R23 , Y + 28 + 3
                 	__GETD1S 28
000edc 940e 24ca 	CALL __SUBF12
                +
000ede e0a0     +LDI R26 , LOW ( 0x469C4000 )
000edf e4b0     +LDI R27 , HIGH ( 0x469C4000 )
000ee0 e98c     +LDI R24 , BYTE3 ( 0x469C4000 )
000ee1 e496     +LDI R25 , BYTE4 ( 0x469C4000 )
                 	__GETD2N 0x469C4000
000ee2 940e 2521 	CALL __MULF12
000ee4 937f      	PUSH R23
000ee5 936f      	PUSH R22
000ee6 93ff      	PUSH R31
000ee7 93ef      	PUSH R30
                +
000ee8 8da8     +LDD R26 , Y + 24
000ee9 8db9     +LDD R27 , Y + 24 + 1
000eea 8d8a     +LDD R24 , Y + 24 + 2
000eeb 8d9b     +LDD R25 , Y + 24 + 3
                 	__GETD2S 24
000eec c037      	RJMP _0x2060003
                 ; 0000 04DF c= rangehigh - rangelow;
                 ; 0000 04E0 result = (b * c /20000)+rangelow;
                 ; 0000 04E1 return (result);
                 ; 0000 04E2 }
                 ; .FEND
                 ;
                 ;int linearise_420(float a,float zero_tc, float span_tc,float rangehigh,float rangelow)
                 ; 0000 04E5 {
                 _linearise_420:
                 ; .FSTART _linearise_420
                 ; 0000 04E6 float b,c,result;
                 ; 0000 04E7 c = ((span_tc - zero_tc)/5) +zero_tc;   //scale offset to offset + 4ma adc
000eed 940e 268e 	CALL __PUTPARD2
000eef 972c      	SBIW R28,12
                 ;	a -> Y+28
                 ;	zero_tc -> Y+24
                 ;	span_tc -> Y+20
                 ;	rangehigh -> Y+16
                 ;	rangelow -> Y+12
                 ;	b -> Y+8
                 ;	c -> Y+4
                 ;	result -> Y+0
                +
000ef0 8da8     +LDD R26 , Y + 24
000ef1 8db9     +LDD R27 , Y + 24 + 1
000ef2 8d8a     +LDD R24 , Y + 24 + 2
000ef3 8d9b     +LDD R25 , Y + 24 + 3
                 	__GETD2S 24
                +
000ef4 89ec     +LDD R30 , Y + 20
000ef5 89fd     +LDD R31 , Y + 20 + 1
000ef6 896e     +LDD R22 , Y + 20 + 2
000ef7 897f     +LDD R23 , Y + 20 + 3
                 	__GETD1S 20
000ef8 940e 24ca 	CALL __SUBF12
000efa 01df      	MOVW R26,R30
000efb 01cb      	MOVW R24,R22
                +
000efc e0e0     +LDI R30 , LOW ( 0x40A00000 )
000efd e0f0     +LDI R31 , HIGH ( 0x40A00000 )
000efe ea60     +LDI R22 , BYTE3 ( 0x40A00000 )
000eff e470     +LDI R23 , BYTE4 ( 0x40A00000 )
                 	__GETD1N 0x40A00000
000f00 940e 256f 	CALL __DIVF21
                +
000f02 8da8     +LDD R26 , Y + 24
000f03 8db9     +LDD R27 , Y + 24 + 1
000f04 8d8a     +LDD R24 , Y + 24 + 2
000f05 8d9b     +LDD R25 , Y + 24 + 3
                 	__GETD2S 24
000f06 940e 24d1 	CALL __ADDF12
                +
000f08 83ec     +STD Y + 4 , R30
000f09 83fd     +STD Y + 4 + 1 , R31
000f0a 836e     +STD Y + 4 + 2 , R22
000f0b 837f     +STD Y + 4 + 3 , R23
                 	__PUTD1S 4
                 ; 0000 04E8 b= (a - c)*20000/(span_tc-c);     //scale to 0~20000
                +
000f0c 81ac     +LDD R26 , Y + 4
000f0d 81bd     +LDD R27 , Y + 4 + 1
000f0e 818e     +LDD R24 , Y + 4 + 2
000f0f 819f     +LDD R25 , Y + 4 + 3
                 	__GETD2S 4
                +
000f10 8dec     +LDD R30 , Y + 28
000f11 8dfd     +LDD R31 , Y + 28 + 1
000f12 8d6e     +LDD R22 , Y + 28 + 2
000f13 8d7f     +LDD R23 , Y + 28 + 3
                 	__GETD1S 28
000f14 940e 24ca 	CALL __SUBF12
                +
000f16 e0a0     +LDI R26 , LOW ( 0x469C4000 )
000f17 e4b0     +LDI R27 , HIGH ( 0x469C4000 )
000f18 e98c     +LDI R24 , BYTE3 ( 0x469C4000 )
000f19 e496     +LDI R25 , BYTE4 ( 0x469C4000 )
                 	__GETD2N 0x469C4000
000f1a 940e 2521 	CALL __MULF12
000f1c 937f      	PUSH R23
000f1d 936f      	PUSH R22
000f1e 93ff      	PUSH R31
000f1f 93ef      	PUSH R30
                +
000f20 81ac     +LDD R26 , Y + 4
000f21 81bd     +LDD R27 , Y + 4 + 1
000f22 818e     +LDD R24 , Y + 4 + 2
000f23 819f     +LDD R25 , Y + 4 + 3
                 	__GETD2S 4
                 _0x2060003:
                +
000f24 89ec     +LDD R30 , Y + 20
000f25 89fd     +LDD R31 , Y + 20 + 1
000f26 896e     +LDD R22 , Y + 20 + 2
000f27 897f     +LDD R23 , Y + 20 + 3
                 	__GETD1S 20
000f28 940e 24ca 	CALL __SUBF12
000f2a 91af      	POP  R26
000f2b 91bf      	POP  R27
000f2c 918f      	POP  R24
000f2d 919f      	POP  R25
000f2e 940e 256f 	CALL __DIVF21
                +
000f30 87e8     +STD Y + 8 , R30
000f31 87f9     +STD Y + 8 + 1 , R31
000f32 876a     +STD Y + 8 + 2 , R22
000f33 877b     +STD Y + 8 + 3 , R23
                 	__PUTD1S 8
                 ; 0000 04E9 c= rangehigh - rangelow;
                +
000f34 85ac     +LDD R26 , Y + 12
000f35 85bd     +LDD R27 , Y + 12 + 1
000f36 858e     +LDD R24 , Y + 12 + 2
000f37 859f     +LDD R25 , Y + 12 + 3
                 	__GETD2S 12
                +
000f38 89e8     +LDD R30 , Y + 16
000f39 89f9     +LDD R31 , Y + 16 + 1
000f3a 896a     +LDD R22 , Y + 16 + 2
000f3b 897b     +LDD R23 , Y + 16 + 3
                 	__GETD1S 16
000f3c 940e 24ca 	CALL __SUBF12
                +
000f3e 83ec     +STD Y + 4 , R30
000f3f 83fd     +STD Y + 4 + 1 , R31
000f40 836e     +STD Y + 4 + 2 , R22
000f41 837f     +STD Y + 4 + 3 , R23
                 	__PUTD1S 4
                 ; 0000 04EA result = (b * c /20000)+rangelow;
                +
000f42 85a8     +LDD R26 , Y + 8
000f43 85b9     +LDD R27 , Y + 8 + 1
000f44 858a     +LDD R24 , Y + 8 + 2
000f45 859b     +LDD R25 , Y + 8 + 3
                 	__GETD2S 8
000f46 940e 2521 	CALL __MULF12
000f48 01df      	MOVW R26,R30
000f49 01cb      	MOVW R24,R22
                +
000f4a e0e0     +LDI R30 , LOW ( 0x469C4000 )
000f4b e4f0     +LDI R31 , HIGH ( 0x469C4000 )
000f4c e96c     +LDI R22 , BYTE3 ( 0x469C4000 )
000f4d e476     +LDI R23 , BYTE4 ( 0x469C4000 )
                 	__GETD1N 0x469C4000
000f4e 940e 256f 	CALL __DIVF21
                +
000f50 85ac     +LDD R26 , Y + 12
000f51 85bd     +LDD R27 , Y + 12 + 1
000f52 858e     +LDD R24 , Y + 12 + 2
000f53 859f     +LDD R25 , Y + 12 + 3
                 	__GETD2S 12
000f54 940e 24d1 	CALL __ADDF12
000f56 940e 2684 	CALL __PUTD1S0
                 ; 0000 04EB return (result);
000f58 81e8      	LD   R30,Y
000f59 81f9      	LDD  R31,Y+1
000f5a 940e 2460 	CALL __CFD1
000f5c 96a0      	ADIW R28,32
000f5d 9508      	RET
                 ; 0000 04EC }
                 ; .FEND
                 ;
                 ;
                 ;void increment_value(int* value,int low_limit,int high_limit,short int power)
                 ; 0000 04F0 {
                 _increment_value:
                 ; .FSTART _increment_value
                 ; 0000 04F1 int a;
                 ; 0000 04F2 int b=1;
                 ; 0000 04F3 for (a=0;a<power;a++) b = b*10;
000f5e 93ba      	ST   -Y,R27
000f5f 93aa      	ST   -Y,R26
000f60 940e 26cb 	CALL __SAVELOCR4
                 ;	*value -> Y+10
                 ;	low_limit -> Y+8
                 ;	high_limit -> Y+6
                 ;	power -> Y+4
                 ;	a -> R16,R17
                 ;	b -> R18,R19
                +
000f62 e021     +LDI R18 , LOW ( 1 )
000f63 e030     +LDI R19 , HIGH ( 1 )
                 	__GETWRN 18,19,1
                +
000f64 e000     +LDI R16 , LOW ( 0 )
000f65 e010     +LDI R17 , HIGH ( 0 )
                 	__GETWRN 16,17,0
                 _0x106:
000f66 81ec      	LDD  R30,Y+4
000f67 81fd      	LDD  R31,Y+4+1
000f68 170e      	CP   R16,R30
000f69 071f      	CPC  R17,R31
000f6a f44c      	BRGE _0x107
000f6b 01f9      	MOVW R30,R18
000f6c e0aa      	LDI  R26,LOW(10)
000f6d e0b0      	LDI  R27,HIGH(10)
000f6e 940e 25fc 	CALL __MULW12
000f70 019f      	MOVW R18,R30
                +
000f71 5f0f     +SUBI R16 , LOW ( - 1 )
000f72 4f1f     +SBCI R17 , HIGH ( - 1 )
                 	__ADDWRN 16,17,1
000f73 cff2      	RJMP _0x106
                 _0x107:
                 ; 0000 04F4 *value = *value + b;
000f74 85aa      	LDD  R26,Y+10
000f75 85bb      	LDD  R27,Y+10+1
000f76 940e 2677 	CALL __GETW1P
000f78 0fe2      	ADD  R30,R18
000f79 1ff3      	ADC  R31,R19
000f7a 93ed      	ST   X+,R30
000f7b 93fc      	ST   X,R31
                 ; 0000 04F5 if (*value < low_limit) *value = low_limit;
000f7c 85aa      	LDD  R26,Y+10
000f7d 85bb      	LDD  R27,Y+10+1
000f7e 940e 2677 	CALL __GETW1P
000f80 01df      	MOVW R26,R30
000f81 85e8      	LDD  R30,Y+8
000f82 85f9      	LDD  R31,Y+8+1
000f83 17ae      	CP   R26,R30
000f84 07bf      	CPC  R27,R31
000f85 f424      	BRGE _0x108
000f86 85aa      	LDD  R26,Y+10
000f87 85bb      	LDD  R27,Y+10+1
000f88 93ed      	ST   X+,R30
000f89 93fc      	ST   X,R31
                 ; 0000 04F6 if (*value >= high_limit) *value = high_limit;
                 _0x108:
000f8a 85aa      	LDD  R26,Y+10
000f8b 85bb      	LDD  R27,Y+10+1
000f8c 940e 2677 	CALL __GETW1P
000f8e 01df      	MOVW R26,R30
000f8f 81ee      	LDD  R30,Y+6
000f90 81ff      	LDD  R31,Y+6+1
000f91 17ae      	CP   R26,R30
000f92 07bf      	CPC  R27,R31
000f93 f024      	BRLT _0x109
000f94 85aa      	LDD  R26,Y+10
000f95 85bb      	LDD  R27,Y+10+1
000f96 93ed      	ST   X+,R30
000f97 93fc      	ST   X,R31
                 ; 0000 04F7 }
                 _0x109:
000f98 c03a      	RJMP _0x2060002
                 ; .FEND
                 ;
                 ;void decrement_value(int* value,int low_limit,int high_limit,short int power)
                 ; 0000 04FA {
                 _decrement_value:
                 ; .FSTART _decrement_value
                 ; 0000 04FB int a;
                 ; 0000 04FC int b=1;
                 ; 0000 04FD for (a=0;a<power;a++) b = b*10;
000f99 93ba      	ST   -Y,R27
000f9a 93aa      	ST   -Y,R26
000f9b 940e 26cb 	CALL __SAVELOCR4
                 ;	*value -> Y+10
                 ;	low_limit -> Y+8
                 ;	high_limit -> Y+6
                 ;	power -> Y+4
                 ;	a -> R16,R17
                 ;	b -> R18,R19
                +
000f9d e021     +LDI R18 , LOW ( 1 )
000f9e e030     +LDI R19 , HIGH ( 1 )
                 	__GETWRN 18,19,1
                +
000f9f e000     +LDI R16 , LOW ( 0 )
000fa0 e010     +LDI R17 , HIGH ( 0 )
                 	__GETWRN 16,17,0
                 _0x10B:
000fa1 81ec      	LDD  R30,Y+4
000fa2 81fd      	LDD  R31,Y+4+1
000fa3 170e      	CP   R16,R30
000fa4 071f      	CPC  R17,R31
000fa5 f44c      	BRGE _0x10C
000fa6 01f9      	MOVW R30,R18
000fa7 e0aa      	LDI  R26,LOW(10)
000fa8 e0b0      	LDI  R27,HIGH(10)
000fa9 940e 25fc 	CALL __MULW12
000fab 019f      	MOVW R18,R30
                +
000fac 5f0f     +SUBI R16 , LOW ( - 1 )
000fad 4f1f     +SBCI R17 , HIGH ( - 1 )
                 	__ADDWRN 16,17,1
000fae cff2      	RJMP _0x10B
                 _0x10C:
                 ; 0000 04FE *value = *value- b;
000faf 85aa      	LDD  R26,Y+10
000fb0 85bb      	LDD  R27,Y+10+1
000fb1 940e 2677 	CALL __GETW1P
000fb3 1be2      	SUB  R30,R18
000fb4 0bf3      	SBC  R31,R19
000fb5 93ed      	ST   X+,R30
000fb6 93fc      	ST   X,R31
                 ; 0000 04FF if (*value < low_limit) *value = low_limit;
000fb7 85aa      	LDD  R26,Y+10
000fb8 85bb      	LDD  R27,Y+10+1
000fb9 940e 2677 	CALL __GETW1P
000fbb 01df      	MOVW R26,R30
000fbc 85e8      	LDD  R30,Y+8
000fbd 85f9      	LDD  R31,Y+8+1
000fbe 17ae      	CP   R26,R30
000fbf 07bf      	CPC  R27,R31
000fc0 f424      	BRGE _0x10D
000fc1 85aa      	LDD  R26,Y+10
000fc2 85bb      	LDD  R27,Y+10+1
000fc3 93ed      	ST   X+,R30
000fc4 93fc      	ST   X,R31
                 ; 0000 0500 if (*value >= high_limit) *value = high_limit;
                 _0x10D:
000fc5 85aa      	LDD  R26,Y+10
000fc6 85bb      	LDD  R27,Y+10+1
000fc7 940e 2677 	CALL __GETW1P
000fc9 01df      	MOVW R26,R30
000fca 81ee      	LDD  R30,Y+6
000fcb 81ff      	LDD  R31,Y+6+1
000fcc 17ae      	CP   R26,R30
000fcd 07bf      	CPC  R27,R31
000fce f024      	BRLT _0x10E
000fcf 85aa      	LDD  R26,Y+10
000fd0 85bb      	LDD  R27,Y+10+1
000fd1 93ed      	ST   X+,R30
000fd2 93fc      	ST   X,R31
                 ; 0000 0501 }
                 _0x10E:
                 _0x2060002:
000fd3 940e 26d2 	CALL __LOADLOCR4
000fd5 962c      	ADIW R28,12
000fd6 9508      	RET
                 ; .FEND
                 ;
                 ;
                 ;void escape_menu(void)
                 ; 0000 0505 {
                 _escape_menu:
                 ; .FSTART _escape_menu
                 ; 0000 0506 menu_fl =0;
000fd7 94e8      	CLT
000fd8 f834      	BLD  R3,4
                 ; 0000 0507 level=0;
000fd9 e0e0      	LDI  R30,LOW(0)
000fda 93e0 02bf 	STS  _level,R30
000fdc 93e0 02c0 	STS  _level+1,R30
                 ; 0000 0508 item1=item2=0;
000fde e0e0      	LDI  R30,LOW(0)
000fdf e0f0      	LDI  R31,HIGH(0)
000fe0 93e0 02bd 	STS  _item2,R30
000fe2 93f0 02be 	STS  _item2+1,R31
000fe4 93e0 02bb 	STS  _item1,R30
000fe6 93f0 02bc 	STS  _item1+1,R31
                 ; 0000 0509 blinking=0;
000fe8 f824      	BLD  R2,4
                 ; 0000 050A blink_digit=0;
000fe9 93e0 02b1 	STS  _blink_digit,R30
000feb 93e0 02b2 	STS  _blink_digit+1,R30
                 ; 0000 050B blink_flag =0;
000fed f823      	BLD  R2,3
                 ; 0000 050C 
                 ; 0000 050D }
000fee 9508      	RET
                 ; .FEND
                 ;
                 ;
                 ;void display_put(int up_display, int low_display,int status,short int* message1,short int* message2)
                 ; 0000 0511 {
                 _display_put:
                 ; .FSTART _display_put
                 ; 0000 0512 if (status ==0)
000fef 93ba      	ST   -Y,R27
000ff0 93aa      	ST   -Y,R26
                 ;	up_display -> Y+8
                 ;	low_display -> Y+6
                 ;	status -> Y+4
                 ;	*message1 -> Y+2
                 ;	*message2 -> Y+0
000ff1 81ec      	LDD  R30,Y+4
000ff2 81fd      	LDD  R31,Y+4+1
000ff3 9730      	SBIW R30,0
000ff4 f009      	BREQ PC+2
000ff5 c0e9      	RJMP _0x10F
                 ; 0000 0513         {
                 ; 0000 0514         if (up_display <0 && up_display > -1000)
000ff6 85a9      	LDD  R26,Y+9
000ff7 23aa      	TST  R26
000ff8 f43a      	BRPL _0x111
000ff9 85a8      	LDD  R26,Y+8
000ffa 85b9      	LDD  R27,Y+8+1
000ffb e1e8      	LDI  R30,LOW(64536)
000ffc effc      	LDI  R31,HIGH(64536)
000ffd 17ea      	CP   R30,R26
000ffe 07fb      	CPC  R31,R27
000fff f00c      	BRLT _0x112
                 _0x111:
001000 c015      	RJMP _0x110
                 _0x112:
                 ; 0000 0515         {
                 ; 0000 0516         up_display = -up_display;
001001 85e8      	LDD  R30,Y+8
001002 85f9      	LDD  R31,Y+8+1
001003 940e 25b4 	CALL __ANEGW1
001005 87e8      	STD  Y+8,R30
001006 87f9      	STD  Y+8+1,R31
                 ; 0000 0517         up_display%=1000;
001007 85a8      	LDD  R26,Y+8
001008 85b9      	LDD  R27,Y+8+1
001009 eee8      	LDI  R30,LOW(1000)
00100a e0f3      	LDI  R31,HIGH(1000)
00100b 940e 2648 	CALL __MODW21
00100d 87e8      	STD  Y+8,R30
00100e 87f9      	STD  Y+8+1,R31
                 ; 0000 0518         display_buffer[0]= 30;
00100f e1ee      	LDI  R30,LOW(30)
001010 e0f0      	LDI  R31,HIGH(30)
001011 93e0 0160 	STS  _display_buffer,R30
001013 93f0 0161 	STS  _display_buffer+1,R31
                 ; 0000 0519         }
                 ; 0000 051A         else if (up_display <=-1000)
001015 c02e      	RJMP _0x113
                 _0x110:
001016 85a8      	LDD  R26,Y+8
001017 85b9      	LDD  R27,Y+8+1
001018 e1e8      	LDI  R30,LOW(64536)
001019 effc      	LDI  R31,HIGH(64536)
00101a 17ea      	CP   R30,R26
00101b 07fb      	CPC  R31,R27
00101c f0ac      	BRLT _0x114
                 ; 0000 051B         {
                 ; 0000 051C         up_display = -up_display;
00101d 85e8      	LDD  R30,Y+8
00101e 85f9      	LDD  R31,Y+8+1
00101f 940e 25b4 	CALL __ANEGW1
001021 87e8      	STD  Y+8,R30
001022 87f9      	STD  Y+8+1,R31
                 ; 0000 051D         up_display%=1000;
001023 85a8      	LDD  R26,Y+8
001024 85b9      	LDD  R27,Y+8+1
001025 eee8      	LDI  R30,LOW(1000)
001026 e0f3      	LDI  R31,HIGH(1000)
001027 940e 2648 	CALL __MODW21
001029 87e8      	STD  Y+8,R30
00102a 87f9      	STD  Y+8+1,R31
                 ; 0000 051E         display_buffer[0]= 35;
00102b e2e3      	LDI  R30,LOW(35)
00102c e0f0      	LDI  R31,HIGH(35)
00102d 93e0 0160 	STS  _display_buffer,R30
00102f 93f0 0161 	STS  _display_buffer+1,R31
                 ; 0000 051F 
                 ; 0000 0520         }
                 ; 0000 0521         else
001031 c012      	RJMP _0x115
                 _0x114:
                 ; 0000 0522         {
                 ; 0000 0523         display_buffer[0]=up_display/1000;
001032 85a8      	LDD  R26,Y+8
001033 85b9      	LDD  R27,Y+8+1
001034 eee8      	LDI  R30,LOW(1000)
001035 e0f3      	LDI  R31,HIGH(1000)
001036 940e 2619 	CALL __DIVW21
001038 93e0 0160 	STS  _display_buffer,R30
00103a 93f0 0161 	STS  _display_buffer+1,R31
                 ; 0000 0524         up_display%=1000;
00103c 85a8      	LDD  R26,Y+8
00103d 85b9      	LDD  R27,Y+8+1
00103e eee8      	LDI  R30,LOW(1000)
00103f e0f3      	LDI  R31,HIGH(1000)
001040 940e 2648 	CALL __MODW21
001042 87e8      	STD  Y+8,R30
001043 87f9      	STD  Y+8+1,R31
                 ; 0000 0525         }
                 _0x115:
                 _0x113:
                 ; 0000 0526         display_buffer[1]=up_display/100;
001044 85a8      	LDD  R26,Y+8
001045 85b9      	LDD  R27,Y+8+1
001046 e6e4      	LDI  R30,LOW(100)
001047 e0f0      	LDI  R31,HIGH(100)
001048 940e 2619 	CALL __DIVW21
                +
00104a 93e0 0162+STS _display_buffer + ( 2 ) , R30
00104c 93f0 0163+STS _display_buffer + ( 2 ) + 1 , R31
                 	__PUTW1MN _display_buffer,2
                 ; 0000 0527         up_display%=100;
00104e 85a8      	LDD  R26,Y+8
00104f 85b9      	LDD  R27,Y+8+1
001050 e6e4      	LDI  R30,LOW(100)
001051 e0f0      	LDI  R31,HIGH(100)
001052 940e 2648 	CALL __MODW21
001054 87e8      	STD  Y+8,R30
001055 87f9      	STD  Y+8+1,R31
                 ; 0000 0528         display_buffer[2]=up_display/10;
001056 85a8      	LDD  R26,Y+8
001057 85b9      	LDD  R27,Y+8+1
001058 e0ea      	LDI  R30,LOW(10)
001059 e0f0      	LDI  R31,HIGH(10)
00105a 940e 2619 	CALL __DIVW21
                +
00105c 93e0 0164+STS _display_buffer + ( 4 ) , R30
00105e 93f0 0165+STS _display_buffer + ( 4 ) + 1 , R31
                 	__PUTW1MN _display_buffer,4
                 ; 0000 0529         up_display%=10;
001060 85a8      	LDD  R26,Y+8
001061 85b9      	LDD  R27,Y+8+1
001062 e0ea      	LDI  R30,LOW(10)
001063 e0f0      	LDI  R31,HIGH(10)
001064 940e 2648 	CALL __MODW21
001066 87e8      	STD  Y+8,R30
001067 87f9      	STD  Y+8+1,R31
                 ; 0000 052A         display_buffer[3]=up_display;
                +
001068 93e0 0166+STS _display_buffer + ( 6 ) , R30
00106a 93f0 0167+STS _display_buffer + ( 6 ) + 1 , R31
                 	__PUTW1MN _display_buffer,6
                 ; 0000 052B 
                 ; 0000 052C         if (low_display <0 && low_display > -1000)
00106c 81af      	LDD  R26,Y+7
00106d 23aa      	TST  R26
00106e f43a      	BRPL _0x117
00106f 81ae      	LDD  R26,Y+6
001070 81bf      	LDD  R27,Y+6+1
001071 e1e8      	LDI  R30,LOW(64536)
001072 effc      	LDI  R31,HIGH(64536)
001073 17ea      	CP   R30,R26
001074 07fb      	CPC  R31,R27
001075 f00c      	BRLT _0x118
                 _0x117:
001076 c015      	RJMP _0x116
                 _0x118:
                 ; 0000 052D         {
                 ; 0000 052E         low_display = -low_display;
001077 81ee      	LDD  R30,Y+6
001078 81ff      	LDD  R31,Y+6+1
001079 940e 25b4 	CALL __ANEGW1
00107b 83ee      	STD  Y+6,R30
00107c 83ff      	STD  Y+6+1,R31
                 ; 0000 052F         low_display%=1000;
00107d 81ae      	LDD  R26,Y+6
00107e 81bf      	LDD  R27,Y+6+1
00107f eee8      	LDI  R30,LOW(1000)
001080 e0f3      	LDI  R31,HIGH(1000)
001081 940e 2648 	CALL __MODW21
001083 83ee      	STD  Y+6,R30
001084 83ff      	STD  Y+6+1,R31
                 ; 0000 0530         display_buffer[4]= 30;
                +
001085 e6e8     +LDI R30 , LOW ( _display_buffer + ( 8 ) )
001086 e0f1     +LDI R31 , HIGH ( _display_buffer + ( 8 ) )
                 	__POINTW1MN _display_buffer,8
001087 e1ae      	LDI  R26,LOW(30)
001088 e0b0      	LDI  R27,HIGH(30)
001089 83a0      	STD  Z+0,R26
00108a 83b1      	STD  Z+1,R27
                 ; 0000 0531         }
                 ; 0000 0532         else if (low_display <=-1000)
00108b c02e      	RJMP _0x119
                 _0x116:
00108c 81ae      	LDD  R26,Y+6
00108d 81bf      	LDD  R27,Y+6+1
00108e e1e8      	LDI  R30,LOW(64536)
00108f effc      	LDI  R31,HIGH(64536)
001090 17ea      	CP   R30,R26
001091 07fb      	CPC  R31,R27
001092 f0ac      	BRLT _0x11A
                 ; 0000 0533         {
                 ; 0000 0534         low_display = -low_display;
001093 81ee      	LDD  R30,Y+6
001094 81ff      	LDD  R31,Y+6+1
001095 940e 25b4 	CALL __ANEGW1
001097 83ee      	STD  Y+6,R30
001098 83ff      	STD  Y+6+1,R31
                 ; 0000 0535         low_display%=1000;
001099 81ae      	LDD  R26,Y+6
00109a 81bf      	LDD  R27,Y+6+1
00109b eee8      	LDI  R30,LOW(1000)
00109c e0f3      	LDI  R31,HIGH(1000)
00109d 940e 2648 	CALL __MODW21
00109f 83ee      	STD  Y+6,R30
0010a0 83ff      	STD  Y+6+1,R31
                 ; 0000 0536         display_buffer[0]= 35;
0010a1 e2e3      	LDI  R30,LOW(35)
0010a2 e0f0      	LDI  R31,HIGH(35)
0010a3 93e0 0160 	STS  _display_buffer,R30
0010a5 93f0 0161 	STS  _display_buffer+1,R31
                 ; 0000 0537 
                 ; 0000 0538         }
                 ; 0000 0539         else
0010a7 c012      	RJMP _0x11B
                 _0x11A:
                 ; 0000 053A         {
                 ; 0000 053B         display_buffer[4]=low_display/1000;
0010a8 81ae      	LDD  R26,Y+6
0010a9 81bf      	LDD  R27,Y+6+1
0010aa eee8      	LDI  R30,LOW(1000)
0010ab e0f3      	LDI  R31,HIGH(1000)
0010ac 940e 2619 	CALL __DIVW21
                +
0010ae 93e0 0168+STS _display_buffer + ( 8 ) , R30
0010b0 93f0 0169+STS _display_buffer + ( 8 ) + 1 , R31
                 	__PUTW1MN _display_buffer,8
                 ; 0000 053C         low_display%=1000;
0010b2 81ae      	LDD  R26,Y+6
0010b3 81bf      	LDD  R27,Y+6+1
0010b4 eee8      	LDI  R30,LOW(1000)
0010b5 e0f3      	LDI  R31,HIGH(1000)
0010b6 940e 2648 	CALL __MODW21
0010b8 83ee      	STD  Y+6,R30
0010b9 83ff      	STD  Y+6+1,R31
                 ; 0000 053D         }
                 _0x11B:
                 _0x119:
                 ; 0000 053E         display_buffer[5]=low_display/100;
0010ba 81ae      	LDD  R26,Y+6
0010bb 81bf      	LDD  R27,Y+6+1
0010bc e6e4      	LDI  R30,LOW(100)
0010bd e0f0      	LDI  R31,HIGH(100)
0010be 940e 2619 	CALL __DIVW21
                +
0010c0 93e0 016a+STS _display_buffer + ( 10 ) , R30
0010c2 93f0 016b+STS _display_buffer + ( 10 ) + 1 , R31
                 	__PUTW1MN _display_buffer,10
                 ; 0000 053F         low_display%=100;
0010c4 81ae      	LDD  R26,Y+6
0010c5 81bf      	LDD  R27,Y+6+1
0010c6 e6e4      	LDI  R30,LOW(100)
0010c7 e0f0      	LDI  R31,HIGH(100)
0010c8 940e 2648 	CALL __MODW21
0010ca 83ee      	STD  Y+6,R30
0010cb 83ff      	STD  Y+6+1,R31
                 ; 0000 0540         display_buffer[6]=low_display/10;
0010cc 81ae      	LDD  R26,Y+6
0010cd 81bf      	LDD  R27,Y+6+1
0010ce e0ea      	LDI  R30,LOW(10)
0010cf e0f0      	LDI  R31,HIGH(10)
0010d0 940e 2619 	CALL __DIVW21
                +
0010d2 93e0 016c+STS _display_buffer + ( 12 ) , R30
0010d4 93f0 016d+STS _display_buffer + ( 12 ) + 1 , R31
                 	__PUTW1MN _display_buffer,12
                 ; 0000 0541         low_display%=10;
0010d6 81ae      	LDD  R26,Y+6
0010d7 81bf      	LDD  R27,Y+6+1
0010d8 e0ea      	LDI  R30,LOW(10)
0010d9 e0f0      	LDI  R31,HIGH(10)
0010da 940e 2648 	CALL __MODW21
0010dc 83ee      	STD  Y+6,R30
0010dd 83ff      	STD  Y+6+1,R31
                 ; 0000 0542         display_buffer[7]=low_display;
0010de c106      	RJMP _0x338
                 ; 0000 0543         }
                 ; 0000 0544 else if (status ==1)
                 _0x10F:
0010df 81ac      	LDD  R26,Y+4
0010e0 81bd      	LDD  R27,Y+4+1
0010e1 9711      	SBIW R26,1
0010e2 f009      	BREQ PC+2
0010e3 c08a      	RJMP _0x11D
                 ; 0000 0545         {
                 ; 0000 0546         message1 = message1 + (up_display *4);
0010e4 85e8      	LDD  R30,Y+8
0010e5 85f9      	LDD  R31,Y+8+1
0010e6 940e 25c0 	CALL __LSLW2
0010e8 81aa      	LDD  R26,Y+2
0010e9 81bb      	LDD  R27,Y+2+1
0010ea 0fee      	LSL  R30
0010eb 1fff      	ROL  R31
0010ec 0fea      	ADD  R30,R26
0010ed 1ffb      	ADC  R31,R27
0010ee 83ea      	STD  Y+2,R30
0010ef 83fb      	STD  Y+2+1,R31
                 ; 0000 0547         display_buffer[0]=*message1;
0010f0 81aa      	LDD  R26,Y+2
0010f1 81bb      	LDD  R27,Y+2+1
0010f2 940e 2677 	CALL __GETW1P
0010f4 93e0 0160 	STS  _display_buffer,R30
0010f6 93f0 0161 	STS  _display_buffer+1,R31
                 ; 0000 0548         message1++;
0010f8 81ea      	LDD  R30,Y+2
0010f9 81fb      	LDD  R31,Y+2+1
0010fa 9632      	ADIW R30,2
0010fb 83ea      	STD  Y+2,R30
0010fc 83fb      	STD  Y+2+1,R31
                 ; 0000 0549         display_buffer[1]=*message1;
0010fd 81aa      	LDD  R26,Y+2
0010fe 81bb      	LDD  R27,Y+2+1
0010ff 940e 2677 	CALL __GETW1P
                +
001101 93e0 0162+STS _display_buffer + ( 2 ) , R30
001103 93f0 0163+STS _display_buffer + ( 2 ) + 1 , R31
                 	__PUTW1MN _display_buffer,2
                 ; 0000 054A         message1++;
001105 81ea      	LDD  R30,Y+2
001106 81fb      	LDD  R31,Y+2+1
001107 9632      	ADIW R30,2
001108 83ea      	STD  Y+2,R30
001109 83fb      	STD  Y+2+1,R31
                 ; 0000 054B         display_buffer[2]=*message1;
00110a 81aa      	LDD  R26,Y+2
00110b 81bb      	LDD  R27,Y+2+1
00110c 940e 2677 	CALL __GETW1P
                +
00110e 93e0 0164+STS _display_buffer + ( 4 ) , R30
001110 93f0 0165+STS _display_buffer + ( 4 ) + 1 , R31
                 	__PUTW1MN _display_buffer,4
                 ; 0000 054C         message1++;
001112 81ea      	LDD  R30,Y+2
001113 81fb      	LDD  R31,Y+2+1
001114 9632      	ADIW R30,2
001115 83ea      	STD  Y+2,R30
001116 83fb      	STD  Y+2+1,R31
                 ; 0000 054D         display_buffer[3]=*message1;
001117 81aa      	LDD  R26,Y+2
001118 81bb      	LDD  R27,Y+2+1
001119 940e 2677 	CALL __GETW1P
                +
00111b 93e0 0166+STS _display_buffer + ( 6 ) , R30
00111d 93f0 0167+STS _display_buffer + ( 6 ) + 1 , R31
                 	__PUTW1MN _display_buffer,6
                 ; 0000 054E         if (low_display <0)
00111f 81af      	LDD  R26,Y+7
001120 23aa      	TST  R26
001121 f4aa      	BRPL _0x11E
                 ; 0000 054F         {
                 ; 0000 0550         low_display = -low_display;
001122 81ee      	LDD  R30,Y+6
001123 81ff      	LDD  R31,Y+6+1
001124 940e 25b4 	CALL __ANEGW1
001126 83ee      	STD  Y+6,R30
001127 83ff      	STD  Y+6+1,R31
                 ; 0000 0551         low_display%=1000;
001128 81ae      	LDD  R26,Y+6
001129 81bf      	LDD  R27,Y+6+1
00112a eee8      	LDI  R30,LOW(1000)
00112b e0f3      	LDI  R31,HIGH(1000)
00112c 940e 2648 	CALL __MODW21
00112e 83ee      	STD  Y+6,R30
00112f 83ff      	STD  Y+6+1,R31
                 ; 0000 0552         display_buffer[4]= 30;
                +
001130 e6e8     +LDI R30 , LOW ( _display_buffer + ( 8 ) )
001131 e0f1     +LDI R31 , HIGH ( _display_buffer + ( 8 ) )
                 	__POINTW1MN _display_buffer,8
001132 e1ae      	LDI  R26,LOW(30)
001133 e0b0      	LDI  R27,HIGH(30)
001134 83a0      	STD  Z+0,R26
001135 83b1      	STD  Z+1,R27
                 ; 0000 0553         }
                 ; 0000 0554         else
001136 c012      	RJMP _0x11F
                 _0x11E:
                 ; 0000 0555         {
                 ; 0000 0556         display_buffer[4]=low_display/1000;
001137 81ae      	LDD  R26,Y+6
001138 81bf      	LDD  R27,Y+6+1
001139 eee8      	LDI  R30,LOW(1000)
00113a e0f3      	LDI  R31,HIGH(1000)
00113b 940e 2619 	CALL __DIVW21
                +
00113d 93e0 0168+STS _display_buffer + ( 8 ) , R30
00113f 93f0 0169+STS _display_buffer + ( 8 ) + 1 , R31
                 	__PUTW1MN _display_buffer,8
                 ; 0000 0557         low_display%=1000;
001141 81ae      	LDD  R26,Y+6
001142 81bf      	LDD  R27,Y+6+1
001143 eee8      	LDI  R30,LOW(1000)
001144 e0f3      	LDI  R31,HIGH(1000)
001145 940e 2648 	CALL __MODW21
001147 83ee      	STD  Y+6,R30
001148 83ff      	STD  Y+6+1,R31
                 ; 0000 0558         }        display_buffer[5]=low_display/100;
                 _0x11F:
001149 81ae      	LDD  R26,Y+6
00114a 81bf      	LDD  R27,Y+6+1
00114b e6e4      	LDI  R30,LOW(100)
00114c e0f0      	LDI  R31,HIGH(100)
00114d 940e 2619 	CALL __DIVW21
                +
00114f 93e0 016a+STS _display_buffer + ( 10 ) , R30
001151 93f0 016b+STS _display_buffer + ( 10 ) + 1 , R31
                 	__PUTW1MN _display_buffer,10
                 ; 0000 0559         low_display%=100;
001153 81ae      	LDD  R26,Y+6
001154 81bf      	LDD  R27,Y+6+1
001155 e6e4      	LDI  R30,LOW(100)
001156 e0f0      	LDI  R31,HIGH(100)
001157 940e 2648 	CALL __MODW21
001159 83ee      	STD  Y+6,R30
00115a 83ff      	STD  Y+6+1,R31
                 ; 0000 055A         display_buffer[6]=low_display/10;
00115b 81ae      	LDD  R26,Y+6
00115c 81bf      	LDD  R27,Y+6+1
00115d e0ea      	LDI  R30,LOW(10)
00115e e0f0      	LDI  R31,HIGH(10)
00115f 940e 2619 	CALL __DIVW21
                +
001161 93e0 016c+STS _display_buffer + ( 12 ) , R30
001163 93f0 016d+STS _display_buffer + ( 12 ) + 1 , R31
                 	__PUTW1MN _display_buffer,12
                 ; 0000 055B         low_display%=10;
001165 81ae      	LDD  R26,Y+6
001166 81bf      	LDD  R27,Y+6+1
001167 e0ea      	LDI  R30,LOW(10)
001168 e0f0      	LDI  R31,HIGH(10)
001169 940e 2648 	CALL __MODW21
00116b 83ee      	STD  Y+6,R30
00116c 83ff      	STD  Y+6+1,R31
                 ; 0000 055C         display_buffer[7]=low_display;
00116d c077      	RJMP _0x338
                 ; 0000 055D         }
                 ; 0000 055E else if (status ==2)
                 _0x11D:
00116e 81ac      	LDD  R26,Y+4
00116f 81bd      	LDD  R27,Y+4+1
001170 9712      	SBIW R26,2
001171 f009      	BREQ PC+2
001172 c076      	RJMP _0x121
                 ; 0000 055F         {
                 ; 0000 0560         message1 = message1 + (up_display *4);
001173 85e8      	LDD  R30,Y+8
001174 85f9      	LDD  R31,Y+8+1
001175 940e 25c0 	CALL __LSLW2
001177 81aa      	LDD  R26,Y+2
001178 81bb      	LDD  R27,Y+2+1
001179 0fee      	LSL  R30
00117a 1fff      	ROL  R31
00117b 0fea      	ADD  R30,R26
00117c 1ffb      	ADC  R31,R27
00117d 83ea      	STD  Y+2,R30
00117e 83fb      	STD  Y+2+1,R31
                 ; 0000 0561         display_buffer[0]=*message1;
00117f 81aa      	LDD  R26,Y+2
001180 81bb      	LDD  R27,Y+2+1
001181 940e 2677 	CALL __GETW1P
001183 93e0 0160 	STS  _display_buffer,R30
001185 93f0 0161 	STS  _display_buffer+1,R31
                 ; 0000 0562         message1++;
001187 81ea      	LDD  R30,Y+2
001188 81fb      	LDD  R31,Y+2+1
001189 9632      	ADIW R30,2
00118a 83ea      	STD  Y+2,R30
00118b 83fb      	STD  Y+2+1,R31
                 ; 0000 0563         display_buffer[1]=*message1;
00118c 81aa      	LDD  R26,Y+2
00118d 81bb      	LDD  R27,Y+2+1
00118e 940e 2677 	CALL __GETW1P
                +
001190 93e0 0162+STS _display_buffer + ( 2 ) , R30
001192 93f0 0163+STS _display_buffer + ( 2 ) + 1 , R31
                 	__PUTW1MN _display_buffer,2
                 ; 0000 0564         message1++;
001194 81ea      	LDD  R30,Y+2
001195 81fb      	LDD  R31,Y+2+1
001196 9632      	ADIW R30,2
001197 83ea      	STD  Y+2,R30
001198 83fb      	STD  Y+2+1,R31
                 ; 0000 0565         display_buffer[2]=*message1;
001199 81aa      	LDD  R26,Y+2
00119a 81bb      	LDD  R27,Y+2+1
00119b 940e 2677 	CALL __GETW1P
                +
00119d 93e0 0164+STS _display_buffer + ( 4 ) , R30
00119f 93f0 0165+STS _display_buffer + ( 4 ) + 1 , R31
                 	__PUTW1MN _display_buffer,4
                 ; 0000 0566         message1++;
0011a1 81ea      	LDD  R30,Y+2
0011a2 81fb      	LDD  R31,Y+2+1
0011a3 9632      	ADIW R30,2
0011a4 83ea      	STD  Y+2,R30
0011a5 83fb      	STD  Y+2+1,R31
                 ; 0000 0567         display_buffer[3]=*message1;
0011a6 81aa      	LDD  R26,Y+2
0011a7 81bb      	LDD  R27,Y+2+1
0011a8 940e 2677 	CALL __GETW1P
                +
0011aa 93e0 0166+STS _display_buffer + ( 6 ) , R30
0011ac 93f0 0167+STS _display_buffer + ( 6 ) + 1 , R31
                 	__PUTW1MN _display_buffer,6
                 ; 0000 0568         message2 = message2 + (low_display * 4);
0011ae 81ee      	LDD  R30,Y+6
0011af 81ff      	LDD  R31,Y+6+1
0011b0 940e 25c0 	CALL __LSLW2
0011b2 81a8      	LD   R26,Y
0011b3 81b9      	LDD  R27,Y+1
0011b4 0fee      	LSL  R30
0011b5 1fff      	ROL  R31
0011b6 0fea      	ADD  R30,R26
0011b7 1ffb      	ADC  R31,R27
0011b8 83e8      	ST   Y,R30
0011b9 83f9      	STD  Y+1,R31
                 ; 0000 0569         display_buffer[4]=*message2;
0011ba 81a8      	LD   R26,Y
0011bb 81b9      	LDD  R27,Y+1
0011bc 940e 2677 	CALL __GETW1P
                +
0011be 93e0 0168+STS _display_buffer + ( 8 ) , R30
0011c0 93f0 0169+STS _display_buffer + ( 8 ) + 1 , R31
                 	__PUTW1MN _display_buffer,8
                 ; 0000 056A         message2++;
0011c2 81e8      	LD   R30,Y
0011c3 81f9      	LDD  R31,Y+1
0011c4 9632      	ADIW R30,2
0011c5 83e8      	ST   Y,R30
0011c6 83f9      	STD  Y+1,R31
                 ; 0000 056B         display_buffer[5]=*message2;
0011c7 81a8      	LD   R26,Y
0011c8 81b9      	LDD  R27,Y+1
0011c9 940e 2677 	CALL __GETW1P
                +
0011cb 93e0 016a+STS _display_buffer + ( 10 ) , R30
0011cd 93f0 016b+STS _display_buffer + ( 10 ) + 1 , R31
                 	__PUTW1MN _display_buffer,10
                 ; 0000 056C         message2++;
0011cf 81e8      	LD   R30,Y
0011d0 81f9      	LDD  R31,Y+1
0011d1 9632      	ADIW R30,2
0011d2 83e8      	ST   Y,R30
0011d3 83f9      	STD  Y+1,R31
                 ; 0000 056D         display_buffer[6]=*message2;
0011d4 81a8      	LD   R26,Y
0011d5 81b9      	LDD  R27,Y+1
0011d6 940e 2677 	CALL __GETW1P
                +
0011d8 93e0 016c+STS _display_buffer + ( 12 ) , R30
0011da 93f0 016d+STS _display_buffer + ( 12 ) + 1 , R31
                 	__PUTW1MN _display_buffer,12
                 ; 0000 056E         message2++;
0011dc 81e8      	LD   R30,Y
0011dd 81f9      	LDD  R31,Y+1
0011de 9632      	ADIW R30,2
0011df 83e8      	ST   Y,R30
0011e0 83f9      	STD  Y+1,R31
                 ; 0000 056F         display_buffer[7]=*message2;
0011e1 81a8      	LD   R26,Y
0011e2 81b9      	LDD  R27,Y+1
0011e3 940e 2677 	CALL __GETW1P
                 _0x338:
                +
0011e5 93e0 016e+STS _display_buffer + ( 14 ) , R30
0011e7 93f0 016f+STS _display_buffer + ( 14 ) + 1 , R31
                 	__PUTW1MN _display_buffer,14
                 ; 0000 0570         }
                 ; 0000 0571 /*
                 ; 0000 0572 if (mode ==9 && open_sensor)
                 ; 0000 0573         {
                 ; 0000 0574         display_buffer[0] = 1;
                 ; 0000 0575         display_buffer[1] = 33;
                 ; 0000 0576         display_buffer[2] = 33;
                 ; 0000 0577         display_buffer[3] = 33;
                 ; 0000 0578         }
                 ; 0000 0579 if (mode ==9 && neg_fl)
                 ; 0000 057A         {
                 ; 0000 057B         display_buffer[0] = 32;
                 ; 0000 057C         display_buffer[1] = 32;
                 ; 0000 057D         display_buffer[2] = 32;
                 ; 0000 057E         display_buffer[3] = 32;
                 ; 0000 057F         }
                 ; 0000 0580 */
                 ; 0000 0581 }
                 _0x121:
0011e9 962a      	ADIW R28,10
0011ea 9508      	RET
                 ; .FEND
                 ;
                 ;void check_set(void)
                 ; 0000 0584 {
                 _check_set:
                 ; .FSTART _check_set
                 ; 0000 0585 if (!key5)
0011eb 99b2      	SBIC 0x16,2
0011ec c02f      	RJMP _0x122
                 ; 0000 0586     {
                 ; 0000 0587     menu_count++;
0011ed eba9      	LDI  R26,LOW(_menu_count)
0011ee e0b2      	LDI  R27,HIGH(_menu_count)
0011ef 91ed      	LD   R30,X+
0011f0 91fd      	LD   R31,X+
0011f1 9631      	ADIW R30,1
0011f2 93fe      	ST   -X,R31
0011f3 93ee      	ST   -X,R30
                 ; 0000 0588     if (menu_count >=4)
0011f4 91a0 02b9 	LDS  R26,_menu_count
0011f6 91b0 02ba 	LDS  R27,_menu_count+1
0011f8 9714      	SBIW R26,4
0011f9 f10c      	BRLT _0x123
                 ; 0000 0589         {
                 ; 0000 058A         menu_count =0;
0011fa e0e0      	LDI  R30,LOW(0)
0011fb 93e0 02b9 	STS  _menu_count,R30
0011fd 93e0 02ba 	STS  _menu_count+1,R30
                 ; 0000 058B         if(!menu_fl)
0011ff fc34      	SBRC R3,4
001200 c018      	RJMP _0x124
                 ; 0000 058C             {
                 ; 0000 058D             menu_fl =1;
001201 9468      	SET
001202 f834      	BLD  R3,4
                 ; 0000 058E             level =1;
001203 e0e1      	LDI  R30,LOW(1)
001204 e0f0      	LDI  R31,HIGH(1)
001205 93e0 02bf 	STS  _level,R30
001207 93f0 02c0 	STS  _level+1,R31
                 ; 0000 058F             item1=item2=0;
001209 e0e0      	LDI  R30,LOW(0)
00120a e0f0      	LDI  R31,HIGH(0)
00120b 93e0 02bd 	STS  _item2,R30
00120d 93f0 02be 	STS  _item2+1,R31
00120f 93e0 02bb 	STS  _item1,R30
001211 93f0 02bc 	STS  _item1+1,R31
                 ; 0000 0590             blink_digit =0;
001213 93e0 02b1 	STS  _blink_digit,R30
001215 93e0 02b2 	STS  _blink_digit+1,R30
                 ; 0000 0591             blink_flag=1;
001217 f823      	BLD  R2,3
                 ; 0000 0592             }
                 ; 0000 0593         else if (menu_fl)
001218 c002      	RJMP _0x125
                 _0x124:
001219 fc34      	SBRC R3,4
                 ; 0000 0594             {
                 ; 0000 0595             escape_menu();
00121a ddbc      	RCALL _escape_menu
                 ; 0000 0596             }
                 ; 0000 0597         }
                 _0x125:
                 ; 0000 0598     }
                 _0x123:
                 ; 0000 0599 else
00121b c005      	RJMP _0x127
                 _0x122:
                 ; 0000 059A     menu_count =0;
00121c e0e0      	LDI  R30,LOW(0)
00121d 93e0 02b9 	STS  _menu_count,R30
00121f 93e0 02ba 	STS  _menu_count+1,R30
                 ; 0000 059B }
                 _0x127:
001221 9508      	RET
                 ; .FEND
                 ;
                 ;
                 ;void ent_key(void)
                 ; 0000 059F {
                 _ent_key:
                 ; .FSTART _ent_key
                 ; 0000 05A0 if (menu_fl && !cal_fl)
001222 fe34      	SBRS R3,4
001223 c002      	RJMP _0x129
001224 fe35      	SBRS R3,5
001225 c001      	RJMP _0x12A
                 _0x129:
001226 c215      	RJMP _0x128
                 _0x12A:
                 ; 0000 05A1     {
                 ; 0000 05A2     blink_digit =0;
001227 e0e0      	LDI  R30,LOW(0)
001228 93e0 02b1 	STS  _blink_digit,R30
00122a 93e0 02b2 	STS  _blink_digit+1,R30
                 ; 0000 05A3 
                 ; 0000 05A4     if (level ==1)
00122c 91a0 02bf 	LDS  R26,_level
00122e 91b0 02c0 	LDS  R27,_level+1
001230 9711      	SBIW R26,1
001231 f461      	BRNE _0x12B
                 ; 0000 05A5         {
                 ; 0000 05A6         level =2;
001232 e0e2      	LDI  R30,LOW(2)
001233 e0f0      	LDI  R31,HIGH(2)
001234 93e0 02bf 	STS  _level,R30
001236 93f0 02c0 	STS  _level+1,R31
                 ; 0000 05A7         item2 =0;
001238 e0e0      	LDI  R30,LOW(0)
001239 93e0 02bd 	STS  _item2,R30
00123b 93e0 02be 	STS  _item2+1,R30
                 ; 0000 05A8         }
                 ; 0000 05A9     else if (level==2)
00123d c1fd      	RJMP _0x12C
                 _0x12B:
00123e 91a0 02bf 	LDS  R26,_level
001240 91b0 02c0 	LDS  R27,_level+1
001242 9712      	SBIW R26,2
001243 f009      	BREQ PC+2
001244 c1f5      	RJMP _0x12D
                 ; 0000 05AA         {
                 ; 0000 05AB         item2++;
001245 ebad      	LDI  R26,LOW(_item2)
001246 e0b2      	LDI  R27,HIGH(_item2)
001247 91ed      	LD   R30,X+
001248 91fd      	LD   R31,X+
001249 9631      	ADIW R30,1
00124a 93fe      	ST   -X,R31
00124b 93ee      	ST   -X,R30
                 ; 0000 05AC         switch (item1)
00124c 91e0 02bb 	LDS  R30,_item1
00124e 91f0 02bc 	LDS  R31,_item1+1
                 ; 0000 05AD             {
                 ; 0000 05AE             case 0: ee_gen[item2-1] = gen[item2-1]; //store in eeprom
001250 9730      	SBIW R30,0
001251 f559      	BRNE _0x131
001252 91e0 02bd 	LDS  R30,_item2
001254 91f0 02be 	LDS  R31,_item2+1
001256 9731      	SBIW R30,1
001257 01bf      	MOVW R22,R30
001258 e0a0      	LDI  R26,LOW(_ee_gen)
001259 e0b0      	LDI  R27,HIGH(_ee_gen)
00125a 0fee      	LSL  R30
00125b 1fff      	ROL  R31
00125c 0fea      	ADD  R30,R26
00125d 1ffb      	ADC  R31,R27
00125e 010f      	MOVW R0,R30
00125f 01fb      	MOVW R30,R22
001260 e8a8      	LDI  R26,LOW(_gen)
001261 e0b1      	LDI  R27,HIGH(_gen)
001262 0fee      	LSL  R30
001263 1fff      	ROL  R31
001264 0fae      	ADD  R26,R30
001265 1fbf      	ADC  R27,R31
001266 940e 2677 	CALL __GETW1P
001268 01d0      	MOVW R26,R0
001269 940e 26b0 	CALL __EEPROMWRW
                 ; 0000 05AF 
                 ; 0000 05B0                     if (item2 >= 1)
00126b 91a0 02bd 	LDS  R26,_item2
00126d 91b0 02be 	LDS  R27,_item2+1
00126f 9711      	SBIW R26,1
001270 f05c      	BRLT _0x132
                 ; 0000 05B1                     {
                 ; 0000 05B2                     item2 =0;       //general parameters st/mb id ,baud
001271 e0e0      	LDI  R30,LOW(0)
001272 93e0 02bd 	STS  _item2,R30
001274 93e0 02be 	STS  _item2+1,R30
                 ; 0000 05B3                     level =1;       // return to level 1
001276 e0e1      	LDI  R30,LOW(1)
001277 e0f0      	LDI  R31,HIGH(1)
001278 93e0 02bf 	STS  _level,R30
00127a 93f0 02c0 	STS  _level+1,R31
                 ; 0000 05B4                     }
                 ; 0000 05B5                     break;
                 _0x132:
00127c c1bc      	RJMP _0x130
                 ; 0000 05B6             case 1: ee_os[item2-1] = os[item2-1]; //store in eeprom
                 _0x131:
00127d 30e1      	CPI  R30,LOW(0x1)
00127e e0a0      	LDI  R26,HIGH(0x1)
00127f 07fa      	CPC  R31,R26
001280 f559      	BRNE _0x133
001281 91e0 02bd 	LDS  R30,_item2
001283 91f0 02be 	LDS  R31,_item2+1
001285 9731      	SBIW R30,1
001286 01bf      	MOVW R22,R30
001287 e1a0      	LDI  R26,LOW(_ee_os)
001288 e0b0      	LDI  R27,HIGH(_ee_os)
001289 0fee      	LSL  R30
00128a 1fff      	ROL  R31
00128b 0fea      	ADD  R30,R26
00128c 1ffb      	ADC  R31,R27
00128d 010f      	MOVW R0,R30
00128e 01fb      	MOVW R30,R22
00128f e9a8      	LDI  R26,LOW(_os)
001290 e0b1      	LDI  R27,HIGH(_os)
001291 0fee      	LSL  R30
001292 1fff      	ROL  R31
001293 0fae      	ADD  R26,R30
001294 1fbf      	ADC  R27,R31
001295 940e 2677 	CALL __GETW1P
001297 01d0      	MOVW R26,R0
001298 940e 26b0 	CALL __EEPROMWRW
                 ; 0000 05B7 
                 ; 0000 05B8                     if (item2 >= 7)
00129a 91a0 02bd 	LDS  R26,_item2
00129c 91b0 02be 	LDS  R27,_item2+1
00129e 9717      	SBIW R26,7
00129f f05c      	BRLT _0x134
                 ; 0000 05B9                     {
                 ; 0000 05BA                     item2 =0;       //offset
0012a0 e0e0      	LDI  R30,LOW(0)
0012a1 93e0 02bd 	STS  _item2,R30
0012a3 93e0 02be 	STS  _item2+1,R30
                 ; 0000 05BB                     level =1;
0012a5 e0e1      	LDI  R30,LOW(1)
0012a6 e0f0      	LDI  R31,HIGH(1)
0012a7 93e0 02bf 	STS  _level,R30
0012a9 93f0 02c0 	STS  _level+1,R31
                 ; 0000 05BC                     }
                 ; 0000 05BD                     break;
                 _0x134:
0012ab c18d      	RJMP _0x130
                 ; 0000 05BE             case 2: ee_skip[item2-1] = skip[item2-1]; //store in eeprom
                 _0x133:
0012ac 30e2      	CPI  R30,LOW(0x2)
0012ad e0a0      	LDI  R26,HIGH(0x2)
0012ae 07fa      	CPC  R31,R26
0012af f559      	BRNE _0x135
0012b0 91e0 02bd 	LDS  R30,_item2
0012b2 91f0 02be 	LDS  R31,_item2+1
0012b4 9731      	SBIW R30,1
0012b5 01bf      	MOVW R22,R30
0012b6 e2a0      	LDI  R26,LOW(_ee_skip)
0012b7 e0b0      	LDI  R27,HIGH(_ee_skip)
0012b8 0fee      	LSL  R30
0012b9 1fff      	ROL  R31
0012ba 0fea      	ADD  R30,R26
0012bb 1ffb      	ADC  R31,R27
0012bc 010f      	MOVW R0,R30
0012bd 01fb      	MOVW R30,R22
0012be eaa8      	LDI  R26,LOW(_skip)
0012bf e0b1      	LDI  R27,HIGH(_skip)
0012c0 0fee      	LSL  R30
0012c1 1fff      	ROL  R31
0012c2 0fae      	ADD  R26,R30
0012c3 1fbf      	ADC  R27,R31
0012c4 940e 2677 	CALL __GETW1P
0012c6 01d0      	MOVW R26,R0
0012c7 940e 26b0 	CALL __EEPROMWRW
                 ; 0000 05BF                     if (item2 >= 7)
0012c9 91a0 02bd 	LDS  R26,_item2
0012cb 91b0 02be 	LDS  R27,_item2+1
0012cd 9717      	SBIW R26,7
0012ce f05c      	BRLT _0x136
                 ; 0000 05C0                     {
                 ; 0000 05C1                     item2 =0;       //skip
0012cf e0e0      	LDI  R30,LOW(0)
0012d0 93e0 02bd 	STS  _item2,R30
0012d2 93e0 02be 	STS  _item2+1,R30
                 ; 0000 05C2                     level =1;       // return to level 1
0012d4 e0e1      	LDI  R30,LOW(1)
0012d5 e0f0      	LDI  R31,HIGH(1)
0012d6 93e0 02bf 	STS  _level,R30
0012d8 93f0 02c0 	STS  _level+1,R31
                 ; 0000 05C3 
                 ; 0000 05C4                     }
                 ; 0000 05C5                     break;
                 _0x136:
0012da c15e      	RJMP _0x130
                 ; 0000 05C6             case 3: ee_rlow[item2-1] = rlow[item2-1]; //store in eeprom
                 _0x135:
0012db 30e3      	CPI  R30,LOW(0x3)
0012dc e0a0      	LDI  R26,HIGH(0x3)
0012dd 07fa      	CPC  R31,R26
0012de f559      	BRNE _0x137
0012df 91e0 02bd 	LDS  R30,_item2
0012e1 91f0 02be 	LDS  R31,_item2+1
0012e3 9731      	SBIW R30,1
0012e4 01bf      	MOVW R22,R30
0012e5 e3a0      	LDI  R26,LOW(_ee_rlow)
0012e6 e0b0      	LDI  R27,HIGH(_ee_rlow)
0012e7 0fee      	LSL  R30
0012e8 1fff      	ROL  R31
0012e9 0fea      	ADD  R30,R26
0012ea 1ffb      	ADC  R31,R27
0012eb 010f      	MOVW R0,R30
0012ec 01fb      	MOVW R30,R22
0012ed eba8      	LDI  R26,LOW(_rlow)
0012ee e0b1      	LDI  R27,HIGH(_rlow)
0012ef 0fee      	LSL  R30
0012f0 1fff      	ROL  R31
0012f1 0fae      	ADD  R26,R30
0012f2 1fbf      	ADC  R27,R31
0012f3 940e 2677 	CALL __GETW1P
0012f5 01d0      	MOVW R26,R0
0012f6 940e 26b0 	CALL __EEPROMWRW
                 ; 0000 05C7                     if (item2 >= 7)
0012f8 91a0 02bd 	LDS  R26,_item2
0012fa 91b0 02be 	LDS  R27,_item2+1
0012fc 9717      	SBIW R26,7
0012fd f05c      	BRLT _0x138
                 ; 0000 05C8                     {
                 ; 0000 05C9                     item2 =0;       //rlow
0012fe e0e0      	LDI  R30,LOW(0)
0012ff 93e0 02bd 	STS  _item2,R30
001301 93e0 02be 	STS  _item2+1,R30
                 ; 0000 05CA                     level =1;       // return to level 1
001303 e0e1      	LDI  R30,LOW(1)
001304 e0f0      	LDI  R31,HIGH(1)
001305 93e0 02bf 	STS  _level,R30
001307 93f0 02c0 	STS  _level+1,R31
                 ; 0000 05CB 
                 ; 0000 05CC                     }
                 ; 0000 05CD                     break;
                 _0x138:
001309 c12f      	RJMP _0x130
                 ; 0000 05CE             case 4: ee_rhigh[item2-1] = rhigh[item2-1]; //store in eeprom
                 _0x137:
00130a 30e4      	CPI  R30,LOW(0x4)
00130b e0a0      	LDI  R26,HIGH(0x4)
00130c 07fa      	CPC  R31,R26
00130d f559      	BRNE _0x139
00130e 91e0 02bd 	LDS  R30,_item2
001310 91f0 02be 	LDS  R31,_item2+1
001312 9731      	SBIW R30,1
001313 01bf      	MOVW R22,R30
001314 e4a0      	LDI  R26,LOW(_ee_rhigh)
001315 e0b0      	LDI  R27,HIGH(_ee_rhigh)
001316 0fee      	LSL  R30
001317 1fff      	ROL  R31
001318 0fea      	ADD  R30,R26
001319 1ffb      	ADC  R31,R27
00131a 010f      	MOVW R0,R30
00131b 01fb      	MOVW R30,R22
00131c eca8      	LDI  R26,LOW(_rhigh)
00131d e0b1      	LDI  R27,HIGH(_rhigh)
00131e 0fee      	LSL  R30
00131f 1fff      	ROL  R31
001320 0fae      	ADD  R26,R30
001321 1fbf      	ADC  R27,R31
001322 940e 2677 	CALL __GETW1P
001324 01d0      	MOVW R26,R0
001325 940e 26b0 	CALL __EEPROMWRW
                 ; 0000 05CF                     if (item2 >= 7)
001327 91a0 02bd 	LDS  R26,_item2
001329 91b0 02be 	LDS  R27,_item2+1
00132b 9717      	SBIW R26,7
00132c f05c      	BRLT _0x13A
                 ; 0000 05D0                     {
                 ; 0000 05D1                     item2 =0;       //rhigh
00132d e0e0      	LDI  R30,LOW(0)
00132e 93e0 02bd 	STS  _item2,R30
001330 93e0 02be 	STS  _item2+1,R30
                 ; 0000 05D2                     level =1;       // return to level 1
001332 e0e1      	LDI  R30,LOW(1)
001333 e0f0      	LDI  R31,HIGH(1)
001334 93e0 02bf 	STS  _level,R30
001336 93f0 02c0 	STS  _level+1,R31
                 ; 0000 05D3 
                 ; 0000 05D4 
                 ; 0000 05D5                     }
                 ; 0000 05D6                     break;
                 _0x13A:
001338 c100      	RJMP _0x130
                 ; 0000 05D7             case 5: ee_alow[item2-1] = alow[item2-1]; //store in eeprom
                 _0x139:
001339 30e5      	CPI  R30,LOW(0x5)
00133a e0a0      	LDI  R26,HIGH(0x5)
00133b 07fa      	CPC  R31,R26
00133c f559      	BRNE _0x13B
00133d 91e0 02bd 	LDS  R30,_item2
00133f 91f0 02be 	LDS  R31,_item2+1
001341 9731      	SBIW R30,1
001342 01bf      	MOVW R22,R30
001343 e5a0      	LDI  R26,LOW(_ee_alow)
001344 e0b0      	LDI  R27,HIGH(_ee_alow)
001345 0fee      	LSL  R30
001346 1fff      	ROL  R31
001347 0fea      	ADD  R30,R26
001348 1ffb      	ADC  R31,R27
001349 010f      	MOVW R0,R30
00134a 01fb      	MOVW R30,R22
00134b eda8      	LDI  R26,LOW(_alow)
00134c e0b1      	LDI  R27,HIGH(_alow)
00134d 0fee      	LSL  R30
00134e 1fff      	ROL  R31
00134f 0fae      	ADD  R26,R30
001350 1fbf      	ADC  R27,R31
001351 940e 2677 	CALL __GETW1P
001353 01d0      	MOVW R26,R0
001354 940e 26b0 	CALL __EEPROMWRW
                 ; 0000 05D8                     if (item2 >= 7)
001356 91a0 02bd 	LDS  R26,_item2
001358 91b0 02be 	LDS  R27,_item2+1
00135a 9717      	SBIW R26,7
00135b f05c      	BRLT _0x13C
                 ; 0000 05D9                     {
                 ; 0000 05DA                     item2 =0;       //alow
00135c e0e0      	LDI  R30,LOW(0)
00135d 93e0 02bd 	STS  _item2,R30
00135f 93e0 02be 	STS  _item2+1,R30
                 ; 0000 05DB                     level =1;       // return to level 1
001361 e0e1      	LDI  R30,LOW(1)
001362 e0f0      	LDI  R31,HIGH(1)
001363 93e0 02bf 	STS  _level,R30
001365 93f0 02c0 	STS  _level+1,R31
                 ; 0000 05DC                     }
                 ; 0000 05DD                     break;
                 _0x13C:
001367 c0d1      	RJMP _0x130
                 ; 0000 05DE             case 6: ee_ahigh[item2-1] = ahigh[item2-1]; //store in eeprom
                 _0x13B:
001368 30e6      	CPI  R30,LOW(0x6)
001369 e0a0      	LDI  R26,HIGH(0x6)
00136a 07fa      	CPC  R31,R26
00136b f559      	BRNE _0x13D
00136c 91e0 02bd 	LDS  R30,_item2
00136e 91f0 02be 	LDS  R31,_item2+1
001370 9731      	SBIW R30,1
001371 01bf      	MOVW R22,R30
001372 e6a0      	LDI  R26,LOW(_ee_ahigh)
001373 e0b0      	LDI  R27,HIGH(_ee_ahigh)
001374 0fee      	LSL  R30
001375 1fff      	ROL  R31
001376 0fea      	ADD  R30,R26
001377 1ffb      	ADC  R31,R27
001378 010f      	MOVW R0,R30
001379 01fb      	MOVW R30,R22
00137a eea8      	LDI  R26,LOW(_ahigh)
00137b e0b1      	LDI  R27,HIGH(_ahigh)
00137c 0fee      	LSL  R30
00137d 1fff      	ROL  R31
00137e 0fae      	ADD  R26,R30
00137f 1fbf      	ADC  R27,R31
001380 940e 2677 	CALL __GETW1P
001382 01d0      	MOVW R26,R0
001383 940e 26b0 	CALL __EEPROMWRW
                 ; 0000 05DF                     if (item2 >= 7)
001385 91a0 02bd 	LDS  R26,_item2
001387 91b0 02be 	LDS  R27,_item2+1
001389 9717      	SBIW R26,7
00138a f05c      	BRLT _0x13E
                 ; 0000 05E0                     {
                 ; 0000 05E1                     item2 =0;       //ahigh
00138b e0e0      	LDI  R30,LOW(0)
00138c 93e0 02bd 	STS  _item2,R30
00138e 93e0 02be 	STS  _item2+1,R30
                 ; 0000 05E2                     level =1;       // return to level 1
001390 e0e1      	LDI  R30,LOW(1)
001391 e0f0      	LDI  R31,HIGH(1)
001392 93e0 02bf 	STS  _level,R30
001394 93f0 02c0 	STS  _level+1,R31
                 ; 0000 05E3 
                 ; 0000 05E4                     }
                 ; 0000 05E5                     break;
                 _0x13E:
001396 c0a2      	RJMP _0x130
                 ; 0000 05E6             case 7: ee_input[item2-1] = input[item2-1]; //store in eeprom
                 _0x13D:
001397 30e7      	CPI  R30,LOW(0x7)
001398 e0a0      	LDI  R26,HIGH(0x7)
001399 07fa      	CPC  R31,R26
00139a f009      	BREQ PC+2
00139b c06f      	RJMP _0x13F
00139c 91e0 02bd 	LDS  R30,_item2
00139e 91f0 02be 	LDS  R31,_item2+1
0013a0 9731      	SBIW R30,1
0013a1 01bf      	MOVW R22,R30
0013a2 e7a0      	LDI  R26,LOW(_ee_input)
0013a3 e0b0      	LDI  R27,HIGH(_ee_input)
0013a4 0fee      	LSL  R30
0013a5 1fff      	ROL  R31
0013a6 0fea      	ADD  R30,R26
0013a7 1ffb      	ADC  R31,R27
0013a8 010f      	MOVW R0,R30
0013a9 01fb      	MOVW R30,R22
0013aa efa8      	LDI  R26,LOW(_input)
0013ab e0b1      	LDI  R27,HIGH(_input)
0013ac 0fee      	LSL  R30
0013ad 1fff      	ROL  R31
0013ae 0fae      	ADD  R26,R30
0013af 1fbf      	ADC  R27,R31
0013b0 940e 2677 	CALL __GETW1P
0013b2 01d0      	MOVW R26,R0
0013b3 940e 26b0 	CALL __EEPROMWRW
                 ; 0000 05E7                     switch (input[item2-1])
0013b5 91e0 02bd 	LDS  R30,_item2
0013b7 91f0 02be 	LDS  R31,_item2+1
0013b9 9731      	SBIW R30,1
0013ba efa8      	LDI  R26,LOW(_input)
0013bb e0b1      	LDI  R27,HIGH(_input)
0013bc 0fee      	LSL  R30
0013bd 1fff      	ROL  R31
0013be 0fae      	ADD  R26,R30
0013bf 1fbf      	ADC  R27,R31
0013c0 940e 2677 	CALL __GETW1P
                 ; 0000 05E8                         {
                 ; 0000 05E9                         case 0:dp[item2-1]=2;
0013c2 9730      	SBIW R30,0
0013c3 f471      	BRNE _0x143
0013c4 91e0 02bd 	LDS  R30,_item2
0013c6 91f0 02be 	LDS  R31,_item2+1
0013c8 9731      	SBIW R30,1
0013c9 e0a8      	LDI  R26,LOW(_dp)
0013ca e0b2      	LDI  R27,HIGH(_dp)
0013cb 0fee      	LSL  R30
0013cc 1fff      	ROL  R31
0013cd 0fae      	ADD  R26,R30
0013ce 1fbf      	ADC  R27,R31
0013cf e0e2      	LDI  R30,LOW(2)
0013d0 e0f0      	LDI  R31,HIGH(2)
0013d1 c025      	RJMP _0x339
                 ; 0000 05EA                              break;
                 ; 0000 05EB                         case 1: dp[item2-1] =3;
                 _0x143:
0013d2 30e1      	CPI  R30,LOW(0x1)
0013d3 e0a0      	LDI  R26,HIGH(0x1)
0013d4 07fa      	CPC  R31,R26
0013d5 f0a1      	BREQ _0x33A
                 ; 0000 05EC                                 break;
                 ; 0000 05ED                         case 2: dp[item2-1] =3;
0013d6 30e2      	CPI  R30,LOW(0x2)
0013d7 e0a0      	LDI  R26,HIGH(0x2)
0013d8 07fa      	CPC  R31,R26
0013d9 f081      	BREQ _0x33A
                 ; 0000 05EE                                 break;
                 ; 0000 05EF                         case 3: dp[item2-1] =3;
0013da 30e3      	CPI  R30,LOW(0x3)
0013db e0a0      	LDI  R26,HIGH(0x3)
0013dc 07fa      	CPC  R31,R26
0013dd f061      	BREQ _0x33A
                 ; 0000 05F0                                 break;
                 ; 0000 05F1                         case 4: dp[item2-1] =3;
0013de 30e4      	CPI  R30,LOW(0x4)
0013df e0a0      	LDI  R26,HIGH(0x4)
0013e0 07fa      	CPC  R31,R26
0013e1 f041      	BREQ _0x33A
                 ; 0000 05F2                                 break;
                 ; 0000 05F3                         case 5: dp[item2-1] =3;
0013e2 30e5      	CPI  R30,LOW(0x5)
0013e3 e0a0      	LDI  R26,HIGH(0x5)
0013e4 07fa      	CPC  R31,R26
0013e5 f021      	BREQ _0x33A
                 ; 0000 05F4                                 break;
                 ; 0000 05F5                         case 6: dp[item2-1] =3;
0013e6 30e6      	CPI  R30,LOW(0x6)
0013e7 e0a0      	LDI  R26,HIGH(0x6)
0013e8 07fa      	CPC  R31,R26
0013e9 f479      	BRNE _0x142
                 _0x33A:
0013ea 91e0 02bd 	LDS  R30,_item2
0013ec 91f0 02be 	LDS  R31,_item2+1
0013ee 9731      	SBIW R30,1
0013ef e0a8      	LDI  R26,LOW(_dp)
0013f0 e0b2      	LDI  R27,HIGH(_dp)
0013f1 0fee      	LSL  R30
0013f2 1fff      	ROL  R31
0013f3 0fae      	ADD  R26,R30
0013f4 1fbf      	ADC  R27,R31
0013f5 e0e3      	LDI  R30,LOW(3)
0013f6 e0f0      	LDI  R31,HIGH(3)
                 _0x339:
0013f7 93ed      	ST   X+,R30
0013f8 93fc      	ST   X,R31
                 ; 0000 05F6                                 break;
                 ; 0000 05F7                         }
                 _0x142:
                 ; 0000 05F8                     if (item2 >= 7)
0013f9 91a0 02bd 	LDS  R26,_item2
0013fb 91b0 02be 	LDS  R27,_item2+1
0013fd 9717      	SBIW R26,7
0013fe f05c      	BRLT _0x14A
                 ; 0000 05F9                     {
                 ; 0000 05FA                     item2 =0;       //input
0013ff e0e0      	LDI  R30,LOW(0)
001400 93e0 02bd 	STS  _item2,R30
001402 93e0 02be 	STS  _item2+1,R30
                 ; 0000 05FB                     level =1;       // return to level 1
001404 e0e1      	LDI  R30,LOW(1)
001405 e0f0      	LDI  R31,HIGH(1)
001406 93e0 02bf 	STS  _level,R30
001408 93f0 02c0 	STS  _level+1,R31
                 ; 0000 05FC 
                 ; 0000 05FD                     }
                 ; 0000 05FE                     break;
                 _0x14A:
00140a c02e      	RJMP _0x130
                 ; 0000 05FF             case 8: ee_dp[item2-1] = dp[item2-1]; //store in eeprom
                 _0x13F:
00140b 30e8      	CPI  R30,LOW(0x8)
00140c e0a0      	LDI  R26,HIGH(0x8)
00140d 07fa      	CPC  R31,R26
00140e f551      	BRNE _0x130
00140f 91e0 02bd 	LDS  R30,_item2
001411 91f0 02be 	LDS  R31,_item2+1
001413 9731      	SBIW R30,1
001414 01bf      	MOVW R22,R30
001415 e8a0      	LDI  R26,LOW(_ee_dp)
001416 e0b0      	LDI  R27,HIGH(_ee_dp)
001417 0fee      	LSL  R30
001418 1fff      	ROL  R31
001419 0fea      	ADD  R30,R26
00141a 1ffb      	ADC  R31,R27
00141b 010f      	MOVW R0,R30
00141c 01fb      	MOVW R30,R22
00141d e0a8      	LDI  R26,LOW(_dp)
00141e e0b2      	LDI  R27,HIGH(_dp)
00141f 0fee      	LSL  R30
001420 1fff      	ROL  R31
001421 0fae      	ADD  R26,R30
001422 1fbf      	ADC  R27,R31
001423 940e 2677 	CALL __GETW1P
001425 01d0      	MOVW R26,R0
001426 940e 26b0 	CALL __EEPROMWRW
                 ; 0000 0600                     if (item2 >= 7)
001428 91a0 02bd 	LDS  R26,_item2
00142a 91b0 02be 	LDS  R27,_item2+1
00142c 9717      	SBIW R26,7
00142d f05c      	BRLT _0x14C
                 ; 0000 0601                     {
                 ; 0000 0602                     item2 =0;       //input
00142e e0e0      	LDI  R30,LOW(0)
00142f 93e0 02bd 	STS  _item2,R30
001431 93e0 02be 	STS  _item2+1,R30
                 ; 0000 0603                     level =1;       // return to level 1
001433 e0e1      	LDI  R30,LOW(1)
001434 e0f0      	LDI  R31,HIGH(1)
001435 93e0 02bf 	STS  _level,R30
001437 93f0 02c0 	STS  _level+1,R31
                 ; 0000 0604 
                 ; 0000 0605                     }
                 ; 0000 0606                     break;
                 _0x14C:
                 ; 0000 0607 
                 ; 0000 0608 
                 ; 0000 0609             }
                 _0x130:
                 ; 0000 060A         }
                 ; 0000 060B 
                 ; 0000 060C     else
001439 c001      	RJMP _0x14D
                 _0x12D:
                 ; 0000 060D         {
                 ; 0000 060E         escape_menu();
00143a db9c      	RCALL _escape_menu
                 ; 0000 060F         }
                 _0x14D:
                 _0x12C:
                 ; 0000 0610     }
                 ; 0000 0611     else if (cal_fl)
00143b c056      	RJMP _0x14E
                 _0x128:
00143c fe35      	SBRS R3,5
00143d c054      	RJMP _0x14F
                 ; 0000 0612         {
                 ; 0000 0613         mux_scan++;
00143e eba3      	LDI  R26,LOW(_mux_scan)
00143f e0b2      	LDI  R27,HIGH(_mux_scan)
001440 91ed      	LD   R30,X+
001441 91fd      	LD   R31,X+
001442 9631      	ADIW R30,1
001443 93fe      	ST   -X,R31
001444 93ee      	ST   -X,R30
                 ; 0000 0614         if (mux_scan>=8) mux_scan=0;
001445 91a0 02b3 	LDS  R26,_mux_scan
001447 91b0 02b4 	LDS  R27,_mux_scan+1
001449 9718      	SBIW R26,8
00144a f02c      	BRLT _0x150
00144b e0e0      	LDI  R30,LOW(0)
00144c 93e0 02b3 	STS  _mux_scan,R30
00144e 93e0 02b4 	STS  _mux_scan+1,R30
                 ; 0000 0615         switch(mux_scan)
                 _0x150:
001450 91e0 02b3 	LDS  R30,_mux_scan
001452 91f0 02b4 	LDS  R31,_mux_scan+1
                 ; 0000 0616                 {
                 ; 0000 0617                 case 0: mux9 =0;
001454 9730      	SBIW R30,0
001455 f1c9      	BREQ _0x33B
                 ; 0000 0618                         mux10 =0;
                 ; 0000 0619                         mux11 =0;
                 ; 0000 061A                        break;
                 ; 0000 061B                 case 1: mux9 =1;
001456 30e1      	CPI  R30,LOW(0x1)
001457 e0a0      	LDI  R26,HIGH(0x1)
001458 07fa      	CPC  R31,R26
001459 f411      	BRNE _0x15B
00145a 9a93      	SBI  0x12,3
                 ; 0000 061C                       mux10 =0;
00145b c034      	RJMP _0x33C
                 ; 0000 061D                         mux11 =0;
                 ; 0000 061E                         break;
                 ; 0000 061F                 case 2: mux9 =0;
                 _0x15B:
00145c 30e2      	CPI  R30,LOW(0x2)
00145d e0a0      	LDI  R26,HIGH(0x2)
00145e 07fa      	CPC  R31,R26
00145f f419      	BRNE _0x162
001460 9893      	CBI  0x12,3
                 ; 0000 0620                         mux10 =1;
001461 9a94      	SBI  0x12,4
                 ; 0000 0621                         mux11 =0;
001462 c02e      	RJMP _0x33D
                 ; 0000 0622                       break;
                 ; 0000 0623                 case 3: mux9 =1;
                 _0x162:
001463 30e3      	CPI  R30,LOW(0x3)
001464 e0a0      	LDI  R26,HIGH(0x3)
001465 07fa      	CPC  R31,R26
001466 f419      	BRNE _0x169
001467 9a93      	SBI  0x12,3
                 ; 0000 0624                         mux10 =1;
001468 9a94      	SBI  0x12,4
                 ; 0000 0625                         mux11 =0;
001469 c027      	RJMP _0x33D
                 ; 0000 0626                         break;
                 ; 0000 0627                 case 4: mux9 =0;
                 _0x169:
00146a 30e4      	CPI  R30,LOW(0x4)
00146b e0a0      	LDI  R26,HIGH(0x4)
00146c 07fa      	CPC  R31,R26
00146d f421      	BRNE _0x170
00146e 9893      	CBI  0x12,3
                 ; 0000 0628                         mux10 =0;
00146f 9894      	CBI  0x12,4
                 ; 0000 0629                         mux11 =1;
001470 9a95      	SBI  0x12,5
                 ; 0000 062A                         break;
001471 c020      	RJMP _0x153
                 ; 0000 062B                 case 5: mux9 =1;
                 _0x170:
001472 30e5      	CPI  R30,LOW(0x5)
001473 e0a0      	LDI  R26,HIGH(0x5)
001474 07fa      	CPC  R31,R26
001475 f421      	BRNE _0x177
001476 9a93      	SBI  0x12,3
                 ; 0000 062C                         mux10 =0;
001477 9894      	CBI  0x12,4
                 ; 0000 062D                         mux11 =1;
001478 9a95      	SBI  0x12,5
                 ; 0000 062E                         break;
001479 c018      	RJMP _0x153
                 ; 0000 062F                 case 6: mux9 =0;
                 _0x177:
00147a 30e6      	CPI  R30,LOW(0x6)
00147b e0a0      	LDI  R26,HIGH(0x6)
00147c 07fa      	CPC  R31,R26
00147d f421      	BRNE _0x17E
00147e 9893      	CBI  0x12,3
                 ; 0000 0630                         mux10 =1;
00147f 9a94      	SBI  0x12,4
                 ; 0000 0631                         mux11 =1;
001480 9a95      	SBI  0x12,5
                 ; 0000 0632                         break;
001481 c010      	RJMP _0x153
                 ; 0000 0633                 case 7: mux9 =1;
                 _0x17E:
001482 30e7      	CPI  R30,LOW(0x7)
001483 e0a0      	LDI  R26,HIGH(0x7)
001484 07fa      	CPC  R31,R26
001485 f421      	BRNE _0x18C
001486 9a93      	SBI  0x12,3
                 ; 0000 0634                         mux10 =1;
001487 9a94      	SBI  0x12,4
                 ; 0000 0635                         mux11 =1;
001488 9a95      	SBI  0x12,5
                 ; 0000 0636                         break;
001489 c008      	RJMP _0x153
                 ; 0000 0637                 default:mux_scan =0;
                 _0x18C:
00148a e0e0      	LDI  R30,LOW(0)
00148b 93e0 02b3 	STS  _mux_scan,R30
00148d 93e0 02b4 	STS  _mux_scan+1,R30
                 ; 0000 0638                         mux9 =0;
                 _0x33B:
00148f 9893      	CBI  0x12,3
                 ; 0000 0639                         mux10 =0;
                 _0x33C:
001490 9894      	CBI  0x12,4
                 ; 0000 063A                         mux11 =0;
                 _0x33D:
001491 9895      	CBI  0x12,5
                 ; 0000 063B                         break;
                 ; 0000 063C                 }
                 _0x153:
                 ; 0000 063D         }
                 ; 0000 063E }
                 _0x14F:
                 _0x14E:
001492 9508      	RET
                 ; .FEND
                 ;
                 ;void inc_key(void)
                 ; 0000 0641 {
                 _inc_key:
                 ; .FSTART _inc_key
                 ; 0000 0642 
                 ; 0000 0643 if (menu_fl && !cal_fl)
001493 fe34      	SBRS R3,4
001494 c002      	RJMP _0x194
001495 fe35      	SBRS R3,5
001496 c001      	RJMP _0x195
                 _0x194:
001497 c183      	RJMP _0x193
                 _0x195:
                 ; 0000 0644     {
                 ; 0000 0645     if (level ==1)
001498 91a0 02bf 	LDS  R26,_level
00149a 91b0 02c0 	LDS  R27,_level+1
00149c 9711      	SBIW R26,1
00149d f521      	BRNE _0x196
                 ; 0000 0646         {
                 ; 0000 0647         item2 =0;
00149e e0e0      	LDI  R30,LOW(0)
00149f 93e0 02bd 	STS  _item2,R30
0014a1 93e0 02be 	STS  _item2+1,R30
                 ; 0000 0648         item1 ++;
0014a3 ebab      	LDI  R26,LOW(_item1)
0014a4 e0b2      	LDI  R27,HIGH(_item1)
0014a5 91ed      	LD   R30,X+
0014a6 91fd      	LD   R31,X+
0014a7 9631      	ADIW R30,1
0014a8 93fe      	ST   -X,R31
0014a9 93ee      	ST   -X,R30
                 ; 0000 0649         if (item1 ==3) item1 =5;
0014aa 91a0 02bb 	LDS  R26,_item1
0014ac 91b0 02bc 	LDS  R27,_item1+1
0014ae 9713      	SBIW R26,3
0014af f431      	BRNE _0x197
0014b0 e0e5      	LDI  R30,LOW(5)
0014b1 e0f0      	LDI  R31,HIGH(5)
0014b2 93e0 02bb 	STS  _item1,R30
0014b4 93f0 02bc 	STS  _item1+1,R31
                 ; 0000 064A         if (item1>=7) item1 =0;
                 _0x197:
0014b6 91a0 02bb 	LDS  R26,_item1
0014b8 91b0 02bc 	LDS  R27,_item1+1
0014ba 9717      	SBIW R26,7
0014bb f02c      	BRLT _0x198
0014bc e0e0      	LDI  R30,LOW(0)
0014bd 93e0 02bb 	STS  _item1,R30
0014bf 93e0 02bc 	STS  _item1+1,R30
                 ; 0000 064B         }
                 _0x198:
                 ; 0000 064C     else if (level ==2)
0014c1 c158      	RJMP _0x199
                 _0x196:
0014c2 91a0 02bf 	LDS  R26,_level
0014c4 91b0 02c0 	LDS  R27,_level+1
0014c6 9712      	SBIW R26,2
0014c7 f009      	BREQ PC+2
0014c8 c151      	RJMP _0x19A
                 ; 0000 064D         {
                 ; 0000 064E         switch (item1)
0014c9 91e0 02bb 	LDS  R30,_item1
0014cb 91f0 02bc 	LDS  R31,_item1+1
                 ; 0000 064F             {
                 ; 0000 0650             case 0: if (item2==0) increment_value(&gen[0],1,99,0);  //scan time
0014cd 9730      	SBIW R30,0
0014ce f009      	BREQ PC+2
0014cf c042      	RJMP _0x19E
0014d0 91e0 02bd 	LDS  R30,_item2
0014d2 91f0 02be 	LDS  R31,_item2+1
0014d4 9730      	SBIW R30,0
0014d5 f479      	BRNE _0x19F
0014d6 e8e8      	LDI  R30,LOW(_gen)
0014d7 e0f1      	LDI  R31,HIGH(_gen)
0014d8 93fa      	ST   -Y,R31
0014d9 93ea      	ST   -Y,R30
0014da e0e1      	LDI  R30,LOW(1)
0014db e0f0      	LDI  R31,HIGH(1)
0014dc 93fa      	ST   -Y,R31
0014dd 93ea      	ST   -Y,R30
0014de e6e3      	LDI  R30,LOW(99)
0014df e0f0      	LDI  R31,HIGH(99)
0014e0 93fa      	ST   -Y,R31
0014e1 93ea      	ST   -Y,R30
0014e2 e0a0      	LDI  R26,LOW(0)
0014e3 e0b0      	LDI  R27,0
0014e4 da79      	RCALL _increment_value
                 ; 0000 0651                     if(item2 ==1) increment_value(&gen[1],1,242,blink_digit);//modbus id
                 _0x19F:
0014e5 91a0 02bd 	LDS  R26,_item2
0014e7 91b0 02be 	LDS  R27,_item2+1
0014e9 9711      	SBIW R26,1
0014ea f489      	BRNE _0x1A0
                +
0014eb e8ea     +LDI R30 , LOW ( _gen + ( 2 ) )
0014ec e0f1     +LDI R31 , HIGH ( _gen + ( 2 ) )
                 	__POINTW1MN _gen,2
0014ed 93fa      	ST   -Y,R31
0014ee 93ea      	ST   -Y,R30
0014ef e0e1      	LDI  R30,LOW(1)
0014f0 e0f0      	LDI  R31,HIGH(1)
0014f1 93fa      	ST   -Y,R31
0014f2 93ea      	ST   -Y,R30
0014f3 efe2      	LDI  R30,LOW(242)
0014f4 e0f0      	LDI  R31,HIGH(242)
0014f5 93fa      	ST   -Y,R31
0014f6 93ea      	ST   -Y,R30
0014f7 91a0 02b1 	LDS  R26,_blink_digit
0014f9 91b0 02b2 	LDS  R27,_blink_digit+1
0014fb da62      	RCALL _increment_value
                 ; 0000 0652                     if (item2==2) increment_value(&gen[2],0,3,0);   //baud rates 9600/19200/38400/115200
                 _0x1A0:
0014fc 91a0 02bd 	LDS  R26,_item2
0014fe 91b0 02be 	LDS  R27,_item2+1
001500 9712      	SBIW R26,2
001501 f479      	BRNE _0x1A1
                +
001502 e8ec     +LDI R30 , LOW ( _gen + ( 4 ) )
001503 e0f1     +LDI R31 , HIGH ( _gen + ( 4 ) )
                 	__POINTW1MN _gen,4
001504 93fa      	ST   -Y,R31
001505 93ea      	ST   -Y,R30
001506 e0e0      	LDI  R30,LOW(0)
001507 e0f0      	LDI  R31,HIGH(0)
001508 93fa      	ST   -Y,R31
001509 93ea      	ST   -Y,R30
00150a e0e3      	LDI  R30,LOW(3)
00150b e0f0      	LDI  R31,HIGH(3)
00150c 93fa      	ST   -Y,R31
00150d 93ea      	ST   -Y,R30
00150e e0a0      	LDI  R26,LOW(0)
00150f e0b0      	LDI  R27,0
001510 da4d      	RCALL _increment_value
                 ; 0000 0653                     break;
                 _0x1A1:
001511 c108      	RJMP _0x19D
                 ; 0000 0654             case 1: increment_value(&os[item2],-999,1999,blink_digit);   //offset
                 _0x19E:
001512 30e1      	CPI  R30,LOW(0x1)
001513 e0a0      	LDI  R26,HIGH(0x1)
001514 07fa      	CPC  R31,R26
001515 f4d1      	BRNE _0x1A2
001516 91e0 02bd 	LDS  R30,_item2
001518 91f0 02be 	LDS  R31,_item2+1
00151a e9a8      	LDI  R26,LOW(_os)
00151b e0b1      	LDI  R27,HIGH(_os)
00151c 0fee      	LSL  R30
00151d 1fff      	ROL  R31
00151e 0fea      	ADD  R30,R26
00151f 1ffb      	ADC  R31,R27
001520 93fa      	ST   -Y,R31
001521 93ea      	ST   -Y,R30
001522 e1e9      	LDI  R30,LOW(64537)
001523 effc      	LDI  R31,HIGH(64537)
001524 93fa      	ST   -Y,R31
001525 93ea      	ST   -Y,R30
001526 ecef      	LDI  R30,LOW(1999)
001527 e0f7      	LDI  R31,HIGH(1999)
001528 93fa      	ST   -Y,R31
001529 93ea      	ST   -Y,R30
00152a 91a0 02b1 	LDS  R26,_blink_digit
00152c 91b0 02b2 	LDS  R27,_blink_digit+1
00152e da2f      	RCALL _increment_value
                 ; 0000 0655                     break;
00152f c0ea      	RJMP _0x19D
                 ; 0000 0656             case 2: increment_value(&skip[item2],0,1,0);    //skip
                 _0x1A2:
001530 30e2      	CPI  R30,LOW(0x2)
001531 e0a0      	LDI  R26,HIGH(0x2)
001532 07fa      	CPC  R31,R26
001533 f4c1      	BRNE _0x1A3
001534 91e0 02bd 	LDS  R30,_item2
001536 91f0 02be 	LDS  R31,_item2+1
001538 eaa8      	LDI  R26,LOW(_skip)
001539 e0b1      	LDI  R27,HIGH(_skip)
00153a 0fee      	LSL  R30
00153b 1fff      	ROL  R31
00153c 0fea      	ADD  R30,R26
00153d 1ffb      	ADC  R31,R27
00153e 93fa      	ST   -Y,R31
00153f 93ea      	ST   -Y,R30
001540 e0e0      	LDI  R30,LOW(0)
001541 e0f0      	LDI  R31,HIGH(0)
001542 93fa      	ST   -Y,R31
001543 93ea      	ST   -Y,R30
001544 e0e1      	LDI  R30,LOW(1)
001545 e0f0      	LDI  R31,HIGH(1)
001546 93fa      	ST   -Y,R31
001547 93ea      	ST   -Y,R30
001548 e0a0      	LDI  R26,LOW(0)
001549 e0b0      	LDI  R27,0
00154a da13      	RCALL _increment_value
                 ; 0000 0657                     break;
00154b c0ce      	RJMP _0x19D
                 ; 0000 0658             case 3: increment_value(&rlow[item2],-200,300,blink_digit);    //rlow
                 _0x1A3:
00154c 30e3      	CPI  R30,LOW(0x3)
00154d e0a0      	LDI  R26,HIGH(0x3)
00154e 07fa      	CPC  R31,R26
00154f f4d1      	BRNE _0x1A4
001550 91e0 02bd 	LDS  R30,_item2
001552 91f0 02be 	LDS  R31,_item2+1
001554 eba8      	LDI  R26,LOW(_rlow)
001555 e0b1      	LDI  R27,HIGH(_rlow)
001556 0fee      	LSL  R30
001557 1fff      	ROL  R31
001558 0fea      	ADD  R30,R26
001559 1ffb      	ADC  R31,R27
00155a 93fa      	ST   -Y,R31
00155b 93ea      	ST   -Y,R30
00155c e3e8      	LDI  R30,LOW(65336)
00155d efff      	LDI  R31,HIGH(65336)
00155e 93fa      	ST   -Y,R31
00155f 93ea      	ST   -Y,R30
001560 e2ec      	LDI  R30,LOW(300)
001561 e0f1      	LDI  R31,HIGH(300)
001562 93fa      	ST   -Y,R31
001563 93ea      	ST   -Y,R30
001564 91a0 02b1 	LDS  R26,_blink_digit
001566 91b0 02b2 	LDS  R27,_blink_digit+1
001568 d9f5      	RCALL _increment_value
                 ; 0000 0659                     break;
001569 c0b0      	RJMP _0x19D
                 ; 0000 065A             case 4: increment_value(&rhigh[item2],-200,300,blink_digit);   //rhigh
                 _0x1A4:
00156a 30e4      	CPI  R30,LOW(0x4)
00156b e0a0      	LDI  R26,HIGH(0x4)
00156c 07fa      	CPC  R31,R26
00156d f4d1      	BRNE _0x1A5
00156e 91e0 02bd 	LDS  R30,_item2
001570 91f0 02be 	LDS  R31,_item2+1
001572 eca8      	LDI  R26,LOW(_rhigh)
001573 e0b1      	LDI  R27,HIGH(_rhigh)
001574 0fee      	LSL  R30
001575 1fff      	ROL  R31
001576 0fea      	ADD  R30,R26
001577 1ffb      	ADC  R31,R27
001578 93fa      	ST   -Y,R31
001579 93ea      	ST   -Y,R30
00157a e3e8      	LDI  R30,LOW(65336)
00157b efff      	LDI  R31,HIGH(65336)
00157c 93fa      	ST   -Y,R31
00157d 93ea      	ST   -Y,R30
00157e e2ec      	LDI  R30,LOW(300)
00157f e0f1      	LDI  R31,HIGH(300)
001580 93fa      	ST   -Y,R31
001581 93ea      	ST   -Y,R30
001582 91a0 02b1 	LDS  R26,_blink_digit
001584 91b0 02b2 	LDS  R27,_blink_digit+1
001586 d9d7      	RCALL _increment_value
                 ; 0000 065B                     break;
001587 c092      	RJMP _0x19D
                 ; 0000 065C             case 5: increment_value(&alow[item2],-200,300,blink_digit);    //alow
                 _0x1A5:
001588 30e5      	CPI  R30,LOW(0x5)
001589 e0a0      	LDI  R26,HIGH(0x5)
00158a 07fa      	CPC  R31,R26
00158b f4d1      	BRNE _0x1A6
00158c 91e0 02bd 	LDS  R30,_item2
00158e 91f0 02be 	LDS  R31,_item2+1
001590 eda8      	LDI  R26,LOW(_alow)
001591 e0b1      	LDI  R27,HIGH(_alow)
001592 0fee      	LSL  R30
001593 1fff      	ROL  R31
001594 0fea      	ADD  R30,R26
001595 1ffb      	ADC  R31,R27
001596 93fa      	ST   -Y,R31
001597 93ea      	ST   -Y,R30
001598 e3e8      	LDI  R30,LOW(65336)
001599 efff      	LDI  R31,HIGH(65336)
00159a 93fa      	ST   -Y,R31
00159b 93ea      	ST   -Y,R30
00159c e2ec      	LDI  R30,LOW(300)
00159d e0f1      	LDI  R31,HIGH(300)
00159e 93fa      	ST   -Y,R31
00159f 93ea      	ST   -Y,R30
0015a0 91a0 02b1 	LDS  R26,_blink_digit
0015a2 91b0 02b2 	LDS  R27,_blink_digit+1
0015a4 d9b9      	RCALL _increment_value
                 ; 0000 065D                     break;
0015a5 c074      	RJMP _0x19D
                 ; 0000 065E             case 6: increment_value(&ahigh[item2],-200,300,blink_digit);   //ahigh
                 _0x1A6:
0015a6 30e6      	CPI  R30,LOW(0x6)
0015a7 e0a0      	LDI  R26,HIGH(0x6)
0015a8 07fa      	CPC  R31,R26
0015a9 f4d1      	BRNE _0x1A7
0015aa 91e0 02bd 	LDS  R30,_item2
0015ac 91f0 02be 	LDS  R31,_item2+1
0015ae eea8      	LDI  R26,LOW(_ahigh)
0015af e0b1      	LDI  R27,HIGH(_ahigh)
0015b0 0fee      	LSL  R30
0015b1 1fff      	ROL  R31
0015b2 0fea      	ADD  R30,R26
0015b3 1ffb      	ADC  R31,R27
0015b4 93fa      	ST   -Y,R31
0015b5 93ea      	ST   -Y,R30
0015b6 e3e8      	LDI  R30,LOW(65336)
0015b7 efff      	LDI  R31,HIGH(65336)
0015b8 93fa      	ST   -Y,R31
0015b9 93ea      	ST   -Y,R30
0015ba e2ec      	LDI  R30,LOW(300)
0015bb e0f1      	LDI  R31,HIGH(300)
0015bc 93fa      	ST   -Y,R31
0015bd 93ea      	ST   -Y,R30
0015be 91a0 02b1 	LDS  R26,_blink_digit
0015c0 91b0 02b2 	LDS  R27,_blink_digit+1
0015c2 d99b      	RCALL _increment_value
                 ; 0000 065F                     break;
0015c3 c056      	RJMP _0x19D
                 ; 0000 0660             case 7: increment_value(&input[item2],0,8,0);     //input selection
                 _0x1A7:
0015c4 30e7      	CPI  R30,LOW(0x7)
0015c5 e0a0      	LDI  R26,HIGH(0x7)
0015c6 07fa      	CPC  R31,R26
0015c7 f4c1      	BRNE _0x1A8
0015c8 91e0 02bd 	LDS  R30,_item2
0015ca 91f0 02be 	LDS  R31,_item2+1
0015cc efa8      	LDI  R26,LOW(_input)
0015cd e0b1      	LDI  R27,HIGH(_input)
0015ce 0fee      	LSL  R30
0015cf 1fff      	ROL  R31
0015d0 0fea      	ADD  R30,R26
0015d1 1ffb      	ADC  R31,R27
0015d2 93fa      	ST   -Y,R31
0015d3 93ea      	ST   -Y,R30
0015d4 e0e0      	LDI  R30,LOW(0)
0015d5 e0f0      	LDI  R31,HIGH(0)
0015d6 93fa      	ST   -Y,R31
0015d7 93ea      	ST   -Y,R30
0015d8 e0e8      	LDI  R30,LOW(8)
0015d9 e0f0      	LDI  R31,HIGH(8)
0015da 93fa      	ST   -Y,R31
0015db 93ea      	ST   -Y,R30
0015dc e0a0      	LDI  R26,LOW(0)
0015dd e0b0      	LDI  R27,0
0015de d97f      	RCALL _increment_value
                 ; 0000 0661                      break;
0015df c03a      	RJMP _0x19D
                 ; 0000 0662             case 8: if (input[item2]<7)
                 _0x1A8:
0015e0 30e8      	CPI  R30,LOW(0x8)
0015e1 e0a0      	LDI  R26,HIGH(0x8)
0015e2 07fa      	CPC  R31,R26
0015e3 f5a9      	BRNE _0x1AC
0015e4 91e0 02bd 	LDS  R30,_item2
0015e6 91f0 02be 	LDS  R31,_item2+1
0015e8 efa8      	LDI  R26,LOW(_input)
0015e9 e0b1      	LDI  R27,HIGH(_input)
0015ea 0fee      	LSL  R30
0015eb 1fff      	ROL  R31
0015ec 0fae      	ADD  R26,R30
0015ed 1fbf      	ADC  R27,R31
0015ee 940e 2677 	CALL __GETW1P
0015f0 9737      	SBIW R30,7
0015f1 f47c      	BRGE _0x1AA
                 ; 0000 0663                         increment_value(&dp[item2],3,3,0);       //decimal point selection for temperature
0015f2 91e0 02bd 	LDS  R30,_item2
0015f4 91f0 02be 	LDS  R31,_item2+1
0015f6 e0a8      	LDI  R26,LOW(_dp)
0015f7 e0b2      	LDI  R27,HIGH(_dp)
0015f8 0fee      	LSL  R30
0015f9 1fff      	ROL  R31
0015fa 0fea      	ADD  R30,R26
0015fb 1ffb      	ADC  R31,R27
0015fc 93fa      	ST   -Y,R31
0015fd 93ea      	ST   -Y,R30
0015fe e0e3      	LDI  R30,LOW(3)
0015ff e0f0      	LDI  R31,HIGH(3)
001600 c00e      	RJMP _0x33E
                 ; 0000 0664                     else
                 _0x1AA:
                 ; 0000 0665                         increment_value(&dp[item2],0,3,0);       //decimal point selection for voltage and current
001601 91e0 02bd 	LDS  R30,_item2
001603 91f0 02be 	LDS  R31,_item2+1
001605 e0a8      	LDI  R26,LOW(_dp)
001606 e0b2      	LDI  R27,HIGH(_dp)
001607 0fee      	LSL  R30
001608 1fff      	ROL  R31
001609 0fea      	ADD  R30,R26
00160a 1ffb      	ADC  R31,R27
00160b 93fa      	ST   -Y,R31
00160c 93ea      	ST   -Y,R30
00160d e0e0      	LDI  R30,LOW(0)
00160e e0f0      	LDI  R31,HIGH(0)
                 _0x33E:
00160f 93fa      	ST   -Y,R31
001610 93ea      	ST   -Y,R30
001611 e0e3      	LDI  R30,LOW(3)
001612 e0f0      	LDI  R31,HIGH(3)
001613 93fa      	ST   -Y,R31
001614 93ea      	ST   -Y,R30
001615 e0a0      	LDI  R26,LOW(0)
001616 e0b0      	LDI  R27,0
001617 d946      	RCALL _increment_value
                 ; 0000 0666                     break;
001618 c001      	RJMP _0x19D
                 ; 0000 0667             default:escape_menu();
                 _0x1AC:
001619 d9bd      	RCALL _escape_menu
                 ; 0000 0668                     break;
                 ; 0000 0669             }
                 _0x19D:
                 ; 0000 066A         }
                 ; 0000 066B 
                 ; 0000 066C 
                 ; 0000 066D 
                 ; 0000 066E     }
                 _0x19A:
                 _0x199:
                 ; 0000 066F else if (cal_fl)         //zero setting for all 8 channels
00161a c06b      	RJMP _0x1AD
                 _0x193:
00161b fe35      	SBRS R3,5
00161c c02d      	RJMP _0x1AE
                 ; 0000 0670     {
                 ; 0000 0671     cal_zero[mux_scan]=adc3421_read();
00161d 91e0 02b3 	LDS  R30,_mux_scan
00161f 91f0 02b4 	LDS  R31,_mux_scan+1
001621 e1a8      	LDI  R26,LOW(_cal_zero)
001622 e0b2      	LDI  R27,HIGH(_cal_zero)
001623 0fee      	LSL  R30
001624 1fff      	ROL  R31
001625 0fea      	ADD  R30,R26
001626 1ffb      	ADC  R31,R27
001627 93ff      	PUSH R31
001628 93ef      	PUSH R30
001629 940e 0c1b 	CALL _adc3421_read
00162b 91af      	POP  R26
00162c 91bf      	POP  R27
00162d 93ed      	ST   X+,R30
00162e 93fc      	ST   X,R31
                 ; 0000 0672     ee_cal_zero[mux_scan]= cal_zero[mux_scan];
00162f 91e0 02b3 	LDS  R30,_mux_scan
001631 91f0 02b4 	LDS  R31,_mux_scan+1
001633 e9a0      	LDI  R26,LOW(_ee_cal_zero)
001634 e0b0      	LDI  R27,HIGH(_ee_cal_zero)
001635 0fee      	LSL  R30
001636 1fff      	ROL  R31
001637 0fea      	ADD  R30,R26
001638 1ffb      	ADC  R31,R27
001639 010f      	MOVW R0,R30
00163a 91e0 02b3 	LDS  R30,_mux_scan
00163c 91f0 02b4 	LDS  R31,_mux_scan+1
00163e e1a8      	LDI  R26,LOW(_cal_zero)
00163f e0b2      	LDI  R27,HIGH(_cal_zero)
001640 0fee      	LSL  R30
001641 1fff      	ROL  R31
001642 0fae      	ADD  R26,R30
001643 1fbf      	ADC  R27,R31
001644 940e 2677 	CALL __GETW1P
001646 01d0      	MOVW R26,R0
001647 940e 26b0 	CALL __EEPROMWRW
                 ; 0000 0673     }
                 ; 0000 0674 else if (!menu_fl && !cal_fl && hold_fl)
001649 c03c      	RJMP _0x1AF
                 _0x1AE:
00164a fc34      	SBRC R3,4
00164b c004      	RJMP _0x1B1
00164c fc35      	SBRC R3,5
00164d c002      	RJMP _0x1B1
00164e fc37      	SBRC R3,7
00164f c001      	RJMP _0x1B2
                 _0x1B1:
001650 c035      	RJMP _0x1B0
                 _0x1B2:
                 ; 0000 0675             {
                 ; 0000 0676         display_scan_cnt++;
001651 01f5      	MOVW R30,R10
001652 9631      	ADIW R30,1
001653 015f      	MOVW R10,R30
                 ; 0000 0677         if (skip[display_scan_cnt]!=0 && display_scan_cnt <=8)
001654 eaa8      	LDI  R26,LOW(_skip)
001655 e0b1      	LDI  R27,HIGH(_skip)
001656 0fee      	LSL  R30
001657 1fff      	ROL  R31
001658 0fae      	ADD  R26,R30
001659 1fbf      	ADC  R27,R31
00165a 940e 2677 	CALL __GETW1P
00165c 9730      	SBIW R30,0
00165d f029      	BREQ _0x1B4
00165e e0e8      	LDI  R30,LOW(8)
00165f e0f0      	LDI  R31,HIGH(8)
001660 15ea      	CP   R30,R10
001661 05fb      	CPC  R31,R11
001662 f40c      	BRGE _0x1B5
                 _0x1B4:
001663 c001      	RJMP _0x1B3
                 _0x1B5:
                 ; 0000 0678         goto bypass1;
001664 c021      	RJMP _0x1B6
                 ; 0000 0679         if (display_scan_cnt >=8) display_scan_cnt =0;
                 _0x1B3:
001665 e0e8      	LDI  R30,LOW(8)
001666 e0f0      	LDI  R31,HIGH(8)
001667 16ae      	CP   R10,R30
001668 06bf      	CPC  R11,R31
001669 f014      	BRLT _0x1B7
00166a 24aa      	CLR  R10
00166b 24bb      	CLR  R11
                 ; 0000 067A         display_put(process_value[display_scan_cnt],display_scan_cnt+1,0,dummy,dummy2);
                 _0x1B7:
00166c 01f5      	MOVW R30,R10
00166d e7a8      	LDI  R26,LOW(_process_value)
00166e e0b1      	LDI  R27,HIGH(_process_value)
00166f 0fee      	LSL  R30
001670 1fff      	ROL  R31
001671 0fae      	ADD  R26,R30
001672 1fbf      	ADC  R27,R31
001673 940e 2677 	CALL __GETW1P
001675 93fa      	ST   -Y,R31
001676 93ea      	ST   -Y,R30
001677 01f5      	MOVW R30,R10
001678 9631      	ADIW R30,1
001679 93fa      	ST   -Y,R31
00167a 93ea      	ST   -Y,R30
00167b e0e0      	LDI  R30,LOW(0)
00167c e0f0      	LDI  R31,HIGH(0)
00167d 93fa      	ST   -Y,R31
00167e 93ea      	ST   -Y,R30
00167f e7e4      	LDI  R30,LOW(_dummy)
001680 e0f1      	LDI  R31,HIGH(_dummy)
001681 93fa      	ST   -Y,R31
001682 93ea      	ST   -Y,R30
001683 e7a6      	LDI  R26,LOW(_dummy2)
001684 e0b1      	LDI  R27,HIGH(_dummy2)
001685 d969      	RCALL _display_put
                 ; 0000 067B         bypass1:
                 _0x1B6:
                 ; 0000 067C         }
                 ; 0000 067D }
                 _0x1B0:
                 _0x1AF:
                 _0x1AD:
001686 9508      	RET
                 ; .FEND
                 ;
                 ;void dec_key(void)
                 ; 0000 0680 {
                 _dec_key:
                 ; .FSTART _dec_key
                 ; 0000 0681 
                 ; 0000 0682 if (menu_fl &&!cal_fl)
001687 fe34      	SBRS R3,4
001688 c002      	RJMP _0x1B9
001689 fe35      	SBRS R3,5
00168a c001      	RJMP _0x1BA
                 _0x1B9:
00168b c182      	RJMP _0x1B8
                 _0x1BA:
                 ; 0000 0683     {
                 ; 0000 0684     if (level ==1)
00168c 91a0 02bf 	LDS  R26,_level
00168e 91b0 02c0 	LDS  R27,_level+1
001690 9711      	SBIW R26,1
001691 f4f1      	BRNE _0x1BB
                 ; 0000 0685         {
                 ; 0000 0686         item1 --;
001692 ebab      	LDI  R26,LOW(_item1)
001693 e0b2      	LDI  R27,HIGH(_item1)
001694 91ed      	LD   R30,X+
001695 91fd      	LD   R31,X+
001696 9731      	SBIW R30,1
001697 93fe      	ST   -X,R31
001698 93ee      	ST   -X,R30
                 ; 0000 0687         if (item1==4) item1=2;      //skip r-lo/r-hi
001699 91a0 02bb 	LDS  R26,_item1
00169b 91b0 02bc 	LDS  R27,_item1+1
00169d 9714      	SBIW R26,4
00169e f431      	BRNE _0x1BC
00169f e0e2      	LDI  R30,LOW(2)
0016a0 e0f0      	LDI  R31,HIGH(2)
0016a1 93e0 02bb 	STS  _item1,R30
0016a3 93f0 02bc 	STS  _item1+1,R31
                 ; 0000 0688         if (item1<0) item1 =6;
                 _0x1BC:
0016a5 91a0 02bc 	LDS  R26,_item1+1
0016a7 23aa      	TST  R26
0016a8 f432      	BRPL _0x1BD
0016a9 e0e6      	LDI  R30,LOW(6)
0016aa e0f0      	LDI  R31,HIGH(6)
0016ab 93e0 02bb 	STS  _item1,R30
0016ad 93f0 02bc 	STS  _item1+1,R31
                 ; 0000 0689         }
                 _0x1BD:
                 ; 0000 068A     else if (level ==2)
0016af c15d      	RJMP _0x1BE
                 _0x1BB:
0016b0 91a0 02bf 	LDS  R26,_level
0016b2 91b0 02c0 	LDS  R27,_level+1
0016b4 9712      	SBIW R26,2
0016b5 f009      	BREQ PC+2
0016b6 c156      	RJMP _0x1BF
                 ; 0000 068B         {
                 ; 0000 068C         switch (item1)
0016b7 91e0 02bb 	LDS  R30,_item1
0016b9 91f0 02bc 	LDS  R31,_item1+1
                 ; 0000 068D             {
                 ; 0000 068E             case 0: if (item2==0) decrement_value(&gen[0],1,99,0);  //scan time
0016bb 9730      	SBIW R30,0
0016bc f009      	BREQ PC+2
0016bd c042      	RJMP _0x1C3
0016be 91e0 02bd 	LDS  R30,_item2
0016c0 91f0 02be 	LDS  R31,_item2+1
0016c2 9730      	SBIW R30,0
0016c3 f479      	BRNE _0x1C4
0016c4 e8e8      	LDI  R30,LOW(_gen)
0016c5 e0f1      	LDI  R31,HIGH(_gen)
0016c6 93fa      	ST   -Y,R31
0016c7 93ea      	ST   -Y,R30
0016c8 e0e1      	LDI  R30,LOW(1)
0016c9 e0f0      	LDI  R31,HIGH(1)
0016ca 93fa      	ST   -Y,R31
0016cb 93ea      	ST   -Y,R30
0016cc e6e3      	LDI  R30,LOW(99)
0016cd e0f0      	LDI  R31,HIGH(99)
0016ce 93fa      	ST   -Y,R31
0016cf 93ea      	ST   -Y,R30
0016d0 e0a0      	LDI  R26,LOW(0)
0016d1 e0b0      	LDI  R27,0
0016d2 d8c6      	RCALL _decrement_value
                 ; 0000 068F                     if(item2 ==1) decrement_value(&gen[1],1,242,blink_digit);//modbus id
                 _0x1C4:
0016d3 91a0 02bd 	LDS  R26,_item2
0016d5 91b0 02be 	LDS  R27,_item2+1
0016d7 9711      	SBIW R26,1
0016d8 f489      	BRNE _0x1C5
                +
0016d9 e8ea     +LDI R30 , LOW ( _gen + ( 2 ) )
0016da e0f1     +LDI R31 , HIGH ( _gen + ( 2 ) )
                 	__POINTW1MN _gen,2
0016db 93fa      	ST   -Y,R31
0016dc 93ea      	ST   -Y,R30
0016dd e0e1      	LDI  R30,LOW(1)
0016de e0f0      	LDI  R31,HIGH(1)
0016df 93fa      	ST   -Y,R31
0016e0 93ea      	ST   -Y,R30
0016e1 efe2      	LDI  R30,LOW(242)
0016e2 e0f0      	LDI  R31,HIGH(242)
0016e3 93fa      	ST   -Y,R31
0016e4 93ea      	ST   -Y,R30
0016e5 91a0 02b1 	LDS  R26,_blink_digit
0016e7 91b0 02b2 	LDS  R27,_blink_digit+1
0016e9 d8af      	RCALL _decrement_value
                 ; 0000 0690                     if (item2==2) decrement_value(&gen[2],0,3,0);   //baud rates 9600/19200/38400/115200
                 _0x1C5:
0016ea 91a0 02bd 	LDS  R26,_item2
0016ec 91b0 02be 	LDS  R27,_item2+1
0016ee 9712      	SBIW R26,2
0016ef f479      	BRNE _0x1C6
                +
0016f0 e8ec     +LDI R30 , LOW ( _gen + ( 4 ) )
0016f1 e0f1     +LDI R31 , HIGH ( _gen + ( 4 ) )
                 	__POINTW1MN _gen,4
0016f2 93fa      	ST   -Y,R31
0016f3 93ea      	ST   -Y,R30
0016f4 e0e0      	LDI  R30,LOW(0)
0016f5 e0f0      	LDI  R31,HIGH(0)
0016f6 93fa      	ST   -Y,R31
0016f7 93ea      	ST   -Y,R30
0016f8 e0e3      	LDI  R30,LOW(3)
0016f9 e0f0      	LDI  R31,HIGH(3)
0016fa 93fa      	ST   -Y,R31
0016fb 93ea      	ST   -Y,R30
0016fc e0a0      	LDI  R26,LOW(0)
0016fd e0b0      	LDI  R27,0
0016fe d89a      	RCALL _decrement_value
                 ; 0000 0691                     break;
                 _0x1C6:
0016ff c10d      	RJMP _0x1C2
                 ; 0000 0692             case 1: decrement_value(&os[item2],-999,999,blink_digit);   //offset
                 _0x1C3:
001700 30e1      	CPI  R30,LOW(0x1)
001701 e0a0      	LDI  R26,HIGH(0x1)
001702 07fa      	CPC  R31,R26
001703 f4d1      	BRNE _0x1C7
001704 91e0 02bd 	LDS  R30,_item2
001706 91f0 02be 	LDS  R31,_item2+1
001708 e9a8      	LDI  R26,LOW(_os)
001709 e0b1      	LDI  R27,HIGH(_os)
00170a 0fee      	LSL  R30
00170b 1fff      	ROL  R31
00170c 0fea      	ADD  R30,R26
00170d 1ffb      	ADC  R31,R27
00170e 93fa      	ST   -Y,R31
00170f 93ea      	ST   -Y,R30
001710 e1e9      	LDI  R30,LOW(64537)
001711 effc      	LDI  R31,HIGH(64537)
001712 93fa      	ST   -Y,R31
001713 93ea      	ST   -Y,R30
001714 eee7      	LDI  R30,LOW(999)
001715 e0f3      	LDI  R31,HIGH(999)
001716 93fa      	ST   -Y,R31
001717 93ea      	ST   -Y,R30
001718 91a0 02b1 	LDS  R26,_blink_digit
00171a 91b0 02b2 	LDS  R27,_blink_digit+1
00171c d87c      	RCALL _decrement_value
                 ; 0000 0693                     break;
00171d c0ef      	RJMP _0x1C2
                 ; 0000 0694             case 2: decrement_value(&skip[item2],0,1,0);    //skip
                 _0x1C7:
00171e 30e2      	CPI  R30,LOW(0x2)
00171f e0a0      	LDI  R26,HIGH(0x2)
001720 07fa      	CPC  R31,R26
001721 f4c1      	BRNE _0x1C8
001722 91e0 02bd 	LDS  R30,_item2
001724 91f0 02be 	LDS  R31,_item2+1
001726 eaa8      	LDI  R26,LOW(_skip)
001727 e0b1      	LDI  R27,HIGH(_skip)
001728 0fee      	LSL  R30
001729 1fff      	ROL  R31
00172a 0fea      	ADD  R30,R26
00172b 1ffb      	ADC  R31,R27
00172c 93fa      	ST   -Y,R31
00172d 93ea      	ST   -Y,R30
00172e e0e0      	LDI  R30,LOW(0)
00172f e0f0      	LDI  R31,HIGH(0)
001730 93fa      	ST   -Y,R31
001731 93ea      	ST   -Y,R30
001732 e0e1      	LDI  R30,LOW(1)
001733 e0f0      	LDI  R31,HIGH(1)
001734 93fa      	ST   -Y,R31
001735 93ea      	ST   -Y,R30
001736 e0a0      	LDI  R26,LOW(0)
001737 e0b0      	LDI  R27,0
001738 d860      	RCALL _decrement_value
                 ; 0000 0695                     break;
001739 c0d3      	RJMP _0x1C2
                 ; 0000 0696             case 3: decrement_value(&rlow[item2],-200,300,blink_digit);    //rlow
                 _0x1C8:
00173a 30e3      	CPI  R30,LOW(0x3)
00173b e0a0      	LDI  R26,HIGH(0x3)
00173c 07fa      	CPC  R31,R26
00173d f4d1      	BRNE _0x1C9
00173e 91e0 02bd 	LDS  R30,_item2
001740 91f0 02be 	LDS  R31,_item2+1
001742 eba8      	LDI  R26,LOW(_rlow)
001743 e0b1      	LDI  R27,HIGH(_rlow)
001744 0fee      	LSL  R30
001745 1fff      	ROL  R31
001746 0fea      	ADD  R30,R26
001747 1ffb      	ADC  R31,R27
001748 93fa      	ST   -Y,R31
001749 93ea      	ST   -Y,R30
00174a e3e8      	LDI  R30,LOW(65336)
00174b efff      	LDI  R31,HIGH(65336)
00174c 93fa      	ST   -Y,R31
00174d 93ea      	ST   -Y,R30
00174e e2ec      	LDI  R30,LOW(300)
00174f e0f1      	LDI  R31,HIGH(300)
001750 93fa      	ST   -Y,R31
001751 93ea      	ST   -Y,R30
001752 91a0 02b1 	LDS  R26,_blink_digit
001754 91b0 02b2 	LDS  R27,_blink_digit+1
001756 d842      	RCALL _decrement_value
                 ; 0000 0697                     break;
001757 c0b5      	RJMP _0x1C2
                 ; 0000 0698             case 4: decrement_value(&rhigh[item2],-200,300,blink_digit);   //rhigh
                 _0x1C9:
001758 30e4      	CPI  R30,LOW(0x4)
001759 e0a0      	LDI  R26,HIGH(0x4)
00175a 07fa      	CPC  R31,R26
00175b f4d1      	BRNE _0x1CA
00175c 91e0 02bd 	LDS  R30,_item2
00175e 91f0 02be 	LDS  R31,_item2+1
001760 eca8      	LDI  R26,LOW(_rhigh)
001761 e0b1      	LDI  R27,HIGH(_rhigh)
001762 0fee      	LSL  R30
001763 1fff      	ROL  R31
001764 0fea      	ADD  R30,R26
001765 1ffb      	ADC  R31,R27
001766 93fa      	ST   -Y,R31
001767 93ea      	ST   -Y,R30
001768 e3e8      	LDI  R30,LOW(65336)
001769 efff      	LDI  R31,HIGH(65336)
00176a 93fa      	ST   -Y,R31
00176b 93ea      	ST   -Y,R30
00176c e2ec      	LDI  R30,LOW(300)
00176d e0f1      	LDI  R31,HIGH(300)
00176e 93fa      	ST   -Y,R31
00176f 93ea      	ST   -Y,R30
001770 91a0 02b1 	LDS  R26,_blink_digit
001772 91b0 02b2 	LDS  R27,_blink_digit+1
001774 d824      	RCALL _decrement_value
                 ; 0000 0699                     break;
001775 c097      	RJMP _0x1C2
                 ; 0000 069A             case 5: decrement_value(&alow[item2],-200,300,blink_digit);    //alow
                 _0x1CA:
001776 30e5      	CPI  R30,LOW(0x5)
001777 e0a0      	LDI  R26,HIGH(0x5)
001778 07fa      	CPC  R31,R26
001779 f4d9      	BRNE _0x1CB
00177a 91e0 02bd 	LDS  R30,_item2
00177c 91f0 02be 	LDS  R31,_item2+1
00177e eda8      	LDI  R26,LOW(_alow)
00177f e0b1      	LDI  R27,HIGH(_alow)
001780 0fee      	LSL  R30
001781 1fff      	ROL  R31
001782 0fea      	ADD  R30,R26
001783 1ffb      	ADC  R31,R27
001784 93fa      	ST   -Y,R31
001785 93ea      	ST   -Y,R30
001786 e3e8      	LDI  R30,LOW(65336)
001787 efff      	LDI  R31,HIGH(65336)
001788 93fa      	ST   -Y,R31
001789 93ea      	ST   -Y,R30
00178a e2ec      	LDI  R30,LOW(300)
00178b e0f1      	LDI  R31,HIGH(300)
00178c 93fa      	ST   -Y,R31
00178d 93ea      	ST   -Y,R30
00178e 91a0 02b1 	LDS  R26,_blink_digit
001790 91b0 02b2 	LDS  R27,_blink_digit+1
001792 940e 0f99 	CALL _decrement_value
                 ; 0000 069B                     break;
001794 c078      	RJMP _0x1C2
                 ; 0000 069C             case 6: decrement_value(&ahigh[item2],-200,300,blink_digit);   //ahigh
                 _0x1CB:
001795 30e6      	CPI  R30,LOW(0x6)
001796 e0a0      	LDI  R26,HIGH(0x6)
001797 07fa      	CPC  R31,R26
001798 f4d9      	BRNE _0x1CC
001799 91e0 02bd 	LDS  R30,_item2
00179b 91f0 02be 	LDS  R31,_item2+1
00179d eea8      	LDI  R26,LOW(_ahigh)
00179e e0b1      	LDI  R27,HIGH(_ahigh)
00179f 0fee      	LSL  R30
0017a0 1fff      	ROL  R31
0017a1 0fea      	ADD  R30,R26
0017a2 1ffb      	ADC  R31,R27
0017a3 93fa      	ST   -Y,R31
0017a4 93ea      	ST   -Y,R30
0017a5 e3e8      	LDI  R30,LOW(65336)
0017a6 efff      	LDI  R31,HIGH(65336)
0017a7 93fa      	ST   -Y,R31
0017a8 93ea      	ST   -Y,R30
0017a9 e2ec      	LDI  R30,LOW(300)
0017aa e0f1      	LDI  R31,HIGH(300)
0017ab 93fa      	ST   -Y,R31
0017ac 93ea      	ST   -Y,R30
0017ad 91a0 02b1 	LDS  R26,_blink_digit
0017af 91b0 02b2 	LDS  R27,_blink_digit+1
0017b1 940e 0f99 	CALL _decrement_value
                 ; 0000 069D                     break;
0017b3 c059      	RJMP _0x1C2
                 ; 0000 069E             case 7: decrement_value(&input[item2],0,8,0);     //input selection
                 _0x1CC:
0017b4 30e7      	CPI  R30,LOW(0x7)
0017b5 e0a0      	LDI  R26,HIGH(0x7)
0017b6 07fa      	CPC  R31,R26
0017b7 f4c9      	BRNE _0x1CD
0017b8 91e0 02bd 	LDS  R30,_item2
0017ba 91f0 02be 	LDS  R31,_item2+1
0017bc efa8      	LDI  R26,LOW(_input)
0017bd e0b1      	LDI  R27,HIGH(_input)
0017be 0fee      	LSL  R30
0017bf 1fff      	ROL  R31
0017c0 0fea      	ADD  R30,R26
0017c1 1ffb      	ADC  R31,R27
0017c2 93fa      	ST   -Y,R31
0017c3 93ea      	ST   -Y,R30
0017c4 e0e0      	LDI  R30,LOW(0)
0017c5 e0f0      	LDI  R31,HIGH(0)
0017c6 93fa      	ST   -Y,R31
0017c7 93ea      	ST   -Y,R30
0017c8 e0e8      	LDI  R30,LOW(8)
0017c9 e0f0      	LDI  R31,HIGH(8)
0017ca 93fa      	ST   -Y,R31
0017cb 93ea      	ST   -Y,R30
0017cc e0a0      	LDI  R26,LOW(0)
0017cd e0b0      	LDI  R27,0
0017ce 940e 0f99 	CALL _decrement_value
                 ; 0000 069F                     break;
0017d0 c03c      	RJMP _0x1C2
                 ; 0000 06A0             case 8: if (input[item2]<7)
                 _0x1CD:
0017d1 30e8      	CPI  R30,LOW(0x8)
0017d2 e0a0      	LDI  R26,HIGH(0x8)
0017d3 07fa      	CPC  R31,R26
0017d4 f5b1      	BRNE _0x1D1
0017d5 91e0 02bd 	LDS  R30,_item2
0017d7 91f0 02be 	LDS  R31,_item2+1
0017d9 efa8      	LDI  R26,LOW(_input)
0017da e0b1      	LDI  R27,HIGH(_input)
0017db 0fee      	LSL  R30
0017dc 1fff      	ROL  R31
0017dd 0fae      	ADD  R26,R30
0017de 1fbf      	ADC  R27,R31
0017df 940e 2677 	CALL __GETW1P
0017e1 9737      	SBIW R30,7
0017e2 f47c      	BRGE _0x1CF
                 ; 0000 06A1                         decrement_value(&dp[item2],3,3,0);       //decimal point selection for temperature
0017e3 91e0 02bd 	LDS  R30,_item2
0017e5 91f0 02be 	LDS  R31,_item2+1
0017e7 e0a8      	LDI  R26,LOW(_dp)
0017e8 e0b2      	LDI  R27,HIGH(_dp)
0017e9 0fee      	LSL  R30
0017ea 1fff      	ROL  R31
0017eb 0fea      	ADD  R30,R26
0017ec 1ffb      	ADC  R31,R27
0017ed 93fa      	ST   -Y,R31
0017ee 93ea      	ST   -Y,R30
0017ef e0e3      	LDI  R30,LOW(3)
0017f0 e0f0      	LDI  R31,HIGH(3)
0017f1 c00e      	RJMP _0x33F
                 ; 0000 06A2                     else
                 _0x1CF:
                 ; 0000 06A3                         decrement_value(&dp[item2],0,3,0);       //decimal point selection for voltage and current
0017f2 91e0 02bd 	LDS  R30,_item2
0017f4 91f0 02be 	LDS  R31,_item2+1
0017f6 e0a8      	LDI  R26,LOW(_dp)
0017f7 e0b2      	LDI  R27,HIGH(_dp)
0017f8 0fee      	LSL  R30
0017f9 1fff      	ROL  R31
0017fa 0fea      	ADD  R30,R26
0017fb 1ffb      	ADC  R31,R27
0017fc 93fa      	ST   -Y,R31
0017fd 93ea      	ST   -Y,R30
0017fe e0e0      	LDI  R30,LOW(0)
0017ff e0f0      	LDI  R31,HIGH(0)
                 _0x33F:
001800 93fa      	ST   -Y,R31
001801 93ea      	ST   -Y,R30
001802 e0e3      	LDI  R30,LOW(3)
001803 e0f0      	LDI  R31,HIGH(3)
001804 93fa      	ST   -Y,R31
001805 93ea      	ST   -Y,R30
001806 e0a0      	LDI  R26,LOW(0)
001807 e0b0      	LDI  R27,0
001808 940e 0f99 	CALL _decrement_value
                 ; 0000 06A4                     break;
00180a c002      	RJMP _0x1C2
                 ; 0000 06A5 
                 ; 0000 06A6             default:escape_menu();
                 _0x1D1:
00180b 940e 0fd7 	CALL _escape_menu
                 ; 0000 06A7                     break;
                 ; 0000 06A8             }
                 _0x1C2:
                 ; 0000 06A9         }
                 ; 0000 06AA 
                 ; 0000 06AB 
                 ; 0000 06AC 
                 ; 0000 06AD     }
                 _0x1BF:
                 _0x1BE:
                 ; 0000 06AE else if (cal_fl)
00180d c02e      	RJMP _0x1D2
                 _0x1B8:
00180e fe35      	SBRS R3,5
00180f c02c      	RJMP _0x1D3
                 ; 0000 06AF     {
                 ; 0000 06B0     cal_span[mux_scan]=adc3421_read();
001810 91e0 02b3 	LDS  R30,_mux_scan
001812 91f0 02b4 	LDS  R31,_mux_scan+1
001814 e2a8      	LDI  R26,LOW(_cal_span)
001815 e0b2      	LDI  R27,HIGH(_cal_span)
001816 0fee      	LSL  R30
001817 1fff      	ROL  R31
001818 0fea      	ADD  R30,R26
001819 1ffb      	ADC  R31,R27
00181a 93ff      	PUSH R31
00181b 93ef      	PUSH R30
00181c 940e 0c1b 	CALL _adc3421_read
00181e 91af      	POP  R26
00181f 91bf      	POP  R27
001820 93ed      	ST   X+,R30
001821 93fc      	ST   X,R31
                 ; 0000 06B1     ee_cal_span[mux_scan] = cal_span[mux_scan];
001822 91e0 02b3 	LDS  R30,_mux_scan
001824 91f0 02b4 	LDS  R31,_mux_scan+1
001826 eaa0      	LDI  R26,LOW(_ee_cal_span)
001827 e0b0      	LDI  R27,HIGH(_ee_cal_span)
001828 0fee      	LSL  R30
001829 1fff      	ROL  R31
00182a 0fea      	ADD  R30,R26
00182b 1ffb      	ADC  R31,R27
00182c 010f      	MOVW R0,R30
00182d 91e0 02b3 	LDS  R30,_mux_scan
00182f 91f0 02b4 	LDS  R31,_mux_scan+1
001831 e2a8      	LDI  R26,LOW(_cal_span)
001832 e0b2      	LDI  R27,HIGH(_cal_span)
001833 0fee      	LSL  R30
001834 1fff      	ROL  R31
001835 0fae      	ADD  R26,R30
001836 1fbf      	ADC  R27,R31
001837 940e 2677 	CALL __GETW1P
001839 01d0      	MOVW R26,R0
00183a 940e 26b0 	CALL __EEPROMWRW
                 ; 0000 06B2     }
                 ; 0000 06B3 }
                 _0x1D3:
                 _0x1D2:
00183c 9508      	RET
                 ; .FEND
                 ;
                 ;void shf_key(void)
                 ; 0000 06B6 {
                 _shf_key:
                 ; .FSTART _shf_key
                 ; 0000 06B7     if (!menu_fl && !cal_fl) hold_fl = ~hold_fl; //toggle hold scan flag
00183d fc34      	SBRC R3,4
00183e c002      	RJMP _0x1D5
00183f fe35      	SBRS R3,5
001840 c001      	RJMP _0x1D6
                 _0x1D5:
001841 c002      	RJMP _0x1D4
                 _0x1D6:
001842 e8e0      	LDI  R30,LOW(128)
001843 263e      	EOR  R3,R30
                 ; 0000 06B8     if (blink_flag)
                 _0x1D4:
001844 fe23      	SBRS R2,3
001845 c007      	RJMP _0x1D7
                 ; 0000 06B9     blink_digit++;
001846 eba1      	LDI  R26,LOW(_blink_digit)
001847 e0b2      	LDI  R27,HIGH(_blink_digit)
001848 91ed      	LD   R30,X+
001849 91fd      	LD   R31,X+
00184a 9631      	ADIW R30,1
00184b 93fe      	ST   -X,R31
00184c 93ee      	ST   -X,R30
                 ; 0000 06BA     if (blink_digit > 3)
                 _0x1D7:
00184d 91a0 02b1 	LDS  R26,_blink_digit
00184f 91b0 02b2 	LDS  R27,_blink_digit+1
001851 9714      	SBIW R26,4
001852 f02c      	BRLT _0x1D8
                 ; 0000 06BB     blink_digit=0;
001853 e0e0      	LDI  R30,LOW(0)
001854 93e0 02b1 	STS  _blink_digit,R30
001856 93e0 02b2 	STS  _blink_digit+1,R30
                 ; 0000 06BC }
                 _0x1D8:
001858 9508      	RET
                 ; .FEND
                 ;
                 ;// Timer1 overflow interrupt service routine
                 ;interrupt [TIM1_OVF] void timer1_ovf_isr(void)
                 ; 0000 06C0 {
                 _timer1_ovf_isr:
                 ; .FSTART _timer1_ovf_isr
001859 93aa      	ST   -Y,R26
00185a 93ba      	ST   -Y,R27
00185b 93ea      	ST   -Y,R30
00185c 93fa      	ST   -Y,R31
00185d b7ef      	IN   R30,SREG
00185e 93ea      	ST   -Y,R30
                 ; 0000 06C1 // Reinitialize Timer1 value
                 ; 0000 06C2 TCNT1H=0xABA0 >> 8;
00185f eaeb      	LDI  R30,LOW(171)
001860 bded      	OUT  0x2D,R30
                 ; 0000 06C3 TCNT1L=0xABA0 & 0xff;
001861 eae0      	LDI  R30,LOW(160)
001862 bdec      	OUT  0x2C,R30
                 ; 0000 06C4 // Place your code here
                 ; 0000 06C5 qsecfl = ~qsecfl;
001863 e2e0      	LDI  R30,LOW(32)
001864 262e      	EOR  R2,R30
                 ; 0000 06C6 hsec_fl =1;
001865 9468      	SET
001866 f827      	BLD  R2,7
                 ; 0000 06C7 blinking = ~blinking;
001867 e1e0      	LDI  R30,LOW(16)
001868 262e      	EOR  R2,R30
                 ; 0000 06C8 tsec_cnt++;
001869 eba5      	LDI  R26,LOW(_tsec_cnt)
00186a e0b2      	LDI  R27,HIGH(_tsec_cnt)
00186b 91ed      	LD   R30,X+
00186c 91fd      	LD   R31,X+
00186d 9631      	ADIW R30,1
00186e 93fe      	ST   -X,R31
00186f 93ee      	ST   -X,R30
                 ; 0000 06C9 if (tsec_cnt >=(2*gen[0])) //scan time in seconds
001870 91e0 0188 	LDS  R30,_gen
001872 91f0 0189 	LDS  R31,_gen+1
001874 0fee      	LSL  R30
001875 1fff      	ROL  R31
001876 91a0 02b5 	LDS  R26,_tsec_cnt
001878 91b0 02b6 	LDS  R27,_tsec_cnt+1
00187a 17ae      	CP   R26,R30
00187b 07bf      	CPC  R27,R31
00187c f03c      	BRLT _0x1D9
                 ; 0000 06CA     {
                 ; 0000 06CB     tsec_fl =1;
00187d f826      	BLD  R2,6
                 ; 0000 06CC     tsec_cnt =0;
00187e e0e0      	LDI  R30,LOW(0)
00187f 93e0 02b5 	STS  _tsec_cnt,R30
001881 93e0 02b6 	STS  _tsec_cnt+1,R30
                 ; 0000 06CD     ser_fl =1;
001883 f836      	BLD  R3,6
                 ; 0000 06CE     }
                 ; 0000 06CF 
                 ; 0000 06D0 
                 ; 0000 06D1 }
                 _0x1D9:
001884 91e9      	LD   R30,Y+
001885 bfef      	OUT  SREG,R30
001886 91f9      	LD   R31,Y+
001887 91e9      	LD   R30,Y+
001888 91b9      	LD   R27,Y+
001889 91a9      	LD   R26,Y+
00188a 9518      	RETI
                 ; .FEND
                 ;
                 ;
                 ;
                 ;
                 ;void led_check(void)
                 ; 0000 06D7 {
                 _led_check:
                 ; .FSTART _led_check
                 ; 0000 06D8 all_led_off();
00188b efef      	LDI  R30,LOW(255)
00188c e0f0      	LDI  R31,HIGH(255)
00188d 012f      	MOVW R4,R30
                 ; 0000 06D9 all_led_off1();
00188e 013f      	MOVW R6,R30
                 ; 0000 06DA if (process_value[0] <= alow[0])
00188f 91e0 01d8 	LDS  R30,_alow
001891 91f0 01d9 	LDS  R31,_alow+1
001893 91a0 0178 	LDS  R26,_process_value
001895 91b0 0179 	LDS  R27,_process_value+1
001897 17ea      	CP   R30,R26
001898 07fb      	CPC  R31,R27
001899 f01c      	BRLT _0x1DA
                 ; 0000 06DB gled1_on();
00189a efeb      	LDI  R30,LOW(251)
00189b 226e      	AND  R6,R30
00189c 2477      	CLR  R7
                 ; 0000 06DC if (process_value[0] >= ahigh[0])
                 _0x1DA:
00189d 91e0 01e8 	LDS  R30,_ahigh
00189f 91f0 01e9 	LDS  R31,_ahigh+1
0018a1 91a0 0178 	LDS  R26,_process_value
0018a3 91b0 0179 	LDS  R27,_process_value+1
0018a5 17ae      	CP   R26,R30
0018a6 07bf      	CPC  R27,R31
0018a7 f01c      	BRLT _0x1DB
                 ; 0000 06DD rled1_on();
0018a8 efeb      	LDI  R30,LOW(251)
0018a9 224e      	AND  R4,R30
0018aa 2455      	CLR  R5
                 ; 0000 06DE 
                 ; 0000 06DF 
                 ; 0000 06E0 if (skip[1] ==0)
                 _0x1DB:
                +
0018ab 91e0 01aa+LDS R30 , _skip + ( 2 )
0018ad 91f0 01ab+LDS R31 , _skip + ( 2 ) + 1
                 	__GETW1MN _skip,2
0018af 9730      	SBIW R30,0
0018b0 f4e1      	BRNE _0x1DC
                 ; 0000 06E1     {
                 ; 0000 06E2     if (process_value[1] <= alow[1])
                +
0018b1 91a0 017a+LDS R26 , _process_value + ( 2 )
0018b3 91b0 017b+LDS R27 , _process_value + ( 2 ) + 1
                 	__GETW2MN _process_value,2
                +
0018b5 91e0 01da+LDS R30 , _alow + ( 2 )
0018b7 91f0 01db+LDS R31 , _alow + ( 2 ) + 1
                 	__GETW1MN _alow,2
0018b9 17ea      	CP   R30,R26
0018ba 07fb      	CPC  R31,R27
0018bb f01c      	BRLT _0x1DD
                 ; 0000 06E3     gled2_on();
0018bc efed      	LDI  R30,LOW(253)
0018bd 226e      	AND  R6,R30
0018be 2477      	CLR  R7
                 ; 0000 06E4     if (process_value[1] >= ahigh[1])
                 _0x1DD:
                +
0018bf 91a0 017a+LDS R26 , _process_value + ( 2 )
0018c1 91b0 017b+LDS R27 , _process_value + ( 2 ) + 1
                 	__GETW2MN _process_value,2
                +
0018c3 91e0 01ea+LDS R30 , _ahigh + ( 2 )
0018c5 91f0 01eb+LDS R31 , _ahigh + ( 2 ) + 1
                 	__GETW1MN _ahigh,2
0018c7 17ae      	CP   R26,R30
0018c8 07bf      	CPC  R27,R31
0018c9 f01c      	BRLT _0x1DE
                 ; 0000 06E5     rled2_on();
0018ca efed      	LDI  R30,LOW(253)
0018cb 224e      	AND  R4,R30
0018cc 2455      	CLR  R5
                 ; 0000 06E6 
                 ; 0000 06E7     }
                 _0x1DE:
                 ; 0000 06E8 if (skip[2] ==0)
                 _0x1DC:
                +
0018cd 91e0 01ac+LDS R30 , _skip + ( 4 )
0018cf 91f0 01ad+LDS R31 , _skip + ( 4 ) + 1
                 	__GETW1MN _skip,4
0018d1 9730      	SBIW R30,0
0018d2 f4e1      	BRNE _0x1DF
                 ; 0000 06E9     {
                 ; 0000 06EA     if (process_value[2] <= alow[2])
                +
0018d3 91a0 017c+LDS R26 , _process_value + ( 4 )
0018d5 91b0 017d+LDS R27 , _process_value + ( 4 ) + 1
                 	__GETW2MN _process_value,4
                +
0018d7 91e0 01dc+LDS R30 , _alow + ( 4 )
0018d9 91f0 01dd+LDS R31 , _alow + ( 4 ) + 1
                 	__GETW1MN _alow,4
0018db 17ea      	CP   R30,R26
0018dc 07fb      	CPC  R31,R27
0018dd f01c      	BRLT _0x1E0
                 ; 0000 06EB     gled3_on();
0018de efee      	LDI  R30,LOW(254)
0018df 226e      	AND  R6,R30
0018e0 2477      	CLR  R7
                 ; 0000 06EC     if (process_value[2] >= ahigh[2])
                 _0x1E0:
                +
0018e1 91a0 017c+LDS R26 , _process_value + ( 4 )
0018e3 91b0 017d+LDS R27 , _process_value + ( 4 ) + 1
                 	__GETW2MN _process_value,4
                +
0018e5 91e0 01ec+LDS R30 , _ahigh + ( 4 )
0018e7 91f0 01ed+LDS R31 , _ahigh + ( 4 ) + 1
                 	__GETW1MN _ahigh,4
0018e9 17ae      	CP   R26,R30
0018ea 07bf      	CPC  R27,R31
0018eb f01c      	BRLT _0x1E1
                 ; 0000 06ED     rled3_on();
0018ec efee      	LDI  R30,LOW(254)
0018ed 224e      	AND  R4,R30
0018ee 2455      	CLR  R5
                 ; 0000 06EE 
                 ; 0000 06EF     }
                 _0x1E1:
                 ; 0000 06F0 if (skip[3] ==0)
                 _0x1DF:
                +
0018ef 91e0 01ae+LDS R30 , _skip + ( 6 )
0018f1 91f0 01af+LDS R31 , _skip + ( 6 ) + 1
                 	__GETW1MN _skip,6
0018f3 9730      	SBIW R30,0
0018f4 f4e1      	BRNE _0x1E2
                 ; 0000 06F1     {
                 ; 0000 06F2     if (process_value[3] <= alow[3])
                +
0018f5 91a0 017e+LDS R26 , _process_value + ( 6 )
0018f7 91b0 017f+LDS R27 , _process_value + ( 6 ) + 1
                 	__GETW2MN _process_value,6
                +
0018f9 91e0 01de+LDS R30 , _alow + ( 6 )
0018fb 91f0 01df+LDS R31 , _alow + ( 6 ) + 1
                 	__GETW1MN _alow,6
0018fd 17ea      	CP   R30,R26
0018fe 07fb      	CPC  R31,R27
0018ff f01c      	BRLT _0x1E3
                 ; 0000 06F3     gled4_on();
001900 efe7      	LDI  R30,LOW(247)
001901 226e      	AND  R6,R30
001902 2477      	CLR  R7
                 ; 0000 06F4     if (process_value[3] >= ahigh[3])
                 _0x1E3:
                +
001903 91a0 017e+LDS R26 , _process_value + ( 6 )
001905 91b0 017f+LDS R27 , _process_value + ( 6 ) + 1
                 	__GETW2MN _process_value,6
                +
001907 91e0 01ee+LDS R30 , _ahigh + ( 6 )
001909 91f0 01ef+LDS R31 , _ahigh + ( 6 ) + 1
                 	__GETW1MN _ahigh,6
00190b 17ae      	CP   R26,R30
00190c 07bf      	CPC  R27,R31
00190d f01c      	BRLT _0x1E4
                 ; 0000 06F5     rled4_on();
00190e efe7      	LDI  R30,LOW(247)
00190f 224e      	AND  R4,R30
001910 2455      	CLR  R5
                 ; 0000 06F6 
                 ; 0000 06F7     }
                 _0x1E4:
                 ; 0000 06F8 if (skip[4] ==0)
                 _0x1E2:
                +
001911 91e0 01b0+LDS R30 , _skip + ( 8 )
001913 91f0 01b1+LDS R31 , _skip + ( 8 ) + 1
                 	__GETW1MN _skip,8
001915 9730      	SBIW R30,0
001916 f4e1      	BRNE _0x1E5
                 ; 0000 06F9     {
                 ; 0000 06FA     if (process_value[4] <= alow[4])
                +
001917 91a0 0180+LDS R26 , _process_value + ( 8 )
001919 91b0 0181+LDS R27 , _process_value + ( 8 ) + 1
                 	__GETW2MN _process_value,8
                +
00191b 91e0 01e0+LDS R30 , _alow + ( 8 )
00191d 91f0 01e1+LDS R31 , _alow + ( 8 ) + 1
                 	__GETW1MN _alow,8
00191f 17ea      	CP   R30,R26
001920 07fb      	CPC  R31,R27
001921 f01c      	BRLT _0x1E6
                 ; 0000 06FB     gled5_on();
001922 eeef      	LDI  R30,LOW(239)
001923 226e      	AND  R6,R30
001924 2477      	CLR  R7
                 ; 0000 06FC     if (process_value[4] >= ahigh[4])
                 _0x1E6:
                +
001925 91a0 0180+LDS R26 , _process_value + ( 8 )
001927 91b0 0181+LDS R27 , _process_value + ( 8 ) + 1
                 	__GETW2MN _process_value,8
                +
001929 91e0 01f0+LDS R30 , _ahigh + ( 8 )
00192b 91f0 01f1+LDS R31 , _ahigh + ( 8 ) + 1
                 	__GETW1MN _ahigh,8
00192d 17ae      	CP   R26,R30
00192e 07bf      	CPC  R27,R31
00192f f01c      	BRLT _0x1E7
                 ; 0000 06FD     rled5_on();
001930 eeef      	LDI  R30,LOW(239)
001931 224e      	AND  R4,R30
001932 2455      	CLR  R5
                 ; 0000 06FE     }
                 _0x1E7:
                 ; 0000 06FF if (skip[5] ==0)
                 _0x1E5:
                +
001933 91e0 01b2+LDS R30 , _skip + ( 10 )
001935 91f0 01b3+LDS R31 , _skip + ( 10 ) + 1
                 	__GETW1MN _skip,10
001937 9730      	SBIW R30,0
001938 f4e1      	BRNE _0x1E8
                 ; 0000 0700     {
                 ; 0000 0701     if (process_value[5] <= alow[5])
                +
001939 91a0 0182+LDS R26 , _process_value + ( 10 )
00193b 91b0 0183+LDS R27 , _process_value + ( 10 ) + 1
                 	__GETW2MN _process_value,10
                +
00193d 91e0 01e2+LDS R30 , _alow + ( 10 )
00193f 91f0 01e3+LDS R31 , _alow + ( 10 ) + 1
                 	__GETW1MN _alow,10
001941 17ea      	CP   R30,R26
001942 07fb      	CPC  R31,R27
001943 f01c      	BRLT _0x1E9
                 ; 0000 0702     gled6_on();
001944 edef      	LDI  R30,LOW(223)
001945 226e      	AND  R6,R30
001946 2477      	CLR  R7
                 ; 0000 0703     if (process_value[5] >= ahigh[5])
                 _0x1E9:
                +
001947 91a0 0182+LDS R26 , _process_value + ( 10 )
001949 91b0 0183+LDS R27 , _process_value + ( 10 ) + 1
                 	__GETW2MN _process_value,10
                +
00194b 91e0 01f2+LDS R30 , _ahigh + ( 10 )
00194d 91f0 01f3+LDS R31 , _ahigh + ( 10 ) + 1
                 	__GETW1MN _ahigh,10
00194f 17ae      	CP   R26,R30
001950 07bf      	CPC  R27,R31
001951 f01c      	BRLT _0x1EA
                 ; 0000 0704     rled6_on();
001952 edef      	LDI  R30,LOW(223)
001953 224e      	AND  R4,R30
001954 2455      	CLR  R5
                 ; 0000 0705     }
                 _0x1EA:
                 ; 0000 0706 if (skip[6] ==0)
                 _0x1E8:
                +
001955 91e0 01b4+LDS R30 , _skip + ( 12 )
001957 91f0 01b5+LDS R31 , _skip + ( 12 ) + 1
                 	__GETW1MN _skip,12
001959 9730      	SBIW R30,0
00195a f4e1      	BRNE _0x1EB
                 ; 0000 0707     {
                 ; 0000 0708     if (process_value[6] <= alow[6])
                +
00195b 91a0 0184+LDS R26 , _process_value + ( 12 )
00195d 91b0 0185+LDS R27 , _process_value + ( 12 ) + 1
                 	__GETW2MN _process_value,12
                +
00195f 91e0 01e4+LDS R30 , _alow + ( 12 )
001961 91f0 01e5+LDS R31 , _alow + ( 12 ) + 1
                 	__GETW1MN _alow,12
001963 17ea      	CP   R30,R26
001964 07fb      	CPC  R31,R27
001965 f01c      	BRLT _0x1EC
                 ; 0000 0709     gled7_on();
001966 ebef      	LDI  R30,LOW(191)
001967 226e      	AND  R6,R30
001968 2477      	CLR  R7
                 ; 0000 070A     if (process_value[6] >= ahigh[6])
                 _0x1EC:
                +
001969 91a0 0184+LDS R26 , _process_value + ( 12 )
00196b 91b0 0185+LDS R27 , _process_value + ( 12 ) + 1
                 	__GETW2MN _process_value,12
                +
00196d 91e0 01f4+LDS R30 , _ahigh + ( 12 )
00196f 91f0 01f5+LDS R31 , _ahigh + ( 12 ) + 1
                 	__GETW1MN _ahigh,12
001971 17ae      	CP   R26,R30
001972 07bf      	CPC  R27,R31
001973 f01c      	BRLT _0x1ED
                 ; 0000 070B     rled7_on();
001974 ebef      	LDI  R30,LOW(191)
001975 224e      	AND  R4,R30
001976 2455      	CLR  R5
                 ; 0000 070C     }
                 _0x1ED:
                 ; 0000 070D //if (skip[7] ==0)
                 ; 0000 070E //    {
                 ; 0000 070F //    if (process_value[7] <= alow[7])
                 ; 0000 0710 //    gled8_on();
                 ; 0000 0711 //    if (process_value[7] >= ahigh[7])
                 ; 0000 0712 //    rled8_on();
                 ; 0000 0713 //    }
                 ; 0000 0714 }
                 _0x1EB:
001977 9508      	RET
                 ; .FEND
                 ;
                 ;void  relay_logic()
                 ; 0000 0717 {
                 _relay_logic:
                 ; .FSTART _relay_logic
                 ; 0000 0718 if (led_status ==0xff)
001978 efef      	LDI  R30,LOW(255)
001979 e0f0      	LDI  R31,HIGH(255)
00197a 15e4      	CP   R30,R4
00197b 05f5      	CPC  R31,R5
00197c f411      	BRNE _0x1EE
                 ; 0000 0719 relay1 =1;
00197d 9a97      	SBI  0x12,7
                 ; 0000 071A else
00197e c001      	RJMP _0x1F1
                 _0x1EE:
                 ; 0000 071B relay1 =0;
00197f 9897      	CBI  0x12,7
                 ; 0000 071C 
                 ; 0000 071D if (led_status1 ==0xff)
                 _0x1F1:
001980 efef      	LDI  R30,LOW(255)
001981 e0f0      	LDI  R31,HIGH(255)
001982 15e6      	CP   R30,R6
001983 05f7      	CPC  R31,R7
001984 f411      	BRNE _0x1F4
                 ; 0000 071E relay2 =1;
001985 9a96      	SBI  0x12,6
                 ; 0000 071F else
001986 c001      	RJMP _0x1F7
                 _0x1F4:
                 ; 0000 0720 relay2 =0;
001987 9896      	CBI  0x12,6
                 ; 0000 0721 }
                 _0x1F7:
001988 9508      	RET
                 ; .FEND
                 ;
                 ;void pv_update(void)
                 ; 0000 0724 {
                 _pv_update:
                 ; .FSTART _pv_update
                 ; 0000 0725 int adc_value,min_val,max_val;
                 ; 0000 0726 if (!cal_fl)
001989 940e 26c9 	CALL __SAVELOCR6
                 ;	adc_value -> R16,R17
                 ;	min_val -> R18,R19
                 ;	max_val -> R20,R21
00198b fc35      	SBRC R3,5
00198c c477      	RJMP _0x1FA
                 ; 0000 0727 {
                 ; 0000 0728 adc_value=adc3421_read();
00198d 940e 0c1b 	CALL _adc3421_read
00198f 018f      	MOVW R16,R30
                 ; 0000 0729 if (mux_scan ==7 && tc_fl)  //added to calculate ambient value
001990 91a0 02b3 	LDS  R26,_mux_scan
001992 91b0 02b4 	LDS  R27,_mux_scan+1
001994 9717      	SBIW R26,7
001995 f411      	BRNE _0x1FC
001996 fc21      	SBRC R2,1
001997 c001      	RJMP _0x1FD
                 _0x1FC:
001998 c028      	RJMP _0x1FB
                 _0x1FD:
                 ; 0000 072A {
                 ; 0000 072B if ( adc_value >= cal_zero[7])
                +
001999 91e0 0226+LDS R30 , _cal_zero + ( 14 )
00199b 91f0 0227+LDS R31 , _cal_zero + ( 14 ) + 1
                 	__GETW1MN _cal_zero,14
00199d 170e      	CP   R16,R30
00199e 071f      	CPC  R17,R31
00199f f07c      	BRLT _0x1FE
                 ; 0000 072C {
                 ; 0000 072D ambient_val = 30 + (adc_value - cal_zero[7])/22;
                +
0019a0 91a0 0226+LDS R26 , _cal_zero + ( 14 )
0019a2 91b0 0227+LDS R27 , _cal_zero + ( 14 ) + 1
                 	__GETW2MN _cal_zero,14
0019a4 01f8      	MOVW R30,R16
0019a5 1bea      	SUB  R30,R26
0019a6 0bfb      	SBC  R31,R27
0019a7 01df      	MOVW R26,R30
0019a8 e1e6      	LDI  R30,LOW(22)
0019a9 e0f0      	LDI  R31,HIGH(22)
0019aa 940e 2619 	CALL __DIVW21
0019ac 967e      	ADIW R30,30
0019ad 016f      	MOVW R12,R30
                 ; 0000 072E }
                 ; 0000 072F else
0019ae c011      	RJMP _0x1FF
                 _0x1FE:
                 ; 0000 0730 {
                 ; 0000 0731 ambient_val = 30 - (adc_value - cal_zero[7])/22;
                +
0019af 91a0 0226+LDS R26 , _cal_zero + ( 14 )
0019b1 91b0 0227+LDS R27 , _cal_zero + ( 14 ) + 1
                 	__GETW2MN _cal_zero,14
0019b3 01f8      	MOVW R30,R16
0019b4 1bea      	SUB  R30,R26
0019b5 0bfb      	SBC  R31,R27
0019b6 01df      	MOVW R26,R30
0019b7 e1e6      	LDI  R30,LOW(22)
0019b8 e0f0      	LDI  R31,HIGH(22)
0019b9 940e 2619 	CALL __DIVW21
0019bb e1ae      	LDI  R26,LOW(30)
0019bc e0b0      	LDI  R27,HIGH(30)
0019bd 1bae      	SUB  R26,R30
0019be 0bbf      	SBC  R27,R31
0019bf 016d      	MOVW R12,R26
                 ; 0000 0732 }
                 _0x1FF:
                 ; 0000 0733 
                 ; 0000 0734 
                 ; 0000 0735 }
                 ; 0000 0736 else
0019c0 c3cc      	RJMP _0x200
                 _0x1FB:
                 ; 0000 0737 {
                 ; 0000 0738 //process_value[mux_scan] = ((long)adc_value -(long)cal_zero[mux_scan]) * 10000 / ((long)cal_span[mux_scan]- (long)cal_z ...
                 ; 0000 0739 switch (input[mux_scan])
0019c1 91e0 02b3 	LDS  R30,_mux_scan
0019c3 91f0 02b4 	LDS  R31,_mux_scan+1
0019c5 efa8      	LDI  R26,LOW(_input)
0019c6 e0b1      	LDI  R27,HIGH(_input)
0019c7 0fee      	LSL  R30
0019c8 1fff      	ROL  R31
0019c9 0fae      	ADD  R26,R30
0019ca 1fbf      	ADC  R27,R31
0019cb 940e 2677 	CALL __GETW1P
                 ; 0000 073A     {
                 ; 0000 073B     case 0: process_value[mux_scan] = linearise_p(adc_value,cal_zero[mux_scan],cal_span[mux_scan])+os[mux_scan];
0019cd 9730      	SBIW R30,0
0019ce f009      	BREQ PC+2
0019cf c051      	RJMP _0x204
0019d0 91e0 02b3 	LDS  R30,_mux_scan
0019d2 91f0 02b4 	LDS  R31,_mux_scan+1
0019d4 e7a8      	LDI  R26,LOW(_process_value)
0019d5 e0b1      	LDI  R27,HIGH(_process_value)
0019d6 0fee      	LSL  R30
0019d7 1fff      	ROL  R31
0019d8 0fea      	ADD  R30,R26
0019d9 1ffb      	ADC  R31,R27
0019da 93ff      	PUSH R31
0019db 93ef      	PUSH R30
0019dc 01f8      	MOVW R30,R16
0019dd 940e 25ca 	CALL __CWD1
0019df 940e 2497 	CALL __CDF1
0019e1 940e 2689 	CALL __PUTPARD1
0019e3 91e0 02b3 	LDS  R30,_mux_scan
0019e5 91f0 02b4 	LDS  R31,_mux_scan+1
0019e7 e1a8      	LDI  R26,LOW(_cal_zero)
0019e8 e0b2      	LDI  R27,HIGH(_cal_zero)
0019e9 0fee      	LSL  R30
0019ea 1fff      	ROL  R31
0019eb 0fae      	ADD  R26,R30
0019ec 1fbf      	ADC  R27,R31
0019ed 940e 2677 	CALL __GETW1P
0019ef 940e 25ca 	CALL __CWD1
0019f1 940e 2497 	CALL __CDF1
0019f3 940e 2689 	CALL __PUTPARD1
0019f5 91e0 02b3 	LDS  R30,_mux_scan
0019f7 91f0 02b4 	LDS  R31,_mux_scan+1
0019f9 e2a8      	LDI  R26,LOW(_cal_span)
0019fa e0b2      	LDI  R27,HIGH(_cal_span)
0019fb 0fee      	LSL  R30
0019fc 1fff      	ROL  R31
0019fd 0fae      	ADD  R26,R30
0019fe 1fbf      	ADC  R27,R31
0019ff 940e 2677 	CALL __GETW1P
001a01 940e 25ca 	CALL __CWD1
001a03 940e 2497 	CALL __CDF1
001a05 01df      	MOVW R26,R30
001a06 01cb      	MOVW R24,R22
001a07 940e 0c39 	CALL _linearise_p
001a09 010f      	MOVW R0,R30
001a0a 91e0 02b3 	LDS  R30,_mux_scan
001a0c 91f0 02b4 	LDS  R31,_mux_scan+1
001a0e e9a8      	LDI  R26,LOW(_os)
001a0f e0b1      	LDI  R27,HIGH(_os)
001a10 0fee      	LSL  R30
001a11 1fff      	ROL  R31
001a12 0fae      	ADD  R26,R30
001a13 1fbf      	ADC  R27,R31
001a14 940e 2677 	CALL __GETW1P
001a16 0de0      	ADD  R30,R0
001a17 1df1      	ADC  R31,R1
001a18 91af      	POP  R26
001a19 91bf      	POP  R27
001a1a 93ed      	ST   X+,R30
001a1b 93fc      	ST   X,R31
                 ; 0000 073C             min_val = -1999;
                +
001a1c e321     +LDI R18 , LOW ( - 1999 )
001a1d ef38     +LDI R19 , HIGH ( - 1999 )
                 	__GETWRN 18,19,-1999
                 ; 0000 073D             max_val = 6000;
                +
001a1e e740     +LDI R20 , LOW ( 6000 )
001a1f e157     +LDI R21 , HIGH ( 6000 )
                 	__GETWRN 20,21,6000
                 ; 0000 073E             break;
001a20 c326      	RJMP _0x203
                 ; 0000 073F     case 1: process_value[mux_scan] = linearise_p(adc_value,cal_zero[mux_scan],cal_span[mux_scan])/10 +os[mux_scan];
                 _0x204:
001a21 30e1      	CPI  R30,LOW(0x1)
001a22 e0a0      	LDI  R26,HIGH(0x1)
001a23 07fa      	CPC  R31,R26
001a24 f009      	BREQ PC+2
001a25 c056      	RJMP _0x205
001a26 91e0 02b3 	LDS  R30,_mux_scan
001a28 91f0 02b4 	LDS  R31,_mux_scan+1
001a2a e7a8      	LDI  R26,LOW(_process_value)
001a2b e0b1      	LDI  R27,HIGH(_process_value)
001a2c 0fee      	LSL  R30
001a2d 1fff      	ROL  R31
001a2e 0fea      	ADD  R30,R26
001a2f 1ffb      	ADC  R31,R27
001a30 93ff      	PUSH R31
001a31 93ef      	PUSH R30
001a32 01f8      	MOVW R30,R16
001a33 940e 25ca 	CALL __CWD1
001a35 940e 2497 	CALL __CDF1
001a37 940e 2689 	CALL __PUTPARD1
001a39 91e0 02b3 	LDS  R30,_mux_scan
001a3b 91f0 02b4 	LDS  R31,_mux_scan+1
001a3d e1a8      	LDI  R26,LOW(_cal_zero)
001a3e e0b2      	LDI  R27,HIGH(_cal_zero)
001a3f 0fee      	LSL  R30
001a40 1fff      	ROL  R31
001a41 0fae      	ADD  R26,R30
001a42 1fbf      	ADC  R27,R31
001a43 940e 2677 	CALL __GETW1P
001a45 940e 25ca 	CALL __CWD1
001a47 940e 2497 	CALL __CDF1
001a49 940e 2689 	CALL __PUTPARD1
001a4b 91e0 02b3 	LDS  R30,_mux_scan
001a4d 91f0 02b4 	LDS  R31,_mux_scan+1
001a4f e2a8      	LDI  R26,LOW(_cal_span)
001a50 e0b2      	LDI  R27,HIGH(_cal_span)
001a51 0fee      	LSL  R30
001a52 1fff      	ROL  R31
001a53 0fae      	ADD  R26,R30
001a54 1fbf      	ADC  R27,R31
001a55 940e 2677 	CALL __GETW1P
001a57 940e 25ca 	CALL __CWD1
001a59 940e 2497 	CALL __CDF1
001a5b 01df      	MOVW R26,R30
001a5c 01cb      	MOVW R24,R22
001a5d 940e 0c39 	CALL _linearise_p
001a5f 01df      	MOVW R26,R30
001a60 e0ea      	LDI  R30,LOW(10)
001a61 e0f0      	LDI  R31,HIGH(10)
001a62 940e 2619 	CALL __DIVW21
001a64 010f      	MOVW R0,R30
001a65 91e0 02b3 	LDS  R30,_mux_scan
001a67 91f0 02b4 	LDS  R31,_mux_scan+1
001a69 e9a8      	LDI  R26,LOW(_os)
001a6a e0b1      	LDI  R27,HIGH(_os)
001a6b 0fee      	LSL  R30
001a6c 1fff      	ROL  R31
001a6d 0fae      	ADD  R26,R30
001a6e 1fbf      	ADC  R27,R31
001a6f 940e 2677 	CALL __GETW1P
001a71 0de0      	ADD  R30,R0
001a72 1df1      	ADC  R31,R1
001a73 91af      	POP  R26
001a74 91bf      	POP  R27
001a75 93ed      	ST   X+,R30
001a76 93fc      	ST   X,R31
                 ; 0000 0740             min_val = -199;
                +
001a77 e329     +LDI R18 , LOW ( - 199 )
001a78 ef3f     +LDI R19 , HIGH ( - 199 )
                 	__GETWRN 18,19,-199
                 ; 0000 0741             max_val = 600;
                +
001a79 e548     +LDI R20 , LOW ( 600 )
001a7a e052     +LDI R21 , HIGH ( 600 )
                 	__GETWRN 20,21,600
                 ; 0000 0742             break;
001a7b c2cb      	RJMP _0x203
                 ; 0000 0743     case 2: process_value[mux_scan] = linearise_tc(adc_value,cal_zero[mux_scan],cal_span[mux_scan],15,table_j,5000)+os[m ...
                 _0x205:
001a7c 30e2      	CPI  R30,LOW(0x2)
001a7d e0a0      	LDI  R26,HIGH(0x2)
001a7e 07fa      	CPC  R31,R26
001a7f f009      	BREQ PC+2
001a80 c05d      	RJMP _0x206
001a81 91e0 02b3 	LDS  R30,_mux_scan
001a83 91f0 02b4 	LDS  R31,_mux_scan+1
001a85 e7a8      	LDI  R26,LOW(_process_value)
001a86 e0b1      	LDI  R27,HIGH(_process_value)
001a87 0fee      	LSL  R30
001a88 1fff      	ROL  R31
001a89 0fea      	ADD  R30,R26
001a8a 1ffb      	ADC  R31,R27
001a8b 93ff      	PUSH R31
001a8c 93ef      	PUSH R30
001a8d 01f8      	MOVW R30,R16
001a8e 940e 25ca 	CALL __CWD1
001a90 940e 2497 	CALL __CDF1
001a92 940e 2689 	CALL __PUTPARD1
001a94 91e0 02b3 	LDS  R30,_mux_scan
001a96 91f0 02b4 	LDS  R31,_mux_scan+1
001a98 e1a8      	LDI  R26,LOW(_cal_zero)
001a99 e0b2      	LDI  R27,HIGH(_cal_zero)
001a9a 0fee      	LSL  R30
001a9b 1fff      	ROL  R31
001a9c 0fae      	ADD  R26,R30
001a9d 1fbf      	ADC  R27,R31
001a9e 940e 2677 	CALL __GETW1P
001aa0 940e 25ca 	CALL __CWD1
001aa2 940e 2497 	CALL __CDF1
001aa4 940e 2689 	CALL __PUTPARD1
001aa6 91e0 02b3 	LDS  R30,_mux_scan
001aa8 91f0 02b4 	LDS  R31,_mux_scan+1
001aaa e2a8      	LDI  R26,LOW(_cal_span)
001aab e0b2      	LDI  R27,HIGH(_cal_span)
001aac 0fee      	LSL  R30
001aad 1fff      	ROL  R31
001aae 0fae      	ADD  R26,R30
001aaf 1fbf      	ADC  R27,R31
001ab0 940e 2677 	CALL __GETW1P
001ab2 940e 25ca 	CALL __CWD1
001ab4 940e 2497 	CALL __CDF1
001ab6 940e 2689 	CALL __PUTPARD1
001ab8 e0ef      	LDI  R30,LOW(15)
001ab9 e0f0      	LDI  R31,HIGH(15)
001aba 93fa      	ST   -Y,R31
001abb 93ea      	ST   -Y,R30
001abc e4e7      	LDI  R30,LOW(_table_j)
001abd e0f6      	LDI  R31,HIGH(_table_j)
001abe 93fa      	ST   -Y,R31
001abf 93ea      	ST   -Y,R30
                +
001ac0 e8a8     +LDI R26 , LOW ( 0x1388 )
001ac1 e1b3     +LDI R27 , HIGH ( 0x1388 )
001ac2 e080     +LDI R24 , BYTE3 ( 0x1388 )
001ac3 e090     +LDI R25 , BYTE4 ( 0x1388 )
                 	__GETD2N 0x1388
001ac4 940e 0dd5 	CALL _linearise_tc
001ac6 010f      	MOVW R0,R30
001ac7 91e0 02b3 	LDS  R30,_mux_scan
001ac9 91f0 02b4 	LDS  R31,_mux_scan+1
001acb e9a8      	LDI  R26,LOW(_os)
001acc e0b1      	LDI  R27,HIGH(_os)
001acd 0fee      	LSL  R30
001ace 1fff      	ROL  R31
001acf 0fae      	ADD  R26,R30
001ad0 1fbf      	ADC  R27,R31
001ad1 940e 2677 	CALL __GETW1P
001ad3 0de0      	ADD  R30,R0
001ad4 1df1      	ADC  R31,R1
001ad5 91af      	POP  R26
001ad6 91bf      	POP  R27
001ad7 93ed      	ST   X+,R30
001ad8 93fc      	ST   X,R31
                 ; 0000 0744             min_val =0;
                +
001ad9 e020     +LDI R18 , LOW ( 0 )
001ada e030     +LDI R19 , HIGH ( 0 )
                 	__GETWRN 18,19,0
                 ; 0000 0745             max_val = 700;
                +
001adb eb4c     +LDI R20 , LOW ( 700 )
001adc e052     +LDI R21 , HIGH ( 700 )
                 	__GETWRN 20,21,700
                 ; 0000 0746             break;
001add c269      	RJMP _0x203
                 ; 0000 0747     case 3: process_value[mux_scan] = linearise_tc(adc_value,cal_zero[mux_scan],cal_span[mux_scan],28,table_k,5000)+os[m ...
                 _0x206:
001ade 30e3      	CPI  R30,LOW(0x3)
001adf e0a0      	LDI  R26,HIGH(0x3)
001ae0 07fa      	CPC  R31,R26
001ae1 f009      	BREQ PC+2
001ae2 c05d      	RJMP _0x207
001ae3 91e0 02b3 	LDS  R30,_mux_scan
001ae5 91f0 02b4 	LDS  R31,_mux_scan+1
001ae7 e7a8      	LDI  R26,LOW(_process_value)
001ae8 e0b1      	LDI  R27,HIGH(_process_value)
001ae9 0fee      	LSL  R30
001aea 1fff      	ROL  R31
001aeb 0fea      	ADD  R30,R26
001aec 1ffb      	ADC  R31,R27
001aed 93ff      	PUSH R31
001aee 93ef      	PUSH R30
001aef 01f8      	MOVW R30,R16
001af0 940e 25ca 	CALL __CWD1
001af2 940e 2497 	CALL __CDF1
001af4 940e 2689 	CALL __PUTPARD1
001af6 91e0 02b3 	LDS  R30,_mux_scan
001af8 91f0 02b4 	LDS  R31,_mux_scan+1
001afa e1a8      	LDI  R26,LOW(_cal_zero)
001afb e0b2      	LDI  R27,HIGH(_cal_zero)
001afc 0fee      	LSL  R30
001afd 1fff      	ROL  R31
001afe 0fae      	ADD  R26,R30
001aff 1fbf      	ADC  R27,R31
001b00 940e 2677 	CALL __GETW1P
001b02 940e 25ca 	CALL __CWD1
001b04 940e 2497 	CALL __CDF1
001b06 940e 2689 	CALL __PUTPARD1
001b08 91e0 02b3 	LDS  R30,_mux_scan
001b0a 91f0 02b4 	LDS  R31,_mux_scan+1
001b0c e2a8      	LDI  R26,LOW(_cal_span)
001b0d e0b2      	LDI  R27,HIGH(_cal_span)
001b0e 0fee      	LSL  R30
001b0f 1fff      	ROL  R31
001b10 0fae      	ADD  R26,R30
001b11 1fbf      	ADC  R27,R31
001b12 940e 2677 	CALL __GETW1P
001b14 940e 25ca 	CALL __CWD1
001b16 940e 2497 	CALL __CDF1
001b18 940e 2689 	CALL __PUTPARD1
001b1a e1ec      	LDI  R30,LOW(28)
001b1b e0f0      	LDI  R31,HIGH(28)
001b1c 93fa      	ST   -Y,R31
001b1d 93ea      	ST   -Y,R30
001b1e e6e5      	LDI  R30,LOW(_table_k)
001b1f e0f6      	LDI  R31,HIGH(_table_k)
001b20 93fa      	ST   -Y,R31
001b21 93ea      	ST   -Y,R30
                +
001b22 e8a8     +LDI R26 , LOW ( 0x1388 )
001b23 e1b3     +LDI R27 , HIGH ( 0x1388 )
001b24 e080     +LDI R24 , BYTE3 ( 0x1388 )
001b25 e090     +LDI R25 , BYTE4 ( 0x1388 )
                 	__GETD2N 0x1388
001b26 940e 0dd5 	CALL _linearise_tc
001b28 010f      	MOVW R0,R30
001b29 91e0 02b3 	LDS  R30,_mux_scan
001b2b 91f0 02b4 	LDS  R31,_mux_scan+1
001b2d e9a8      	LDI  R26,LOW(_os)
001b2e e0b1      	LDI  R27,HIGH(_os)
001b2f 0fee      	LSL  R30
001b30 1fff      	ROL  R31
001b31 0fae      	ADD  R26,R30
001b32 1fbf      	ADC  R27,R31
001b33 940e 2677 	CALL __GETW1P
001b35 0de0      	ADD  R30,R0
001b36 1df1      	ADC  R31,R1
001b37 91af      	POP  R26
001b38 91bf      	POP  R27
001b39 93ed      	ST   X+,R30
001b3a 93fc      	ST   X,R31
                 ; 0000 0748             min_val =0;
                +
001b3b e020     +LDI R18 , LOW ( 0 )
001b3c e030     +LDI R19 , HIGH ( 0 )
                 	__GETWRN 18,19,0
                 ; 0000 0749             max_val = 1300;
                +
001b3d e144     +LDI R20 , LOW ( 1300 )
001b3e e055     +LDI R21 , HIGH ( 1300 )
                 	__GETWRN 20,21,1300
                 ; 0000 074A             break;
001b3f c207      	RJMP _0x203
                 ; 0000 074B     case 4: process_value[mux_scan] = linearise_tc(adc_value,cal_zero[mux_scan],cal_span[mux_scan],36,table_r,50000)+os[ ...
                 _0x207:
001b40 30e4      	CPI  R30,LOW(0x4)
001b41 e0a0      	LDI  R26,HIGH(0x4)
001b42 07fa      	CPC  R31,R26
001b43 f009      	BREQ PC+2
001b44 c05d      	RJMP _0x208
001b45 91e0 02b3 	LDS  R30,_mux_scan
001b47 91f0 02b4 	LDS  R31,_mux_scan+1
001b49 e7a8      	LDI  R26,LOW(_process_value)
001b4a e0b1      	LDI  R27,HIGH(_process_value)
001b4b 0fee      	LSL  R30
001b4c 1fff      	ROL  R31
001b4d 0fea      	ADD  R30,R26
001b4e 1ffb      	ADC  R31,R27
001b4f 93ff      	PUSH R31
001b50 93ef      	PUSH R30
001b51 01f8      	MOVW R30,R16
001b52 940e 25ca 	CALL __CWD1
001b54 940e 2497 	CALL __CDF1
001b56 940e 2689 	CALL __PUTPARD1
001b58 91e0 02b3 	LDS  R30,_mux_scan
001b5a 91f0 02b4 	LDS  R31,_mux_scan+1
001b5c e1a8      	LDI  R26,LOW(_cal_zero)
001b5d e0b2      	LDI  R27,HIGH(_cal_zero)
001b5e 0fee      	LSL  R30
001b5f 1fff      	ROL  R31
001b60 0fae      	ADD  R26,R30
001b61 1fbf      	ADC  R27,R31
001b62 940e 2677 	CALL __GETW1P
001b64 940e 25ca 	CALL __CWD1
001b66 940e 2497 	CALL __CDF1
001b68 940e 2689 	CALL __PUTPARD1
001b6a 91e0 02b3 	LDS  R30,_mux_scan
001b6c 91f0 02b4 	LDS  R31,_mux_scan+1
001b6e e2a8      	LDI  R26,LOW(_cal_span)
001b6f e0b2      	LDI  R27,HIGH(_cal_span)
001b70 0fee      	LSL  R30
001b71 1fff      	ROL  R31
001b72 0fae      	ADD  R26,R30
001b73 1fbf      	ADC  R27,R31
001b74 940e 2677 	CALL __GETW1P
001b76 940e 25ca 	CALL __CWD1
001b78 940e 2497 	CALL __CDF1
001b7a 940e 2689 	CALL __PUTPARD1
001b7c e2e4      	LDI  R30,LOW(36)
001b7d e0f0      	LDI  R31,HIGH(36)
001b7e 93fa      	ST   -Y,R31
001b7f 93ea      	ST   -Y,R30
001b80 e9ed      	LDI  R30,LOW(_table_r)
001b81 e0f6      	LDI  R31,HIGH(_table_r)
001b82 93fa      	ST   -Y,R31
001b83 93ea      	ST   -Y,R30
                +
001b84 e5a0     +LDI R26 , LOW ( 0xC350 )
001b85 ecb3     +LDI R27 , HIGH ( 0xC350 )
001b86 e080     +LDI R24 , BYTE3 ( 0xC350 )
001b87 e090     +LDI R25 , BYTE4 ( 0xC350 )
                 	__GETD2N 0xC350
001b88 940e 0dd5 	CALL _linearise_tc
001b8a 010f      	MOVW R0,R30
001b8b 91e0 02b3 	LDS  R30,_mux_scan
001b8d 91f0 02b4 	LDS  R31,_mux_scan+1
001b8f e9a8      	LDI  R26,LOW(_os)
001b90 e0b1      	LDI  R27,HIGH(_os)
001b91 0fee      	LSL  R30
001b92 1fff      	ROL  R31
001b93 0fae      	ADD  R26,R30
001b94 1fbf      	ADC  R27,R31
001b95 940e 2677 	CALL __GETW1P
001b97 0de0      	ADD  R30,R0
001b98 1df1      	ADC  R31,R1
001b99 91af      	POP  R26
001b9a 91bf      	POP  R27
001b9b 93ed      	ST   X+,R30
001b9c 93fc      	ST   X,R31
                 ; 0000 074C             min_val =0;
                +
001b9d e020     +LDI R18 , LOW ( 0 )
001b9e e030     +LDI R19 , HIGH ( 0 )
                 	__GETWRN 18,19,0
                 ; 0000 074D             max_val = 1700;
                +
001b9f ea44     +LDI R20 , LOW ( 1700 )
001ba0 e056     +LDI R21 , HIGH ( 1700 )
                 	__GETWRN 20,21,1700
                 ; 0000 074E             break;
001ba1 c1a5      	RJMP _0x203
                 ; 0000 074F     case 5: process_value[mux_scan] = linearise_tc(adc_value,cal_zero[mux_scan],cal_span[mux_scan],36,table_s,50000)+os[ ...
                 _0x208:
001ba2 30e5      	CPI  R30,LOW(0x5)
001ba3 e0a0      	LDI  R26,HIGH(0x5)
001ba4 07fa      	CPC  R31,R26
001ba5 f009      	BREQ PC+2
001ba6 c05d      	RJMP _0x209
001ba7 91e0 02b3 	LDS  R30,_mux_scan
001ba9 91f0 02b4 	LDS  R31,_mux_scan+1
001bab e7a8      	LDI  R26,LOW(_process_value)
001bac e0b1      	LDI  R27,HIGH(_process_value)
001bad 0fee      	LSL  R30
001bae 1fff      	ROL  R31
001baf 0fea      	ADD  R30,R26
001bb0 1ffb      	ADC  R31,R27
001bb1 93ff      	PUSH R31
001bb2 93ef      	PUSH R30
001bb3 01f8      	MOVW R30,R16
001bb4 940e 25ca 	CALL __CWD1
001bb6 940e 2497 	CALL __CDF1
001bb8 940e 2689 	CALL __PUTPARD1
001bba 91e0 02b3 	LDS  R30,_mux_scan
001bbc 91f0 02b4 	LDS  R31,_mux_scan+1
001bbe e1a8      	LDI  R26,LOW(_cal_zero)
001bbf e0b2      	LDI  R27,HIGH(_cal_zero)
001bc0 0fee      	LSL  R30
001bc1 1fff      	ROL  R31
001bc2 0fae      	ADD  R26,R30
001bc3 1fbf      	ADC  R27,R31
001bc4 940e 2677 	CALL __GETW1P
001bc6 940e 25ca 	CALL __CWD1
001bc8 940e 2497 	CALL __CDF1
001bca 940e 2689 	CALL __PUTPARD1
001bcc 91e0 02b3 	LDS  R30,_mux_scan
001bce 91f0 02b4 	LDS  R31,_mux_scan+1
001bd0 e2a8      	LDI  R26,LOW(_cal_span)
001bd1 e0b2      	LDI  R27,HIGH(_cal_span)
001bd2 0fee      	LSL  R30
001bd3 1fff      	ROL  R31
001bd4 0fae      	ADD  R26,R30
001bd5 1fbf      	ADC  R27,R31
001bd6 940e 2677 	CALL __GETW1P
001bd8 940e 25ca 	CALL __CWD1
001bda 940e 2497 	CALL __CDF1
001bdc 940e 2689 	CALL __PUTPARD1
001bde e2e4      	LDI  R30,LOW(36)
001bdf e0f0      	LDI  R31,HIGH(36)
001be0 93fa      	ST   -Y,R31
001be1 93ea      	ST   -Y,R30
001be2 eee5      	LDI  R30,LOW(_table_s)
001be3 e0f6      	LDI  R31,HIGH(_table_s)
001be4 93fa      	ST   -Y,R31
001be5 93ea      	ST   -Y,R30
                +
001be6 e5a0     +LDI R26 , LOW ( 0xC350 )
001be7 ecb3     +LDI R27 , HIGH ( 0xC350 )
001be8 e080     +LDI R24 , BYTE3 ( 0xC350 )
001be9 e090     +LDI R25 , BYTE4 ( 0xC350 )
                 	__GETD2N 0xC350
001bea 940e 0dd5 	CALL _linearise_tc
001bec 010f      	MOVW R0,R30
001bed 91e0 02b3 	LDS  R30,_mux_scan
001bef 91f0 02b4 	LDS  R31,_mux_scan+1
001bf1 e9a8      	LDI  R26,LOW(_os)
001bf2 e0b1      	LDI  R27,HIGH(_os)
001bf3 0fee      	LSL  R30
001bf4 1fff      	ROL  R31
001bf5 0fae      	ADD  R26,R30
001bf6 1fbf      	ADC  R27,R31
001bf7 940e 2677 	CALL __GETW1P
001bf9 0de0      	ADD  R30,R0
001bfa 1df1      	ADC  R31,R1
001bfb 91af      	POP  R26
001bfc 91bf      	POP  R27
001bfd 93ed      	ST   X+,R30
001bfe 93fc      	ST   X,R31
                 ; 0000 0750             min_val =0;
                +
001bff e020     +LDI R18 , LOW ( 0 )
001c00 e030     +LDI R19 , HIGH ( 0 )
                 	__GETWRN 18,19,0
                 ; 0000 0751             max_val = 1700;
                +
001c01 ea44     +LDI R20 , LOW ( 1700 )
001c02 e056     +LDI R21 , HIGH ( 1700 )
                 	__GETWRN 20,21,1700
                 ; 0000 0752             break;
001c03 c143      	RJMP _0x203
                 ; 0000 0753     case 6: process_value[mux_scan] = linearise_t(adc_value,cal_zero[mux_scan],cal_span[mux_scan])+os[mux_scan];
                 _0x209:
001c04 30e6      	CPI  R30,LOW(0x6)
001c05 e0a0      	LDI  R26,HIGH(0x6)
001c06 07fa      	CPC  R31,R26
001c07 f009      	BREQ PC+2
001c08 c051      	RJMP _0x20A
001c09 91e0 02b3 	LDS  R30,_mux_scan
001c0b 91f0 02b4 	LDS  R31,_mux_scan+1
001c0d e7a8      	LDI  R26,LOW(_process_value)
001c0e e0b1      	LDI  R27,HIGH(_process_value)
001c0f 0fee      	LSL  R30
001c10 1fff      	ROL  R31
001c11 0fea      	ADD  R30,R26
001c12 1ffb      	ADC  R31,R27
001c13 93ff      	PUSH R31
001c14 93ef      	PUSH R30
001c15 01f8      	MOVW R30,R16
001c16 940e 25ca 	CALL __CWD1
001c18 940e 2497 	CALL __CDF1
001c1a 940e 2689 	CALL __PUTPARD1
001c1c 91e0 02b3 	LDS  R30,_mux_scan
001c1e 91f0 02b4 	LDS  R31,_mux_scan+1
001c20 e1a8      	LDI  R26,LOW(_cal_zero)
001c21 e0b2      	LDI  R27,HIGH(_cal_zero)
001c22 0fee      	LSL  R30
001c23 1fff      	ROL  R31
001c24 0fae      	ADD  R26,R30
001c25 1fbf      	ADC  R27,R31
001c26 940e 2677 	CALL __GETW1P
001c28 940e 25ca 	CALL __CWD1
001c2a 940e 2497 	CALL __CDF1
001c2c 940e 2689 	CALL __PUTPARD1
001c2e 91e0 02b3 	LDS  R30,_mux_scan
001c30 91f0 02b4 	LDS  R31,_mux_scan+1
001c32 e2a8      	LDI  R26,LOW(_cal_span)
001c33 e0b2      	LDI  R27,HIGH(_cal_span)
001c34 0fee      	LSL  R30
001c35 1fff      	ROL  R31
001c36 0fae      	ADD  R26,R30
001c37 1fbf      	ADC  R27,R31
001c38 940e 2677 	CALL __GETW1P
001c3a 940e 25ca 	CALL __CWD1
001c3c 940e 2497 	CALL __CDF1
001c3e 01df      	MOVW R26,R30
001c3f 01cb      	MOVW R24,R22
001c40 940e 0cec 	CALL _linearise_t
001c42 010f      	MOVW R0,R30
001c43 91e0 02b3 	LDS  R30,_mux_scan
001c45 91f0 02b4 	LDS  R31,_mux_scan+1
001c47 e9a8      	LDI  R26,LOW(_os)
001c48 e0b1      	LDI  R27,HIGH(_os)
001c49 0fee      	LSL  R30
001c4a 1fff      	ROL  R31
001c4b 0fae      	ADD  R26,R30
001c4c 1fbf      	ADC  R27,R31
001c4d 940e 2677 	CALL __GETW1P
001c4f 0de0      	ADD  R30,R0
001c50 1df1      	ADC  R31,R1
001c51 91af      	POP  R26
001c52 91bf      	POP  R27
001c53 93ed      	ST   X+,R30
001c54 93fc      	ST   X,R31
                 ; 0000 0754             min_val =-200;
                +
001c55 e328     +LDI R18 , LOW ( - 200 )
001c56 ef3f     +LDI R19 , HIGH ( - 200 )
                 	__GETWRN 18,19,-200
                 ; 0000 0755             max_val = 350;
                +
001c57 e54e     +LDI R20 , LOW ( 350 )
001c58 e051     +LDI R21 , HIGH ( 350 )
                 	__GETWRN 20,21,350
                 ; 0000 0756             break;
001c59 c0ed      	RJMP _0x203
                 ; 0000 0757     case 7: process_value[mux_scan] = linearise_volt(adc_value,cal_zero[mux_scan],cal_span[mux_scan],rhigh[mux_scan],rlo ...
                 _0x20A:
001c5a 30e7      	CPI  R30,LOW(0x7)
001c5b e0a0      	LDI  R26,HIGH(0x7)
001c5c 07fa      	CPC  R31,R26
001c5d f009      	BREQ PC+2
001c5e c06f      	RJMP _0x20B
001c5f 91e0 02b3 	LDS  R30,_mux_scan
001c61 91f0 02b4 	LDS  R31,_mux_scan+1
001c63 e7a8      	LDI  R26,LOW(_process_value)
001c64 e0b1      	LDI  R27,HIGH(_process_value)
001c65 0fee      	LSL  R30
001c66 1fff      	ROL  R31
001c67 0fea      	ADD  R30,R26
001c68 1ffb      	ADC  R31,R27
001c69 93ff      	PUSH R31
001c6a 93ef      	PUSH R30
001c6b 01f8      	MOVW R30,R16
001c6c 940e 25ca 	CALL __CWD1
001c6e 940e 2497 	CALL __CDF1
001c70 940e 2689 	CALL __PUTPARD1
001c72 91e0 02b3 	LDS  R30,_mux_scan
001c74 91f0 02b4 	LDS  R31,_mux_scan+1
001c76 e1a8      	LDI  R26,LOW(_cal_zero)
001c77 e0b2      	LDI  R27,HIGH(_cal_zero)
001c78 0fee      	LSL  R30
001c79 1fff      	ROL  R31
001c7a 0fae      	ADD  R26,R30
001c7b 1fbf      	ADC  R27,R31
001c7c 940e 2677 	CALL __GETW1P
001c7e 940e 25ca 	CALL __CWD1
001c80 940e 2497 	CALL __CDF1
001c82 940e 2689 	CALL __PUTPARD1
001c84 91e0 02b3 	LDS  R30,_mux_scan
001c86 91f0 02b4 	LDS  R31,_mux_scan+1
001c88 e2a8      	LDI  R26,LOW(_cal_span)
001c89 e0b2      	LDI  R27,HIGH(_cal_span)
001c8a 0fee      	LSL  R30
001c8b 1fff      	ROL  R31
001c8c 0fae      	ADD  R26,R30
001c8d 1fbf      	ADC  R27,R31
001c8e 940e 2677 	CALL __GETW1P
001c90 940e 25ca 	CALL __CWD1
001c92 940e 2497 	CALL __CDF1
001c94 940e 2689 	CALL __PUTPARD1
001c96 91e0 02b3 	LDS  R30,_mux_scan
001c98 91f0 02b4 	LDS  R31,_mux_scan+1
001c9a eca8      	LDI  R26,LOW(_rhigh)
001c9b e0b1      	LDI  R27,HIGH(_rhigh)
001c9c 0fee      	LSL  R30
001c9d 1fff      	ROL  R31
001c9e 0fae      	ADD  R26,R30
001c9f 1fbf      	ADC  R27,R31
001ca0 940e 2677 	CALL __GETW1P
001ca2 940e 25ca 	CALL __CWD1
001ca4 940e 2497 	CALL __CDF1
001ca6 940e 2689 	CALL __PUTPARD1
001ca8 91e0 02b3 	LDS  R30,_mux_scan
001caa 91f0 02b4 	LDS  R31,_mux_scan+1
001cac eba8      	LDI  R26,LOW(_rlow)
001cad e0b1      	LDI  R27,HIGH(_rlow)
001cae 0fee      	LSL  R30
001caf 1fff      	ROL  R31
001cb0 0fae      	ADD  R26,R30
001cb1 1fbf      	ADC  R27,R31
001cb2 940e 2677 	CALL __GETW1P
001cb4 940e 25ca 	CALL __CWD1
001cb6 940e 2497 	CALL __CDF1
001cb8 01df      	MOVW R26,R30
001cb9 01cb      	MOVW R24,R22
001cba 940e 0ed1 	CALL _linearise_volt
001cbc 010f      	MOVW R0,R30
001cbd 91e0 02b3 	LDS  R30,_mux_scan
001cbf 91f0 02b4 	LDS  R31,_mux_scan+1
001cc1 e9a8      	LDI  R26,LOW(_os)
001cc2 e0b1      	LDI  R27,HIGH(_os)
001cc3 0fee      	LSL  R30
001cc4 1fff      	ROL  R31
001cc5 0fae      	ADD  R26,R30
001cc6 1fbf      	ADC  R27,R31
001cc7 940e 2677 	CALL __GETW1P
001cc9 0de0      	ADD  R30,R0
001cca 1df1      	ADC  R31,R1
001ccb 91af      	POP  R26
001ccc 91bf      	POP  R27
001ccd c073      	RJMP _0x340
                 ; 0000 0758             min_val =-1999;
                 ; 0000 0759             max_val =9999;
                 ; 0000 075A             break;
                 ; 0000 075B     case 8: process_value[mux_scan] = linearise_420(adc_value,cal_zero[mux_scan],cal_span[mux_scan],rhigh[mux_scan],rlow ...
                 _0x20B:
001cce 30e8      	CPI  R30,LOW(0x8)
001ccf e0a0      	LDI  R26,HIGH(0x8)
001cd0 07fa      	CPC  R31,R26
001cd1 f009      	BREQ PC+2
001cd2 c074      	RJMP _0x203
001cd3 91e0 02b3 	LDS  R30,_mux_scan
001cd5 91f0 02b4 	LDS  R31,_mux_scan+1
001cd7 e7a8      	LDI  R26,LOW(_process_value)
001cd8 e0b1      	LDI  R27,HIGH(_process_value)
001cd9 0fee      	LSL  R30
001cda 1fff      	ROL  R31
001cdb 0fea      	ADD  R30,R26
001cdc 1ffb      	ADC  R31,R27
001cdd 93ff      	PUSH R31
001cde 93ef      	PUSH R30
001cdf 01f8      	MOVW R30,R16
001ce0 940e 25ca 	CALL __CWD1
001ce2 940e 2497 	CALL __CDF1
001ce4 940e 2689 	CALL __PUTPARD1
001ce6 91e0 02b3 	LDS  R30,_mux_scan
001ce8 91f0 02b4 	LDS  R31,_mux_scan+1
001cea e1a8      	LDI  R26,LOW(_cal_zero)
001ceb e0b2      	LDI  R27,HIGH(_cal_zero)
001cec 0fee      	LSL  R30
001ced 1fff      	ROL  R31
001cee 0fae      	ADD  R26,R30
001cef 1fbf      	ADC  R27,R31
001cf0 940e 2677 	CALL __GETW1P
001cf2 940e 25ca 	CALL __CWD1
001cf4 940e 2497 	CALL __CDF1
001cf6 940e 2689 	CALL __PUTPARD1
001cf8 91e0 02b3 	LDS  R30,_mux_scan
001cfa 91f0 02b4 	LDS  R31,_mux_scan+1
001cfc e2a8      	LDI  R26,LOW(_cal_span)
001cfd e0b2      	LDI  R27,HIGH(_cal_span)
001cfe 0fee      	LSL  R30
001cff 1fff      	ROL  R31
001d00 0fae      	ADD  R26,R30
001d01 1fbf      	ADC  R27,R31
001d02 940e 2677 	CALL __GETW1P
001d04 940e 25ca 	CALL __CWD1
001d06 940e 2497 	CALL __CDF1
001d08 940e 2689 	CALL __PUTPARD1
001d0a 91e0 02b3 	LDS  R30,_mux_scan
001d0c 91f0 02b4 	LDS  R31,_mux_scan+1
001d0e eca8      	LDI  R26,LOW(_rhigh)
001d0f e0b1      	LDI  R27,HIGH(_rhigh)
001d10 0fee      	LSL  R30
001d11 1fff      	ROL  R31
001d12 0fae      	ADD  R26,R30
001d13 1fbf      	ADC  R27,R31
001d14 940e 2677 	CALL __GETW1P
001d16 940e 25ca 	CALL __CWD1
001d18 940e 2497 	CALL __CDF1
001d1a 940e 2689 	CALL __PUTPARD1
001d1c 91e0 02b3 	LDS  R30,_mux_scan
001d1e 91f0 02b4 	LDS  R31,_mux_scan+1
001d20 eba8      	LDI  R26,LOW(_rlow)
001d21 e0b1      	LDI  R27,HIGH(_rlow)
001d22 0fee      	LSL  R30
001d23 1fff      	ROL  R31
001d24 0fae      	ADD  R26,R30
001d25 1fbf      	ADC  R27,R31
001d26 940e 2677 	CALL __GETW1P
001d28 940e 25ca 	CALL __CWD1
001d2a 940e 2497 	CALL __CDF1
001d2c 01df      	MOVW R26,R30
001d2d 01cb      	MOVW R24,R22
001d2e 940e 0eed 	CALL _linearise_420
001d30 010f      	MOVW R0,R30
001d31 91e0 02b3 	LDS  R30,_mux_scan
001d33 91f0 02b4 	LDS  R31,_mux_scan+1
001d35 e9a8      	LDI  R26,LOW(_os)
001d36 e0b1      	LDI  R27,HIGH(_os)
001d37 0fee      	LSL  R30
001d38 1fff      	ROL  R31
001d39 0fae      	ADD  R26,R30
001d3a 1fbf      	ADC  R27,R31
001d3b 940e 2677 	CALL __GETW1P
001d3d 0de0      	ADD  R30,R0
001d3e 1df1      	ADC  R31,R1
001d3f 91af      	POP  R26
001d40 91bf      	POP  R27
                 _0x340:
001d41 93ed      	ST   X+,R30
001d42 93fc      	ST   X,R31
                 ; 0000 075C              min_val =-1999;
                +
001d43 e321     +LDI R18 , LOW ( - 1999 )
001d44 ef38     +LDI R19 , HIGH ( - 1999 )
                 	__GETWRN 18,19,-1999
                 ; 0000 075D             max_val =9999;
                +
001d45 e04f     +LDI R20 , LOW ( 9999 )
001d46 e257     +LDI R21 , HIGH ( 9999 )
                 	__GETWRN 20,21,9999
                 ; 0000 075E             break;
                 ; 0000 075F     }
                 _0x203:
                 ; 0000 0760     //check for overrange or underrange or skip. proces_error used in other routines and modbus
                 ; 0000 0761     //0: normal
                 ; 0000 0762     //1: underrange
                 ; 0000 0763     //2: overrange
                 ; 0000 0764     //3: skip
                 ; 0000 0765     //////////////////////////////////////////////////////////////////////////
                 ; 0000 0766     if (process_value[mux_scan] < min_val) process_error[mux_scan] = 1;
001d47 91e0 02b3 	LDS  R30,_mux_scan
001d49 91f0 02b4 	LDS  R31,_mux_scan+1
001d4b e7a8      	LDI  R26,LOW(_process_value)
001d4c e0b1      	LDI  R27,HIGH(_process_value)
001d4d 0fee      	LSL  R30
001d4e 1fff      	ROL  R31
001d4f 0fae      	ADD  R26,R30
001d50 1fbf      	ADC  R27,R31
001d51 940e 2677 	CALL __GETW1P
001d53 17e2      	CP   R30,R18
001d54 07f3      	CPC  R31,R19
001d55 f46c      	BRGE _0x20D
001d56 91e0 02b3 	LDS  R30,_mux_scan
001d58 91f0 02b4 	LDS  R31,_mux_scan+1
001d5a e2a9      	LDI  R26,LOW(_process_error)
001d5b e0b5      	LDI  R27,HIGH(_process_error)
001d5c 0fee      	LSL  R30
001d5d 1fff      	ROL  R31
001d5e 0fae      	ADD  R26,R30
001d5f 1fbf      	ADC  R27,R31
001d60 e0e1      	LDI  R30,LOW(1)
001d61 e0f0      	LDI  R31,HIGH(1)
001d62 c028      	RJMP _0x341
                 ; 0000 0767     else if (process_value[mux_scan] > max_val) process_error[mux_scan]=2;
                 _0x20D:
001d63 91e0 02b3 	LDS  R30,_mux_scan
001d65 91f0 02b4 	LDS  R31,_mux_scan+1
001d67 e7a8      	LDI  R26,LOW(_process_value)
001d68 e0b1      	LDI  R27,HIGH(_process_value)
001d69 0fee      	LSL  R30
001d6a 1fff      	ROL  R31
001d6b 0fae      	ADD  R26,R30
001d6c 1fbf      	ADC  R27,R31
001d6d 940e 2677 	CALL __GETW1P
001d6f 174e      	CP   R20,R30
001d70 075f      	CPC  R21,R31
001d71 f46c      	BRGE _0x20F
001d72 91e0 02b3 	LDS  R30,_mux_scan
001d74 91f0 02b4 	LDS  R31,_mux_scan+1
001d76 e2a9      	LDI  R26,LOW(_process_error)
001d77 e0b5      	LDI  R27,HIGH(_process_error)
001d78 0fee      	LSL  R30
001d79 1fff      	ROL  R31
001d7a 0fae      	ADD  R26,R30
001d7b 1fbf      	ADC  R27,R31
001d7c e0e2      	LDI  R30,LOW(2)
001d7d e0f0      	LDI  R31,HIGH(2)
001d7e c00c      	RJMP _0x341
                 ; 0000 0768     else process_error[mux_scan] =0;        //normal
                 _0x20F:
001d7f 91e0 02b3 	LDS  R30,_mux_scan
001d81 91f0 02b4 	LDS  R31,_mux_scan+1
001d83 e2a9      	LDI  R26,LOW(_process_error)
001d84 e0b5      	LDI  R27,HIGH(_process_error)
001d85 0fee      	LSL  R30
001d86 1fff      	ROL  R31
001d87 0fae      	ADD  R26,R30
001d88 1fbf      	ADC  R27,R31
001d89 e0e0      	LDI  R30,LOW(0)
001d8a e0f0      	LDI  R31,HIGH(0)
                 _0x341:
001d8b 93ed      	ST   X+,R30
001d8c 93fc      	ST   X,R31
                 ; 0000 0769     //////////////////////////////////////////////////////////////////////////
                 ; 0000 076A }
                 _0x200:
                 ; 0000 076B mux_scan++;
001d8d eba3      	LDI  R26,LOW(_mux_scan)
001d8e e0b2      	LDI  R27,HIGH(_mux_scan)
001d8f 91ed      	LD   R30,X+
001d90 91fd      	LD   R31,X+
001d91 9631      	ADIW R30,1
001d92 93fe      	ST   -X,R31
001d93 93ee      	ST   -X,R30
                 ; 0000 076C //////////////////////////////////////////////////////////////////
                 ; 0000 076D //internal scanning according to skip status. to be checked later after uncommenting
                 ; 0000 076E //////////////////////////////////////////////////////////////////
                 ; 0000 076F 
                 ; 0000 0770 if (!(tc_fl && (mux_scan ==7)))
001d94 fe21      	SBRS R2,1
001d95 c006      	RJMP _0x212
001d96 91a0 02b3 	LDS  R26,_mux_scan
001d98 91b0 02b4 	LDS  R27,_mux_scan+1
001d9a 9717      	SBIW R26,7
001d9b f0d9      	BREQ _0x211
                 _0x212:
                 ; 0000 0771 {
                 ; 0000 0772 while (skip[mux_scan] !=0)
                 _0x214:
001d9c 91e0 02b3 	LDS  R30,_mux_scan
001d9e 91f0 02b4 	LDS  R31,_mux_scan+1
001da0 eaa8      	LDI  R26,LOW(_skip)
001da1 e0b1      	LDI  R27,HIGH(_skip)
001da2 0fee      	LSL  R30
001da3 1fff      	ROL  R31
001da4 0fae      	ADD  R26,R30
001da5 1fbf      	ADC  R27,R31
001da6 940e 2677 	CALL __GETW1P
001da8 9730      	SBIW R30,0
001da9 f069      	BREQ _0x216
                 ; 0000 0773 {
                 ; 0000 0774 mux_scan++;
001daa eba3      	LDI  R26,LOW(_mux_scan)
001dab e0b2      	LDI  R27,HIGH(_mux_scan)
001dac 91ed      	LD   R30,X+
001dad 91fd      	LD   R31,X+
001dae 9631      	ADIW R30,1
001daf 93fe      	ST   -X,R31
001db0 93ee      	ST   -X,R30
                 ; 0000 0775 if (mux_scan>=8)
001db1 91a0 02b3 	LDS  R26,_mux_scan
001db3 91b0 02b4 	LDS  R27,_mux_scan+1
001db5 9718      	SBIW R26,8
001db6 f32c      	BRLT _0x214
                 ; 0000 0776 break;
                 ; 0000 0777 }
                 _0x216:
                 ; 0000 0778 }
                 ; 0000 0779 //////////////////////////////////////////////////////////////////
                 ; 0000 077A 
                 ; 0000 077B 
                 ; 0000 077C 
                 ; 0000 077D if (mux_scan >=8) mux_scan =0;
                 _0x211:
001db7 91a0 02b3 	LDS  R26,_mux_scan
001db9 91b0 02b4 	LDS  R27,_mux_scan+1
001dbb 9718      	SBIW R26,8
001dbc f02c      	BRLT _0x218
001dbd e0e0      	LDI  R30,LOW(0)
001dbe 93e0 02b3 	STS  _mux_scan,R30
001dc0 93e0 02b4 	STS  _mux_scan+1,R30
                 ; 0000 077E switch(mux_scan)
                 _0x218:
001dc2 91e0 02b3 	LDS  R30,_mux_scan
001dc4 91f0 02b4 	LDS  R31,_mux_scan+1
                 ; 0000 077F     {
                 ; 0000 0780     case 0: mux9 =0;
001dc6 9730      	SBIW R30,0
001dc7 f1c9      	BREQ _0x342
                 ; 0000 0781             mux10 =0;
                 ; 0000 0782             mux11 =0;
                 ; 0000 0783             break;
                 ; 0000 0784     case 1: mux9 =1;
001dc8 30e1      	CPI  R30,LOW(0x1)
001dc9 e0a0      	LDI  R26,HIGH(0x1)
001dca 07fa      	CPC  R31,R26
001dcb f411      	BRNE _0x223
001dcc 9a93      	SBI  0x12,3
                 ; 0000 0785             mux10 =0;
001dcd c034      	RJMP _0x343
                 ; 0000 0786             mux11 =0;
                 ; 0000 0787             break;
                 ; 0000 0788     case 2: mux9 =0;
                 _0x223:
001dce 30e2      	CPI  R30,LOW(0x2)
001dcf e0a0      	LDI  R26,HIGH(0x2)
001dd0 07fa      	CPC  R31,R26
001dd1 f419      	BRNE _0x22A
001dd2 9893      	CBI  0x12,3
                 ; 0000 0789             mux10 =1;
001dd3 9a94      	SBI  0x12,4
                 ; 0000 078A             mux11 =0;
001dd4 c02e      	RJMP _0x344
                 ; 0000 078B             break;
                 ; 0000 078C     case 3: mux9 =1;
                 _0x22A:
001dd5 30e3      	CPI  R30,LOW(0x3)
001dd6 e0a0      	LDI  R26,HIGH(0x3)
001dd7 07fa      	CPC  R31,R26
001dd8 f419      	BRNE _0x231
001dd9 9a93      	SBI  0x12,3
                 ; 0000 078D             mux10 =1;
001dda 9a94      	SBI  0x12,4
                 ; 0000 078E             mux11 =0;
001ddb c027      	RJMP _0x344
                 ; 0000 078F             break;
                 ; 0000 0790     case 4: mux9 =0;
                 _0x231:
001ddc 30e4      	CPI  R30,LOW(0x4)
001ddd e0a0      	LDI  R26,HIGH(0x4)
001dde 07fa      	CPC  R31,R26
001ddf f421      	BRNE _0x238
001de0 9893      	CBI  0x12,3
                 ; 0000 0791             mux10 =0;
001de1 9894      	CBI  0x12,4
                 ; 0000 0792             mux11 =1;
001de2 9a95      	SBI  0x12,5
                 ; 0000 0793             break;
001de3 c020      	RJMP _0x21B
                 ; 0000 0794     case 5: mux9 =1;
                 _0x238:
001de4 30e5      	CPI  R30,LOW(0x5)
001de5 e0a0      	LDI  R26,HIGH(0x5)
001de6 07fa      	CPC  R31,R26
001de7 f421      	BRNE _0x23F
001de8 9a93      	SBI  0x12,3
                 ; 0000 0795             mux10 =0;
001de9 9894      	CBI  0x12,4
                 ; 0000 0796             mux11 =1;
001dea 9a95      	SBI  0x12,5
                 ; 0000 0797             break;
001deb c018      	RJMP _0x21B
                 ; 0000 0798     case 6: mux9 =0;
                 _0x23F:
001dec 30e6      	CPI  R30,LOW(0x6)
001ded e0a0      	LDI  R26,HIGH(0x6)
001dee 07fa      	CPC  R31,R26
001def f421      	BRNE _0x246
001df0 9893      	CBI  0x12,3
                 ; 0000 0799             mux10 =1;
001df1 9a94      	SBI  0x12,4
                 ; 0000 079A             mux11 =1;
001df2 9a95      	SBI  0x12,5
                 ; 0000 079B             break;
001df3 c010      	RJMP _0x21B
                 ; 0000 079C     case 7: mux9 =1;
                 _0x246:
001df4 30e7      	CPI  R30,LOW(0x7)
001df5 e0a0      	LDI  R26,HIGH(0x7)
001df6 07fa      	CPC  R31,R26
001df7 f421      	BRNE _0x254
001df8 9a93      	SBI  0x12,3
                 ; 0000 079D             mux10 =1;
001df9 9a94      	SBI  0x12,4
                 ; 0000 079E             mux11 =1;
001dfa 9a95      	SBI  0x12,5
                 ; 0000 079F             break;
001dfb c008      	RJMP _0x21B
                 ; 0000 07A0     default:mux_scan =0;
                 _0x254:
001dfc e0e0      	LDI  R30,LOW(0)
001dfd 93e0 02b3 	STS  _mux_scan,R30
001dff 93e0 02b4 	STS  _mux_scan+1,R30
                 ; 0000 07A1             mux9 =0;
                 _0x342:
001e01 9893      	CBI  0x12,3
                 ; 0000 07A2             mux10 =0;
                 _0x343:
001e02 9894      	CBI  0x12,4
                 ; 0000 07A3             mux11 =0;
                 _0x344:
001e03 9895      	CBI  0x12,5
                 ; 0000 07A4             break;
                 ; 0000 07A5     }
                 _0x21B:
                 ; 0000 07A6 }
                 ; 0000 07A7 }
                 _0x1FA:
001e04 940e 26d0 	CALL __LOADLOCR6
001e06 9626      	ADIW R28,6
001e07 9508      	RET
                 ; .FEND
                 ;
                 ;void display_check(void)
                 ; 0000 07AA {
                 _display_check:
                 ; .FSTART _display_check
                 ; 0000 07AB int adc_value;
                 ; 0000 07AC if(!menu_fl && !cal_fl)
001e08 931a      	ST   -Y,R17
001e09 930a      	ST   -Y,R16
                 ;	adc_value -> R16,R17
001e0a fc34      	SBRC R3,4
001e0b c002      	RJMP _0x25C
001e0c fe35      	SBRS R3,5
001e0d c001      	RJMP _0x25D
                 _0x25C:
001e0e c079      	RJMP _0x25B
                 _0x25D:
                 ; 0000 07AD     {
                 ; 0000 07AE     skip[0] = ee_skip[0] =0;
001e0f e2a0      	LDI  R26,LOW(_ee_skip)
001e10 e0b0      	LDI  R27,HIGH(_ee_skip)
001e11 e0e0      	LDI  R30,LOW(0)
001e12 e0f0      	LDI  R31,HIGH(0)
001e13 940e 26b0 	CALL __EEPROMWRW
001e15 93e0 01a8 	STS  _skip,R30
001e17 93f0 01a9 	STS  _skip+1,R31
                 ; 0000 07AF     if (tsec_fl )   //hold_fl =0 implies scan else hold (toggled in shf key routine)
001e19 fe26      	SBRS R2,6
001e1a c06c      	RJMP _0x25E
                 ; 0000 07B0         {
                 ; 0000 07B1         if (!hold_fl) display_scan_cnt++;  //hold display to same channel
001e1b fc37      	SBRC R3,7
001e1c c003      	RJMP _0x25F
001e1d 01f5      	MOVW R30,R10
001e1e 9631      	ADIW R30,1
001e1f 015f      	MOVW R10,R30
                 ; 0000 07B2         if (skip[display_scan_cnt]!=0 && display_scan_cnt <=7)
                 _0x25F:
001e20 01f5      	MOVW R30,R10
001e21 eaa8      	LDI  R26,LOW(_skip)
001e22 e0b1      	LDI  R27,HIGH(_skip)
001e23 0fee      	LSL  R30
001e24 1fff      	ROL  R31
001e25 0fae      	ADD  R26,R30
001e26 1fbf      	ADC  R27,R31
001e27 940e 2677 	CALL __GETW1P
001e29 9730      	SBIW R30,0
001e2a f029      	BREQ _0x261
001e2b e0e7      	LDI  R30,LOW(7)
001e2c e0f0      	LDI  R31,HIGH(7)
001e2d 15ea      	CP   R30,R10
001e2e 05fb      	CPC  R31,R11
001e2f f40c      	BRGE _0x262
                 _0x261:
001e30 c001      	RJMP _0x260
                 _0x262:
                 ; 0000 07B3         goto bypass;
001e31 c055      	RJMP _0x263
                 ; 0000 07B4         tsec_fl =0;
                 _0x260:
001e32 94e8      	CLT
001e33 f826      	BLD  R2,6
                 ; 0000 07B5         if (display_scan_cnt >=7) display_scan_cnt =0;
001e34 e0e7      	LDI  R30,LOW(7)
001e35 e0f0      	LDI  R31,HIGH(7)
001e36 16ae      	CP   R10,R30
001e37 06bf      	CPC  R11,R31
001e38 f014      	BRLT _0x264
001e39 24aa      	CLR  R10
001e3a 24bb      	CLR  R11
                 ; 0000 07B6         switch (process_error[display_scan_cnt])
                 _0x264:
001e3b 01f5      	MOVW R30,R10
001e3c e2a9      	LDI  R26,LOW(_process_error)
001e3d e0b5      	LDI  R27,HIGH(_process_error)
001e3e 0fee      	LSL  R30
001e3f 1fff      	ROL  R31
001e40 0fae      	ADD  R26,R30
001e41 1fbf      	ADC  R27,R31
001e42 940e 2677 	CALL __GETW1P
                 ; 0000 07B7             {
                 ; 0000 07B8             case 0: display_put(process_value[display_scan_cnt],display_scan_cnt+1,0,dummy,dummy2);
001e44 9730      	SBIW R30,0
001e45 f131      	BREQ _0x345
                 ; 0000 07B9                     break;
                 ; 0000 07BA            case 1: display_put(0,display_scan_cnt+1,1,message_neg,dummy2);
001e46 30e1      	CPI  R30,LOW(0x1)
001e47 e0a0      	LDI  R26,HIGH(0x1)
001e48 07fa      	CPC  R31,R26
001e49 f479      	BRNE _0x269
001e4a e0e0      	LDI  R30,LOW(0)
001e4b e0f0      	LDI  R31,HIGH(0)
001e4c 93fa      	ST   -Y,R31
001e4d 93ea      	ST   -Y,R30
001e4e 01f5      	MOVW R30,R10
001e4f 9631      	ADIW R30,1
001e50 93fa      	ST   -Y,R31
001e51 93ea      	ST   -Y,R30
001e52 e0e1      	LDI  R30,LOW(1)
001e53 e0f0      	LDI  R31,HIGH(1)
001e54 93fa      	ST   -Y,R31
001e55 93ea      	ST   -Y,R30
001e56 e1e1      	LDI  R30,LOW(_message_neg)
001e57 e0f6      	LDI  R31,HIGH(_message_neg)
001e58 c028      	RJMP _0x346
                 ; 0000 07BB                     break;
                 ; 0000 07BC            case 2: display_put(0,display_scan_cnt+1,1,message_open,dummy2);
                 _0x269:
001e59 30e2      	CPI  R30,LOW(0x2)
001e5a e0a0      	LDI  R26,HIGH(0x2)
001e5b 07fa      	CPC  R31,R26
001e5c f479      	BRNE _0x26B
001e5d e0e0      	LDI  R30,LOW(0)
001e5e e0f0      	LDI  R31,HIGH(0)
001e5f 93fa      	ST   -Y,R31
001e60 93ea      	ST   -Y,R30
001e61 01f5      	MOVW R30,R10
001e62 9631      	ADIW R30,1
001e63 93fa      	ST   -Y,R31
001e64 93ea      	ST   -Y,R30
001e65 e0e1      	LDI  R30,LOW(1)
001e66 e0f0      	LDI  R31,HIGH(1)
001e67 93fa      	ST   -Y,R31
001e68 93ea      	ST   -Y,R30
001e69 e1e9      	LDI  R30,LOW(_message_open)
001e6a e0f6      	LDI  R31,HIGH(_message_open)
001e6b c015      	RJMP _0x346
                 ; 0000 07BD                     break;
                 ; 0000 07BE            default: display_put(process_value[display_scan_cnt],display_scan_cnt+1,0,dummy,dummy2);
                 _0x26B:
                 _0x345:
001e6c 01f5      	MOVW R30,R10
001e6d e7a8      	LDI  R26,LOW(_process_value)
001e6e e0b1      	LDI  R27,HIGH(_process_value)
001e6f 0fee      	LSL  R30
001e70 1fff      	ROL  R31
001e71 0fae      	ADD  R26,R30
001e72 1fbf      	ADC  R27,R31
001e73 940e 2677 	CALL __GETW1P
001e75 93fa      	ST   -Y,R31
001e76 93ea      	ST   -Y,R30
001e77 01f5      	MOVW R30,R10
001e78 9631      	ADIW R30,1
001e79 93fa      	ST   -Y,R31
001e7a 93ea      	ST   -Y,R30
001e7b e0e0      	LDI  R30,LOW(0)
001e7c e0f0      	LDI  R31,HIGH(0)
001e7d 93fa      	ST   -Y,R31
001e7e 93ea      	ST   -Y,R30
001e7f e7e4      	LDI  R30,LOW(_dummy)
001e80 e0f1      	LDI  R31,HIGH(_dummy)
                 _0x346:
001e81 93fa      	ST   -Y,R31
001e82 93ea      	ST   -Y,R30
001e83 e7a6      	LDI  R26,LOW(_dummy2)
001e84 e0b1      	LDI  R27,HIGH(_dummy2)
001e85 940e 0fef 	CALL _display_put
                 ; 0000 07BF                     break;
                 ; 0000 07C0 
                 ; 0000 07C1             }
                 ; 0000 07C2 bypass:
                 _0x263:
                 ; 0000 07C3         }
                 ; 0000 07C4     }
                 _0x25E:
                 ; 0000 07C5 
                 ; 0000 07C6 else if (menu_fl && !cal_fl)
001e87 c196      	RJMP _0x26C
                 _0x25B:
001e88 fe34      	SBRS R3,4
001e89 c002      	RJMP _0x26E
001e8a fe35      	SBRS R3,5
001e8b c001      	RJMP _0x26F
                 _0x26E:
001e8c c178      	RJMP _0x26D
                 _0x26F:
                 ; 0000 07C7     {
                 ; 0000 07C8     if (level ==1)
001e8d 91a0 02bf 	LDS  R26,_level
001e8f 91b0 02c0 	LDS  R27,_level+1
001e91 9711      	SBIW R26,1
001e92 f4a9      	BRNE _0x270
                 ; 0000 07C9         {
                 ; 0000 07CA         display_put(0,item1,2,ms_menu,message_menu);
001e93 e0e0      	LDI  R30,LOW(0)
001e94 e0f0      	LDI  R31,HIGH(0)
001e95 93fa      	ST   -Y,R31
001e96 93ea      	ST   -Y,R30
001e97 91e0 02bb 	LDS  R30,_item1
001e99 91f0 02bc 	LDS  R31,_item1+1
001e9b 93fa      	ST   -Y,R31
001e9c 93ea      	ST   -Y,R30
001e9d e0e2      	LDI  R30,LOW(2)
001e9e e0f0      	LDI  R31,HIGH(2)
001e9f 93fa      	ST   -Y,R31
001ea0 93ea      	ST   -Y,R30
001ea1 ece1      	LDI  R30,LOW(_ms_menu)
001ea2 e0f2      	LDI  R31,HIGH(_ms_menu)
001ea3 93fa      	ST   -Y,R31
001ea4 93ea      	ST   -Y,R30
001ea5 eca9      	LDI  R26,LOW(_message_menu)
001ea6 e0b2      	LDI  R27,HIGH(_message_menu)
001ea7 c15a      	RJMP _0x347
                 ; 0000 07CB         }
                 ; 0000 07CC     else if (level ==2)
                 _0x270:
001ea8 91a0 02bf 	LDS  R26,_level
001eaa 91b0 02c0 	LDS  R27,_level+1
001eac 9712      	SBIW R26,2
001ead f009      	BREQ PC+2
001eae c155      	RJMP _0x272
                 ; 0000 07CD         {
                 ; 0000 07CE         switch (item1)
001eaf 91e0 02bb 	LDS  R30,_item1
001eb1 91f0 02bc 	LDS  R31,_item1+1
                 ; 0000 07CF             {
                 ; 0000 07D0             case 0: if (item2==0) display_put(0,gen[0],1,message_gen,dummy); //st
001eb3 9730      	SBIW R30,0
001eb4 f009      	BREQ PC+2
001eb5 c055      	RJMP _0x276
001eb6 91e0 02bd 	LDS  R30,_item2
001eb8 91f0 02be 	LDS  R31,_item2+1
001eba 9730      	SBIW R30,0
001ebb f4b1      	BRNE _0x277
001ebc e0e0      	LDI  R30,LOW(0)
001ebd e0f0      	LDI  R31,HIGH(0)
001ebe 93fa      	ST   -Y,R31
001ebf 93ea      	ST   -Y,R30
001ec0 91e0 0188 	LDS  R30,_gen
001ec2 91f0 0189 	LDS  R31,_gen+1
001ec4 93fa      	ST   -Y,R31
001ec5 93ea      	ST   -Y,R30
001ec6 e0e1      	LDI  R30,LOW(1)
001ec7 e0f0      	LDI  R31,HIGH(1)
001ec8 93fa      	ST   -Y,R31
001ec9 93ea      	ST   -Y,R30
001eca e1e1      	LDI  R30,LOW(_message_gen)
001ecb e0f3      	LDI  R31,HIGH(_message_gen)
001ecc 93fa      	ST   -Y,R31
001ecd 93ea      	ST   -Y,R30
001ece e7a4      	LDI  R26,LOW(_dummy)
001ecf e0b1      	LDI  R27,HIGH(_dummy)
001ed0 940e 0fef 	CALL _display_put
                 ; 0000 07D1                     if (item2==1) display_put(1,gen[1],1,message_gen,dummy);
                 _0x277:
001ed2 91a0 02bd 	LDS  R26,_item2
001ed4 91b0 02be 	LDS  R27,_item2+1
001ed6 9711      	SBIW R26,1
001ed7 f4b1      	BRNE _0x278
001ed8 e0e1      	LDI  R30,LOW(1)
001ed9 e0f0      	LDI  R31,HIGH(1)
001eda 93fa      	ST   -Y,R31
001edb 93ea      	ST   -Y,R30
                +
001edc 91e0 018a+LDS R30 , _gen + ( 2 )
001ede 91f0 018b+LDS R31 , _gen + ( 2 ) + 1
                 	__GETW1MN _gen,2
001ee0 93fa      	ST   -Y,R31
001ee1 93ea      	ST   -Y,R30
001ee2 e0e1      	LDI  R30,LOW(1)
001ee3 e0f0      	LDI  R31,HIGH(1)
001ee4 93fa      	ST   -Y,R31
001ee5 93ea      	ST   -Y,R30
001ee6 e1e1      	LDI  R30,LOW(_message_gen)
001ee7 e0f3      	LDI  R31,HIGH(_message_gen)
001ee8 93fa      	ST   -Y,R31
001ee9 93ea      	ST   -Y,R30
001eea e7a4      	LDI  R26,LOW(_dummy)
001eeb e0b1      	LDI  R27,HIGH(_dummy)
001eec 940e 0fef 	CALL _display_put
                 ; 0000 07D2                     if (item2==2) display_put(2,gen[2],2,message_gen,message_baud);
                 _0x278:
001eee 91a0 02bd 	LDS  R26,_item2
001ef0 91b0 02be 	LDS  R27,_item2+1
001ef2 9712      	SBIW R26,2
001ef3 f4b1      	BRNE _0x279
001ef4 e0e2      	LDI  R30,LOW(2)
001ef5 e0f0      	LDI  R31,HIGH(2)
001ef6 93fa      	ST   -Y,R31
001ef7 93ea      	ST   -Y,R30
                +
001ef8 91e0 018c+LDS R30 , _gen + ( 4 )
001efa 91f0 018d+LDS R31 , _gen + ( 4 ) + 1
                 	__GETW1MN _gen,4
001efc 93fa      	ST   -Y,R31
001efd 93ea      	ST   -Y,R30
001efe e0e2      	LDI  R30,LOW(2)
001eff e0f0      	LDI  R31,HIGH(2)
001f00 93fa      	ST   -Y,R31
001f01 93ea      	ST   -Y,R30
001f02 e1e1      	LDI  R30,LOW(_message_gen)
001f03 e0f3      	LDI  R31,HIGH(_message_gen)
001f04 93fa      	ST   -Y,R31
001f05 93ea      	ST   -Y,R30
001f06 e9a1      	LDI  R26,LOW(_message_baud)
001f07 e0b5      	LDI  R27,HIGH(_message_baud)
001f08 940e 0fef 	CALL _display_put
                 ; 0000 07D3                     break;
                 _0x279:
001f0a c0f9      	RJMP _0x275
                 ; 0000 07D4             case 1: display_put(item2,os[item2],1,message_os,dummy);
                 _0x276:
001f0b 30e1      	CPI  R30,LOW(0x1)
001f0c e0a0      	LDI  R26,HIGH(0x1)
001f0d 07fa      	CPC  R31,R26
001f0e f4d9      	BRNE _0x27A
001f0f 91e0 02bd 	LDS  R30,_item2
001f11 91f0 02be 	LDS  R31,_item2+1
001f13 93fa      	ST   -Y,R31
001f14 93ea      	ST   -Y,R30
001f15 e9a8      	LDI  R26,LOW(_os)
001f16 e0b1      	LDI  R27,HIGH(_os)
001f17 0fee      	LSL  R30
001f18 1fff      	ROL  R31
001f19 0fae      	ADD  R26,R30
001f1a 1fbf      	ADC  R27,R31
001f1b 940e 2677 	CALL __GETW1P
001f1d 93fa      	ST   -Y,R31
001f1e 93ea      	ST   -Y,R30
001f1f e0e1      	LDI  R30,LOW(1)
001f20 e0f0      	LDI  R31,HIGH(1)
001f21 93fa      	ST   -Y,R31
001f22 93ea      	ST   -Y,R30
001f23 e2e9      	LDI  R30,LOW(_message_os)
001f24 e0f3      	LDI  R31,HIGH(_message_os)
001f25 93fa      	ST   -Y,R31
001f26 93ea      	ST   -Y,R30
001f27 e7a4      	LDI  R26,LOW(_dummy)
001f28 e0b1      	LDI  R27,HIGH(_dummy)
001f29 c0d8      	RJMP _0x347
                 ; 0000 07D5                     break;
                 ; 0000 07D6             case 2: display_put(item2,skip[item2],2,message_skip,message_skuk);
                 _0x27A:
001f2a 30e2      	CPI  R30,LOW(0x2)
001f2b e0a0      	LDI  R26,HIGH(0x2)
001f2c 07fa      	CPC  R31,R26
001f2d f4d9      	BRNE _0x27B
001f2e 91e0 02bd 	LDS  R30,_item2
001f30 91f0 02be 	LDS  R31,_item2+1
001f32 93fa      	ST   -Y,R31
001f33 93ea      	ST   -Y,R30
001f34 eaa8      	LDI  R26,LOW(_skip)
001f35 e0b1      	LDI  R27,HIGH(_skip)
001f36 0fee      	LSL  R30
001f37 1fff      	ROL  R31
001f38 0fae      	ADD  R26,R30
001f39 1fbf      	ADC  R27,R31
001f3a 940e 2677 	CALL __GETW1P
001f3c 93fa      	ST   -Y,R31
001f3d 93ea      	ST   -Y,R30
001f3e e0e2      	LDI  R30,LOW(2)
001f3f e0f0      	LDI  R31,HIGH(2)
001f40 93fa      	ST   -Y,R31
001f41 93ea      	ST   -Y,R30
001f42 e6e9      	LDI  R30,LOW(_message_skip)
001f43 e0f3      	LDI  R31,HIGH(_message_skip)
001f44 93fa      	ST   -Y,R31
001f45 93ea      	ST   -Y,R30
001f46 e3a9      	LDI  R26,LOW(_message_skuk)
001f47 e0b5      	LDI  R27,HIGH(_message_skuk)
001f48 c0b9      	RJMP _0x347
                 ; 0000 07D7                     break;
                 ; 0000 07D8             case 3: display_put(item2,rlow[item2],1,message_rlow,dummy);
                 _0x27B:
001f49 30e3      	CPI  R30,LOW(0x3)
001f4a e0a0      	LDI  R26,HIGH(0x3)
001f4b 07fa      	CPC  R31,R26
001f4c f4d9      	BRNE _0x27C
001f4d 91e0 02bd 	LDS  R30,_item2
001f4f 91f0 02be 	LDS  R31,_item2+1
001f51 93fa      	ST   -Y,R31
001f52 93ea      	ST   -Y,R30
001f53 eba8      	LDI  R26,LOW(_rlow)
001f54 e0b1      	LDI  R27,HIGH(_rlow)
001f55 0fee      	LSL  R30
001f56 1fff      	ROL  R31
001f57 0fae      	ADD  R26,R30
001f58 1fbf      	ADC  R27,R31
001f59 940e 2677 	CALL __GETW1P
001f5b 93fa      	ST   -Y,R31
001f5c 93ea      	ST   -Y,R30
001f5d e0e1      	LDI  R30,LOW(1)
001f5e e0f0      	LDI  R31,HIGH(1)
001f5f 93fa      	ST   -Y,R31
001f60 93ea      	ST   -Y,R30
001f61 eae9      	LDI  R30,LOW(_message_rlow)
001f62 e0f3      	LDI  R31,HIGH(_message_rlow)
001f63 93fa      	ST   -Y,R31
001f64 93ea      	ST   -Y,R30
001f65 e7a4      	LDI  R26,LOW(_dummy)
001f66 e0b1      	LDI  R27,HIGH(_dummy)
001f67 c09a      	RJMP _0x347
                 ; 0000 07D9                     break;
                 ; 0000 07DA             case 4: display_put(item2,rhigh[item2],1,message_rhigh,dummy);
                 _0x27C:
001f68 30e4      	CPI  R30,LOW(0x4)
001f69 e0a0      	LDI  R26,HIGH(0x4)
001f6a 07fa      	CPC  R31,R26
001f6b f4d9      	BRNE _0x27D
001f6c 91e0 02bd 	LDS  R30,_item2
001f6e 91f0 02be 	LDS  R31,_item2+1
001f70 93fa      	ST   -Y,R31
001f71 93ea      	ST   -Y,R30
001f72 eca8      	LDI  R26,LOW(_rhigh)
001f73 e0b1      	LDI  R27,HIGH(_rhigh)
001f74 0fee      	LSL  R30
001f75 1fff      	ROL  R31
001f76 0fae      	ADD  R26,R30
001f77 1fbf      	ADC  R27,R31
001f78 940e 2677 	CALL __GETW1P
001f7a 93fa      	ST   -Y,R31
001f7b 93ea      	ST   -Y,R30
001f7c e0e1      	LDI  R30,LOW(1)
001f7d e0f0      	LDI  R31,HIGH(1)
001f7e 93fa      	ST   -Y,R31
001f7f 93ea      	ST   -Y,R30
001f80 eee9      	LDI  R30,LOW(_message_rhigh)
001f81 e0f3      	LDI  R31,HIGH(_message_rhigh)
001f82 93fa      	ST   -Y,R31
001f83 93ea      	ST   -Y,R30
001f84 e7a4      	LDI  R26,LOW(_dummy)
001f85 e0b1      	LDI  R27,HIGH(_dummy)
001f86 c07b      	RJMP _0x347
                 ; 0000 07DB                     break;
                 ; 0000 07DC             case 5: display_put(item2,alow[item2],1,message_alow,dummy);
                 _0x27D:
001f87 30e5      	CPI  R30,LOW(0x5)
001f88 e0a0      	LDI  R26,HIGH(0x5)
001f89 07fa      	CPC  R31,R26
001f8a f4d9      	BRNE _0x27E
001f8b 91e0 02bd 	LDS  R30,_item2
001f8d 91f0 02be 	LDS  R31,_item2+1
001f8f 93fa      	ST   -Y,R31
001f90 93ea      	ST   -Y,R30
001f91 eda8      	LDI  R26,LOW(_alow)
001f92 e0b1      	LDI  R27,HIGH(_alow)
001f93 0fee      	LSL  R30
001f94 1fff      	ROL  R31
001f95 0fae      	ADD  R26,R30
001f96 1fbf      	ADC  R27,R31
001f97 940e 2677 	CALL __GETW1P
001f99 93fa      	ST   -Y,R31
001f9a 93ea      	ST   -Y,R30
001f9b e0e1      	LDI  R30,LOW(1)
001f9c e0f0      	LDI  R31,HIGH(1)
001f9d 93fa      	ST   -Y,R31
001f9e 93ea      	ST   -Y,R30
001f9f e2e9      	LDI  R30,LOW(_message_alow)
001fa0 e0f4      	LDI  R31,HIGH(_message_alow)
001fa1 93fa      	ST   -Y,R31
001fa2 93ea      	ST   -Y,R30
001fa3 e7a4      	LDI  R26,LOW(_dummy)
001fa4 e0b1      	LDI  R27,HIGH(_dummy)
001fa5 c05c      	RJMP _0x347
                 ; 0000 07DD                     break;
                 ; 0000 07DE             case 6: display_put(item2,ahigh[item2],1,message_ahigh,dummy);
                 _0x27E:
001fa6 30e6      	CPI  R30,LOW(0x6)
001fa7 e0a0      	LDI  R26,HIGH(0x6)
001fa8 07fa      	CPC  R31,R26
001fa9 f4d9      	BRNE _0x27F
001faa 91e0 02bd 	LDS  R30,_item2
001fac 91f0 02be 	LDS  R31,_item2+1
001fae 93fa      	ST   -Y,R31
001faf 93ea      	ST   -Y,R30
001fb0 eea8      	LDI  R26,LOW(_ahigh)
001fb1 e0b1      	LDI  R27,HIGH(_ahigh)
001fb2 0fee      	LSL  R30
001fb3 1fff      	ROL  R31
001fb4 0fae      	ADD  R26,R30
001fb5 1fbf      	ADC  R27,R31
001fb6 940e 2677 	CALL __GETW1P
001fb8 93fa      	ST   -Y,R31
001fb9 93ea      	ST   -Y,R30
001fba e0e1      	LDI  R30,LOW(1)
001fbb e0f0      	LDI  R31,HIGH(1)
001fbc 93fa      	ST   -Y,R31
001fbd 93ea      	ST   -Y,R30
001fbe e6e9      	LDI  R30,LOW(_message_ahigh)
001fbf e0f4      	LDI  R31,HIGH(_message_ahigh)
001fc0 93fa      	ST   -Y,R31
001fc1 93ea      	ST   -Y,R30
001fc2 e7a4      	LDI  R26,LOW(_dummy)
001fc3 e0b1      	LDI  R27,HIGH(_dummy)
001fc4 c03d      	RJMP _0x347
                 ; 0000 07DF                     break;
                 ; 0000 07E0             case 7: display_put(item2,input[item2],2,message_in,message_inp);
                 _0x27F:
001fc5 30e7      	CPI  R30,LOW(0x7)
001fc6 e0a0      	LDI  R26,HIGH(0x7)
001fc7 07fa      	CPC  R31,R26
001fc8 f4d9      	BRNE _0x280
001fc9 91e0 02bd 	LDS  R30,_item2
001fcb 91f0 02be 	LDS  R31,_item2+1
001fcd 93fa      	ST   -Y,R31
001fce 93ea      	ST   -Y,R30
001fcf efa8      	LDI  R26,LOW(_input)
001fd0 e0b1      	LDI  R27,HIGH(_input)
001fd1 0fee      	LSL  R30
001fd2 1fff      	ROL  R31
001fd3 0fae      	ADD  R26,R30
001fd4 1fbf      	ADC  R27,R31
001fd5 940e 2677 	CALL __GETW1P
001fd7 93fa      	ST   -Y,R31
001fd8 93ea      	ST   -Y,R30
001fd9 e0e2      	LDI  R30,LOW(2)
001fda e0f0      	LDI  R31,HIGH(2)
001fdb 93fa      	ST   -Y,R31
001fdc 93ea      	ST   -Y,R30
001fdd eae9      	LDI  R30,LOW(_message_in)
001fde e0f4      	LDI  R31,HIGH(_message_in)
001fdf 93fa      	ST   -Y,R31
001fe0 93ea      	ST   -Y,R30
001fe1 e4a9      	LDI  R26,LOW(_message_inp)
001fe2 e0b5      	LDI  R27,HIGH(_message_inp)
001fe3 c01e      	RJMP _0x347
                 ; 0000 07E1                     break;
                 ; 0000 07E2             case 8: display_put(item2,dp[item2],2,message_dp,message_dp1);
                 _0x280:
001fe4 30e8      	CPI  R30,LOW(0x8)
001fe5 e0a0      	LDI  R26,HIGH(0x8)
001fe6 07fa      	CPC  R31,R26
001fe7 f4e1      	BRNE _0x275
001fe8 91e0 02bd 	LDS  R30,_item2
001fea 91f0 02be 	LDS  R31,_item2+1
001fec 93fa      	ST   -Y,R31
001fed 93ea      	ST   -Y,R30
001fee e0a8      	LDI  R26,LOW(_dp)
001fef e0b2      	LDI  R27,HIGH(_dp)
001ff0 0fee      	LSL  R30
001ff1 1fff      	ROL  R31
001ff2 0fae      	ADD  R26,R30
001ff3 1fbf      	ADC  R27,R31
001ff4 940e 2677 	CALL __GETW1P
001ff6 93fa      	ST   -Y,R31
001ff7 93ea      	ST   -Y,R30
001ff8 e0e2      	LDI  R30,LOW(2)
001ff9 e0f0      	LDI  R31,HIGH(2)
001ffa 93fa      	ST   -Y,R31
001ffb 93ea      	ST   -Y,R30
001ffc eee9      	LDI  R30,LOW(_message_dp)
001ffd e0f4      	LDI  R31,HIGH(_message_dp)
001ffe 93fa      	ST   -Y,R31
001fff 93ea      	ST   -Y,R30
002000 efa1      	LDI  R26,LOW(_message_dp1)
002001 e0b5      	LDI  R27,HIGH(_message_dp1)
                 _0x347:
002002 940e 0fef 	CALL _display_put
                 ; 0000 07E3 
                 ; 0000 07E4             }
                 _0x275:
                 ; 0000 07E5 
                 ; 0000 07E6         }
                 ; 0000 07E7 
                 ; 0000 07E8 
                 ; 0000 07E9 
                 ; 0000 07EA 
                 ; 0000 07EB     }
                 _0x272:
                 ; 0000 07EC else if (cal_fl)
002004 c019      	RJMP _0x282
                 _0x26D:
002005 fe35      	SBRS R3,5
002006 c017      	RJMP _0x283
                 ; 0000 07ED     {
                 ; 0000 07EE     adc_value = adc3421_read();
002007 940e 0c1b 	CALL _adc3421_read
002009 018f      	MOVW R16,R30
                 ; 0000 07EF     display_put(mux_scan,adc_value,1,message_cal,dummy);
00200a 91e0 02b3 	LDS  R30,_mux_scan
00200c 91f0 02b4 	LDS  R31,_mux_scan+1
00200e 93fa      	ST   -Y,R31
00200f 93ea      	ST   -Y,R30
002010 931a      	ST   -Y,R17
002011 930a      	ST   -Y,R16
002012 e0e1      	LDI  R30,LOW(1)
002013 e0f0      	LDI  R31,HIGH(1)
002014 93fa      	ST   -Y,R31
002015 93ea      	ST   -Y,R30
002016 ebe1      	LDI  R30,LOW(_message_cal)
002017 e0f5      	LDI  R31,HIGH(_message_cal)
002018 93fa      	ST   -Y,R31
002019 93ea      	ST   -Y,R30
00201a e7a4      	LDI  R26,LOW(_dummy)
00201b e0b1      	LDI  R27,HIGH(_dummy)
00201c 940e 0fef 	CALL _display_put
                 ; 0000 07F0     }
                 ; 0000 07F1 }
                 _0x283:
                 _0x282:
                 _0x26C:
00201e c304      	RJMP _0x2060001
                 ; .FEND
                 ;
                 ;void display_out(short int count2)
                 ; 0000 07F4 {
                 _display_out:
                 ; .FSTART _display_out
                 ; 0000 07F5 int asa;
                 ; 0000 07F6 clear_display();
00201f 93ba      	ST   -Y,R27
002020 93aa      	ST   -Y,R26
002021 931a      	ST   -Y,R17
002022 930a      	ST   -Y,R16
                 ;	count2 -> Y+2
                 ;	asa -> R16,R17
002023 940e 040a 	CALL _clear_display
                 ; 0000 07F7 asa = display_buffer[count2];
002025 81ea      	LDD  R30,Y+2
002026 81fb      	LDD  R31,Y+2+1
002027 e6a0      	LDI  R26,LOW(_display_buffer)
002028 e0b1      	LDI  R27,HIGH(_display_buffer)
002029 0fee      	LSL  R30
00202a 1fff      	ROL  R31
00202b 0fae      	ADD  R26,R30
00202c 1fbf      	ADC  R27,R31
00202d 910d      	LD   R16,X+
00202e 911c      	LD   R17,X
                 ; 0000 07F8 asa = segment_table[asa];
00202f e8ac      	LDI  R26,LOW(_segment_table)
002030 e0b2      	LDI  R27,HIGH(_segment_table)
002031 0fa0      	ADD  R26,R16
002032 1fb1      	ADC  R27,R17
002033 910c      	LD   R16,X
002034 2711      	CLR  R17
                 ; 0000 07F9 if (count2 == (7-blink_digit))
002035 91a0 02b1 	LDS  R26,_blink_digit
002037 91b0 02b2 	LDS  R27,_blink_digit+1
002039 e0e7      	LDI  R30,LOW(7)
00203a e0f0      	LDI  R31,HIGH(7)
00203b 1bea      	SUB  R30,R26
00203c 0bfb      	SBC  R31,R27
00203d 81aa      	LDD  R26,Y+2
00203e 81bb      	LDD  R27,Y+2+1
00203f 17ea      	CP   R30,R26
002040 07fb      	CPC  R31,R27
002041 f451      	BRNE _0x284
                 ; 0000 07FA {
                 ; 0000 07FB if (blink_flag && blinking)
002042 fe23      	SBRS R2,3
002043 c002      	RJMP _0x286
002044 fc24      	SBRC R2,4
002045 c001      	RJMP _0x287
                 _0x286:
002046 c003      	RJMP _0x285
                 _0x287:
                 ; 0000 07FC PORTA =0xff;
002047 efef      	LDI  R30,LOW(255)
002048 bbeb      	OUT  0x1B,R30
                 ; 0000 07FD else
002049 c001      	RJMP _0x288
                 _0x285:
                 ; 0000 07FE PORTA = asa;
00204a bb0b      	OUT  0x1B,R16
                 ; 0000 07FF }
                 _0x288:
                 ; 0000 0800 else
00204b c001      	RJMP _0x289
                 _0x284:
                 ; 0000 0801 PORTA = asa;//decimal point for upper display
00204c bb0b      	OUT  0x1B,R16
                 ; 0000 0802 // logic to display decimal point
                 ; 0000 0803 switch (count2)
                 _0x289:
00204d 81ea      	LDD  R30,Y+2
00204e 81fb      	LDD  R31,Y+2+1
                 ; 0000 0804     {
                 ; 0000 0805     case 0: if (!menu_fl && !cal_fl )
00204f 9730      	SBIW R30,0
002050 f491      	BRNE _0x28D
002051 fc34      	SBRC R3,4
002052 c002      	RJMP _0x28F
002053 fe35      	SBRS R3,5
002054 c001      	RJMP _0x290
                 _0x28F:
002055 c00c      	RJMP _0x28E
                 _0x290:
                 ; 0000 0806                 {
                 ; 0000 0807                 if (dp[display_scan_cnt] ==0) PORTA.7 =0;
002056 01f5      	MOVW R30,R10
002057 e0a8      	LDI  R26,LOW(_dp)
002058 e0b2      	LDI  R27,HIGH(_dp)
002059 0fee      	LSL  R30
00205a 1fff      	ROL  R31
00205b 0fae      	ADD  R26,R30
00205c 1fbf      	ADC  R27,R31
00205d 940e 2677 	CALL __GETW1P
00205f 9730      	SBIW R30,0
002060 f409      	BRNE _0x291
002061 98df      	CBI  0x1B,7
                 ; 0000 0808                 }
                 _0x291:
                 ; 0000 0809             break;
                 _0x28E:
002062 c0f9      	RJMP _0x28C
                 ; 0000 080A     case 1: if (!menu_fl && !cal_fl )
                 _0x28D:
002063 30e1      	CPI  R30,LOW(0x1)
002064 e0a0      	LDI  R26,HIGH(0x1)
002065 07fa      	CPC  R31,R26
002066 f4a1      	BRNE _0x294
002067 fc34      	SBRC R3,4
002068 c002      	RJMP _0x296
002069 fe35      	SBRS R3,5
00206a c001      	RJMP _0x297
                 _0x296:
00206b c00e      	RJMP _0x295
                 _0x297:
                 ; 0000 080B                 {
                 ; 0000 080C                 if (dp[display_scan_cnt] ==1) PORTA.7 =0;
00206c 01f5      	MOVW R30,R10
00206d e0a8      	LDI  R26,LOW(_dp)
00206e e0b2      	LDI  R27,HIGH(_dp)
00206f 0fee      	LSL  R30
002070 1fff      	ROL  R31
002071 0fae      	ADD  R26,R30
002072 1fbf      	ADC  R27,R31
002073 940e 2677 	CALL __GETW1P
002075 30e1      	CPI  R30,LOW(0x1)
002076 e0a0      	LDI  R26,HIGH(0x1)
002077 07fa      	CPC  R31,R26
002078 f409      	BRNE _0x298
002079 98df      	CBI  0x1B,7
                 ; 0000 080D                 }
                 _0x298:
                 ; 0000 080E             break;
                 _0x295:
00207a c0e1      	RJMP _0x28C
                 ; 0000 080F     case 2: if (!menu_fl && !cal_fl )
                 _0x294:
00207b 30e2      	CPI  R30,LOW(0x2)
00207c e0a0      	LDI  R26,HIGH(0x2)
00207d 07fa      	CPC  R31,R26
00207e f4a1      	BRNE _0x29B
00207f fc34      	SBRC R3,4
002080 c002      	RJMP _0x29D
002081 fe35      	SBRS R3,5
002082 c001      	RJMP _0x29E
                 _0x29D:
002083 c00e      	RJMP _0x29C
                 _0x29E:
                 ; 0000 0810                 {
                 ; 0000 0811                 if (dp[display_scan_cnt] ==2) PORTA.7 =0;
002084 01f5      	MOVW R30,R10
002085 e0a8      	LDI  R26,LOW(_dp)
002086 e0b2      	LDI  R27,HIGH(_dp)
002087 0fee      	LSL  R30
002088 1fff      	ROL  R31
002089 0fae      	ADD  R26,R30
00208a 1fbf      	ADC  R27,R31
00208b 940e 2677 	CALL __GETW1P
00208d 30e2      	CPI  R30,LOW(0x2)
00208e e0a0      	LDI  R26,HIGH(0x2)
00208f 07fa      	CPC  R31,R26
002090 f409      	BRNE _0x29F
002091 98df      	CBI  0x1B,7
                 ; 0000 0812                 }
                 _0x29F:
                 ; 0000 0813             break;
                 _0x29C:
002092 c0c9      	RJMP _0x28C
                 ; 0000 0814     case 4: if (menu_fl && !cal_fl && (level ==2))
                 _0x29B:
002093 30e4      	CPI  R30,LOW(0x4)
002094 e0a0      	LDI  R26,HIGH(0x4)
002095 07fa      	CPC  R31,R26
002096 f5d9      	BRNE _0x2A2
002097 fe34      	SBRS R3,4
002098 c008      	RJMP _0x2A4
002099 fc35      	SBRC R3,5
00209a c006      	RJMP _0x2A4
00209b 91a0 02bf 	LDS  R26,_level
00209d 91b0 02c0 	LDS  R27,_level+1
00209f 9712      	SBIW R26,2
0020a0 f009      	BREQ _0x2A5
                 _0x2A4:
0020a1 c02f      	RJMP _0x2A3
                 _0x2A5:
                 ; 0000 0815                 {
                 ; 0000 0816                 if ((dp[item2] ==0) && ((item1==1)||(item1==3)||(item1==4)||(item1 ==5)||(item1==6))) PORTA.7=0;
0020a2 91e0 02bd 	LDS  R30,_item2
0020a4 91f0 02be 	LDS  R31,_item2+1
0020a6 e0a8      	LDI  R26,LOW(_dp)
0020a7 e0b2      	LDI  R27,HIGH(_dp)
0020a8 0fee      	LSL  R30
0020a9 1fff      	ROL  R31
0020aa 0fae      	ADD  R26,R30
0020ab 1fbf      	ADC  R27,R31
0020ac 940e 2677 	CALL __GETW1P
0020ae 9730      	SBIW R30,0
0020af f4f9      	BRNE _0x2A7
0020b0 91a0 02bb 	LDS  R26,_item1
0020b2 91b0 02bc 	LDS  R27,_item1+1
0020b4 9711      	SBIW R26,1
0020b5 f0c1      	BREQ _0x2A8
0020b6 91a0 02bb 	LDS  R26,_item1
0020b8 91b0 02bc 	LDS  R27,_item1+1
0020ba 9713      	SBIW R26,3
0020bb f091      	BREQ _0x2A8
0020bc 91a0 02bb 	LDS  R26,_item1
0020be 91b0 02bc 	LDS  R27,_item1+1
0020c0 9714      	SBIW R26,4
0020c1 f061      	BREQ _0x2A8
0020c2 91a0 02bb 	LDS  R26,_item1
0020c4 91b0 02bc 	LDS  R27,_item1+1
0020c6 9715      	SBIW R26,5
0020c7 f031      	BREQ _0x2A8
0020c8 91a0 02bb 	LDS  R26,_item1
0020ca 91b0 02bc 	LDS  R27,_item1+1
0020cc 9716      	SBIW R26,6
0020cd f409      	BRNE _0x2A7
                 _0x2A8:
0020ce c001      	RJMP _0x2AA
                 _0x2A7:
0020cf c001      	RJMP _0x2A6
                 _0x2AA:
0020d0 98df      	CBI  0x1B,7
                 ; 0000 0817                 }
                 _0x2A6:
                 ; 0000 0818             break;
                 _0x2A3:
0020d1 c08a      	RJMP _0x28C
                 ; 0000 0819     case 5: if (menu_fl && !cal_fl && (level ==2))
                 _0x2A2:
0020d2 30e5      	CPI  R30,LOW(0x5)
0020d3 e0a0      	LDI  R26,HIGH(0x5)
0020d4 07fa      	CPC  R31,R26
0020d5 f5d9      	BRNE _0x2AD
0020d6 fe34      	SBRS R3,4
0020d7 c008      	RJMP _0x2AF
0020d8 fc35      	SBRC R3,5
0020d9 c006      	RJMP _0x2AF
0020da 91a0 02bf 	LDS  R26,_level
0020dc 91b0 02c0 	LDS  R27,_level+1
0020de 9712      	SBIW R26,2
0020df f009      	BREQ _0x2B0
                 _0x2AF:
0020e0 c02f      	RJMP _0x2AE
                 _0x2B0:
                 ; 0000 081A                 {
                 ; 0000 081B                 if ((dp[item2] ==1)&& ((item1==1)||(item1==3)||(item1==4)||(item1 ==5)||(item1==6))) PORTA.7=0;
0020e1 91e0 02bd 	LDS  R30,_item2
0020e3 91f0 02be 	LDS  R31,_item2+1
0020e5 e0a8      	LDI  R26,LOW(_dp)
0020e6 e0b2      	LDI  R27,HIGH(_dp)
0020e7 0fee      	LSL  R30
0020e8 1fff      	ROL  R31
0020e9 0fae      	ADD  R26,R30
0020ea 1fbf      	ADC  R27,R31
0020eb 940e 2677 	CALL __GETW1P
0020ed 9731      	SBIW R30,1
0020ee f4f9      	BRNE _0x2B2
0020ef 91a0 02bb 	LDS  R26,_item1
0020f1 91b0 02bc 	LDS  R27,_item1+1
0020f3 9711      	SBIW R26,1
0020f4 f0c1      	BREQ _0x2B3
0020f5 91a0 02bb 	LDS  R26,_item1
0020f7 91b0 02bc 	LDS  R27,_item1+1
0020f9 9713      	SBIW R26,3
0020fa f091      	BREQ _0x2B3
0020fb 91a0 02bb 	LDS  R26,_item1
0020fd 91b0 02bc 	LDS  R27,_item1+1
0020ff 9714      	SBIW R26,4
002100 f061      	BREQ _0x2B3
002101 91a0 02bb 	LDS  R26,_item1
002103 91b0 02bc 	LDS  R27,_item1+1
002105 9715      	SBIW R26,5
002106 f031      	BREQ _0x2B3
002107 91a0 02bb 	LDS  R26,_item1
002109 91b0 02bc 	LDS  R27,_item1+1
00210b 9716      	SBIW R26,6
00210c f409      	BRNE _0x2B2
                 _0x2B3:
00210d c001      	RJMP _0x2B5
                 _0x2B2:
00210e c001      	RJMP _0x2B1
                 _0x2B5:
00210f 98df      	CBI  0x1B,7
                 ; 0000 081C                 }
                 _0x2B1:
                 ; 0000 081D             break;
                 _0x2AE:
002110 c04b      	RJMP _0x28C
                 ; 0000 081E     case 6: if (menu_fl && !cal_fl && (level ==2))
                 _0x2AD:
002111 30e6      	CPI  R30,LOW(0x6)
002112 e0a0      	LDI  R26,HIGH(0x6)
002113 07fa      	CPC  R31,R26
002114 f5d9      	BRNE _0x2B8
002115 fe34      	SBRS R3,4
002116 c008      	RJMP _0x2BA
002117 fc35      	SBRC R3,5
002118 c006      	RJMP _0x2BA
002119 91a0 02bf 	LDS  R26,_level
00211b 91b0 02c0 	LDS  R27,_level+1
00211d 9712      	SBIW R26,2
00211e f009      	BREQ _0x2BB
                 _0x2BA:
00211f c02f      	RJMP _0x2B9
                 _0x2BB:
                 ; 0000 081F                 {
                 ; 0000 0820                 if ((dp[item2] ==2)&& ((item1==1)||(item1==3)||(item1==4)||(item1 ==5)||(item1==6))) PORTA.7=0;
002120 91e0 02bd 	LDS  R30,_item2
002122 91f0 02be 	LDS  R31,_item2+1
002124 e0a8      	LDI  R26,LOW(_dp)
002125 e0b2      	LDI  R27,HIGH(_dp)
002126 0fee      	LSL  R30
002127 1fff      	ROL  R31
002128 0fae      	ADD  R26,R30
002129 1fbf      	ADC  R27,R31
00212a 940e 2677 	CALL __GETW1P
00212c 9732      	SBIW R30,2
00212d f4f9      	BRNE _0x2BD
00212e 91a0 02bb 	LDS  R26,_item1
002130 91b0 02bc 	LDS  R27,_item1+1
002132 9711      	SBIW R26,1
002133 f0c1      	BREQ _0x2BE
002134 91a0 02bb 	LDS  R26,_item1
002136 91b0 02bc 	LDS  R27,_item1+1
002138 9713      	SBIW R26,3
002139 f091      	BREQ _0x2BE
00213a 91a0 02bb 	LDS  R26,_item1
00213c 91b0 02bc 	LDS  R27,_item1+1
00213e 9714      	SBIW R26,4
00213f f061      	BREQ _0x2BE
002140 91a0 02bb 	LDS  R26,_item1
002142 91b0 02bc 	LDS  R27,_item1+1
002144 9715      	SBIW R26,5
002145 f031      	BREQ _0x2BE
002146 91a0 02bb 	LDS  R26,_item1
002148 91b0 02bc 	LDS  R27,_item1+1
00214a 9716      	SBIW R26,6
00214b f409      	BRNE _0x2BD
                 _0x2BE:
00214c c001      	RJMP _0x2C0
                 _0x2BD:
00214d c001      	RJMP _0x2BC
                 _0x2C0:
00214e 98df      	CBI  0x1B,7
                 ; 0000 0821                 }
                 _0x2BC:
                 ; 0000 0822             break;
                 _0x2B9:
00214f c00c      	RJMP _0x28C
                 ; 0000 0823     case 7: if (!menu_fl && !cal_fl && hold_fl)
                 _0x2B8:
002150 30e7      	CPI  R30,LOW(0x7)
002151 e0a0      	LDI  R26,HIGH(0x7)
002152 07fa      	CPC  R31,R26
002153 f441      	BRNE _0x28C
002154 fc34      	SBRC R3,4
002155 c004      	RJMP _0x2C5
002156 fc35      	SBRC R3,5
002157 c002      	RJMP _0x2C5
002158 fc37      	SBRC R3,7
002159 c001      	RJMP _0x2C6
                 _0x2C5:
00215a c001      	RJMP _0x2C4
                 _0x2C6:
                 ; 0000 0824             {
                 ; 0000 0825             PORTA.7 =0;
00215b 98df      	CBI  0x1B,7
                 ; 0000 0826             }
                 ; 0000 0827             break;
                 _0x2C4:
                 ; 0000 0828 
                 ; 0000 0829 
                 ; 0000 082A     }
                 _0x28C:
                 ; 0000 082B 
                 ; 0000 082C 
                 ; 0000 082D 
                 ; 0000 082E 
                 ; 0000 082F 
                 ; 0000 0830 ////end of decimal point logic
                 ; 0000 0831 
                 ; 0000 0832 switch(count2)
00215c 81ea      	LDD  R30,Y+2
00215d 81fb      	LDD  R31,Y+2+1
                 ; 0000 0833         {
                 ; 0000 0834         case 0:  digit1();
00215e 9730      	SBIW R30,0
00215f f411      	BRNE _0x2CC
002160 9aa8      	SBI  0x15,0
                 ; 0000 0835         break;
002161 c037      	RJMP _0x2CB
                 ; 0000 0836         case 1:  digit2();
                 _0x2CC:
002162 30e1      	CPI  R30,LOW(0x1)
002163 e0a0      	LDI  R26,HIGH(0x1)
002164 07fa      	CPC  R31,R26
002165 f411      	BRNE _0x2CF
002166 9aaf      	SBI  0x15,7
                 ; 0000 0837         break;
002167 c031      	RJMP _0x2CB
                 ; 0000 0838         case 2:  digit3();
                 _0x2CF:
002168 30e2      	CPI  R30,LOW(0x2)
002169 e0a0      	LDI  R26,HIGH(0x2)
00216a 07fa      	CPC  R31,R26
00216b f411      	BRNE _0x2D2
00216c 9aae      	SBI  0x15,6
                 ; 0000 0839         break;
00216d c02b      	RJMP _0x2CB
                 ; 0000 083A         case 3:  digit4();
                 _0x2D2:
00216e 30e3      	CPI  R30,LOW(0x3)
00216f e0a0      	LDI  R26,HIGH(0x3)
002170 07fa      	CPC  R31,R26
002171 f411      	BRNE _0x2D5
002172 9aad      	SBI  0x15,5
                 ; 0000 083B         break;
002173 c025      	RJMP _0x2CB
                 ; 0000 083C         case 4:  digit5();
                 _0x2D5:
002174 30e4      	CPI  R30,LOW(0x4)
002175 e0a0      	LDI  R26,HIGH(0x4)
002176 07fa      	CPC  R31,R26
002177 f411      	BRNE _0x2D8
002178 9aa9      	SBI  0x15,1
                 ; 0000 083D         break;
002179 c01f      	RJMP _0x2CB
                 ; 0000 083E         case 5:  digit6();
                 _0x2D8:
00217a 30e5      	CPI  R30,LOW(0x5)
00217b e0a0      	LDI  R26,HIGH(0x5)
00217c 07fa      	CPC  R31,R26
00217d f411      	BRNE _0x2DB
00217e 9aaa      	SBI  0x15,2
                 ; 0000 083F         break;
00217f c019      	RJMP _0x2CB
                 ; 0000 0840         case 6:  digit7();
                 _0x2DB:
002180 30e6      	CPI  R30,LOW(0x6)
002181 e0a0      	LDI  R26,HIGH(0x6)
002182 07fa      	CPC  R31,R26
002183 f411      	BRNE _0x2DE
002184 9aab      	SBI  0x15,3
                 ; 0000 0841         break;
002185 c013      	RJMP _0x2CB
                 ; 0000 0842         case 7:  digit8();
                 _0x2DE:
002186 30e7      	CPI  R30,LOW(0x7)
002187 e0a0      	LDI  R26,HIGH(0x7)
002188 07fa      	CPC  R31,R26
002189 f411      	BRNE _0x2E1
00218a 9aac      	SBI  0x15,4
                 ; 0000 0843         break;
00218b c00d      	RJMP _0x2CB
                 ; 0000 0844         case 8: PORTA = led_status;
                 _0x2E1:
00218c 30e8      	CPI  R30,LOW(0x8)
00218d e0a0      	LDI  R26,HIGH(0x8)
00218e 07fa      	CPC  R31,R26
00218f f419      	BRNE _0x2E4
002190 ba4b      	OUT  0x1B,R4
                 ; 0000 0845                 digit9();
002191 9ac6      	SBI  0x18,6
                 ; 0000 0846                 break;
002192 c006      	RJMP _0x2CB
                 ; 0000 0847         case 9: PORTA = led_status1;
                 _0x2E4:
002193 30e9      	CPI  R30,LOW(0x9)
002194 e0a0      	LDI  R26,HIGH(0x9)
002195 07fa      	CPC  R31,R26
002196 f411      	BRNE _0x2CB
002197 ba6b      	OUT  0x1B,R6
                 ; 0000 0848                 digit10();
002198 9ac7      	SBI  0x18,7
                 ; 0000 0849         break;
                 ; 0000 084A         }
                 _0x2CB:
                 ; 0000 084B 
                 ; 0000 084C //display_put(process_value[0],process_value[1],0,dummy,dummy2);                       //**
                 ; 0000 084D 
                 ; 0000 084E 
                 ; 0000 084F }
002199 8119      	LDD  R17,Y+1
00219a 8108      	LDD  R16,Y+0
00219b 9624      	ADIW R28,4
00219c 9508      	RET
                 ; .FEND
                 ;
                 ;
                 ;
                 ;
                 ;void key_check()
                 ; 0000 0855 {
                 _key_check:
                 ; .FSTART _key_check
                 ; 0000 0856      key1 = key2 = key3 = key4 = 1;
00219d 9ab5      	SBI  0x16,5
00219e 9ab4      	SBI  0x16,4
00219f 9ab3      	SBI  0x16,3
0021a0 9ab2      	SBI  0x16,2
                 ; 0000 0857       key_count++;
0021a1 eba7      	LDI  R26,LOW(_key_count)
0021a2 e0b2      	LDI  R27,HIGH(_key_count)
0021a3 91ed      	LD   R30,X+
0021a4 91fd      	LD   R31,X+
0021a5 9631      	ADIW R30,1
0021a6 93fe      	ST   -X,R31
0021a7 93ee      	ST   -X,R30
                 ; 0000 0858  if (key_count >=100)
0021a8 91a0 02b7 	LDS  R26,_key_count
0021aa 91b0 02b8 	LDS  R27,_key_count+1
0021ac 36a4      	CPI  R26,LOW(0x64)
0021ad e0e0      	LDI  R30,HIGH(0x64)
0021ae 07be      	CPC  R27,R30
0021af f18c      	BRLT _0x2F2
                 ; 0000 0859     {
                 ; 0000 085A       key_count=0;
0021b0 e0e0      	LDI  R30,LOW(0)
0021b1 93e0 02b7 	STS  _key_count,R30
0021b3 93e0 02b8 	STS  _key_count+1,R30
                 ; 0000 085B       if (!key1 && key1_old)ent_key();
0021b5 99b2      	SBIC 0x16,2
0021b6 c002      	RJMP _0x2F4
0021b7 fc30      	SBRC R3,0
0021b8 c001      	RJMP _0x2F5
                 _0x2F4:
0021b9 c002      	RJMP _0x2F3
                 _0x2F5:
0021ba 940e 1222 	CALL _ent_key
                 ; 0000 085C       if (!key2 && key2_old)inc_key();
                 _0x2F3:
0021bc 99b3      	SBIC 0x16,3
0021bd c002      	RJMP _0x2F7
0021be fc31      	SBRC R3,1
0021bf c001      	RJMP _0x2F8
                 _0x2F7:
0021c0 c002      	RJMP _0x2F6
                 _0x2F8:
0021c1 940e 1493 	CALL _inc_key
                 ; 0000 085D       if (!key3 && key3_old)dec_key();
                 _0x2F6:
0021c3 99b4      	SBIC 0x16,4
0021c4 c002      	RJMP _0x2FA
0021c5 fc32      	SBRC R3,2
0021c6 c001      	RJMP _0x2FB
                 _0x2FA:
0021c7 c002      	RJMP _0x2F9
                 _0x2FB:
0021c8 940e 1687 	CALL _dec_key
                 ; 0000 085E       if (!key4 && key4_old)shf_key();
                 _0x2F9:
0021ca 99b5      	SBIC 0x16,5
0021cb c002      	RJMP _0x2FD
0021cc fc33      	SBRC R3,3
0021cd c001      	RJMP _0x2FE
                 _0x2FD:
0021ce c002      	RJMP _0x2FC
                 _0x2FE:
0021cf 940e 183d 	CALL _shf_key
                 ; 0000 085F       key1_old = key1;
                 _0x2FC:
0021d1 94e8      	CLT
0021d2 99b2      	SBIC 0x16,2
0021d3 9468      	SET
0021d4 f830      	BLD  R3,0
                 ; 0000 0860       key2_old = key2;
0021d5 94e8      	CLT
0021d6 99b3      	SBIC 0x16,3
0021d7 9468      	SET
0021d8 f831      	BLD  R3,1
                 ; 0000 0861       key3_old = key3;
0021d9 94e8      	CLT
0021da 99b4      	SBIC 0x16,4
0021db 9468      	SET
0021dc f832      	BLD  R3,2
                 ; 0000 0862       key4_old = key4;
0021dd 94e8      	CLT
0021de 99b5      	SBIC 0x16,5
0021df 9468      	SET
0021e0 f833      	BLD  R3,3
                 ; 0000 0863      }
                 ; 0000 0864 }
                 _0x2F2:
0021e1 9508      	RET
                 ; .FEND
                 ;
                 ;void eeprom_transfer(void)
                 ; 0000 0867 {
                 _eeprom_transfer:
                 ; .FSTART _eeprom_transfer
                 ; 0000 0868 short int i;
                 ; 0000 0869 for(i=0;i<8;i++)
0021e2 931a      	ST   -Y,R17
0021e3 930a      	ST   -Y,R16
                 ;	i -> R16,R17
                +
0021e4 e000     +LDI R16 , LOW ( 0 )
0021e5 e010     +LDI R17 , HIGH ( 0 )
                 	__GETWRN 16,17,0
                 _0x300:
                +
0021e6 3008     +CPI R16 , LOW ( 8 )
0021e7 e0e0     +LDI R30 , HIGH ( 8 )
0021e8 071e     +CPC R17 , R30
                 	__CPWRN 16,17,8
0021e9 f4bc      	BRGE _0x301
                 ; 0000 086A     {
                 ; 0000 086B     cal_zero[i] = ee_cal_zero[i];
0021ea 01f8      	MOVW R30,R16
0021eb e1a8      	LDI  R26,LOW(_cal_zero)
0021ec e0b2      	LDI  R27,HIGH(_cal_zero)
0021ed 0fee      	LSL  R30
0021ee 1fff      	ROL  R31
0021ef 0fea      	ADD  R30,R26
0021f0 1ffb      	ADC  R31,R27
0021f1 010f      	MOVW R0,R30
0021f2 01f8      	MOVW R30,R16
0021f3 e9a0      	LDI  R26,LOW(_ee_cal_zero)
0021f4 e0b0      	LDI  R27,HIGH(_ee_cal_zero)
0021f5 0fee      	LSL  R30
0021f6 1fff      	ROL  R31
0021f7 0fae      	ADD  R26,R30
0021f8 1fbf      	ADC  R27,R31
0021f9 940e 26a0 	CALL __EEPROMRDW
0021fb 01d0      	MOVW R26,R0
0021fc 93ed      	ST   X+,R30
0021fd 93fc      	ST   X,R31
                 ; 0000 086C     }
                +
0021fe 5f0f     +SUBI R16 , LOW ( - 1 )
0021ff 4f1f     +SBCI R17 , HIGH ( - 1 )
                 	__ADDWRN 16,17,1
002200 cfe5      	RJMP _0x300
                 _0x301:
                 ; 0000 086D for(i=0;i<8;i++)
                +
002201 e000     +LDI R16 , LOW ( 0 )
002202 e010     +LDI R17 , HIGH ( 0 )
                 	__GETWRN 16,17,0
                 _0x303:
                +
002203 3008     +CPI R16 , LOW ( 8 )
002204 e0e0     +LDI R30 , HIGH ( 8 )
002205 071e     +CPC R17 , R30
                 	__CPWRN 16,17,8
002206 f4bc      	BRGE _0x304
                 ; 0000 086E     {
                 ; 0000 086F     cal_span[i] = ee_cal_span[i];
002207 01f8      	MOVW R30,R16
002208 e2a8      	LDI  R26,LOW(_cal_span)
002209 e0b2      	LDI  R27,HIGH(_cal_span)
00220a 0fee      	LSL  R30
00220b 1fff      	ROL  R31
00220c 0fea      	ADD  R30,R26
00220d 1ffb      	ADC  R31,R27
00220e 010f      	MOVW R0,R30
00220f 01f8      	MOVW R30,R16
002210 eaa0      	LDI  R26,LOW(_ee_cal_span)
002211 e0b0      	LDI  R27,HIGH(_ee_cal_span)
002212 0fee      	LSL  R30
002213 1fff      	ROL  R31
002214 0fae      	ADD  R26,R30
002215 1fbf      	ADC  R27,R31
002216 940e 26a0 	CALL __EEPROMRDW
002218 01d0      	MOVW R26,R0
002219 93ed      	ST   X+,R30
00221a 93fc      	ST   X,R31
                 ; 0000 0870     }
                +
00221b 5f0f     +SUBI R16 , LOW ( - 1 )
00221c 4f1f     +SBCI R17 , HIGH ( - 1 )
                 	__ADDWRN 16,17,1
00221d cfe5      	RJMP _0x303
                 _0x304:
                 ; 0000 0871 for(i=0;i<3;i++)
                +
00221e e000     +LDI R16 , LOW ( 0 )
00221f e010     +LDI R17 , HIGH ( 0 )
                 	__GETWRN 16,17,0
                 _0x306:
                +
002220 3003     +CPI R16 , LOW ( 3 )
002221 e0e0     +LDI R30 , HIGH ( 3 )
002222 071e     +CPC R17 , R30
                 	__CPWRN 16,17,3
002223 f4bc      	BRGE _0x307
                 ; 0000 0872     {
                 ; 0000 0873     gen[i] = ee_gen[i];
002224 01f8      	MOVW R30,R16
002225 e8a8      	LDI  R26,LOW(_gen)
002226 e0b1      	LDI  R27,HIGH(_gen)
002227 0fee      	LSL  R30
002228 1fff      	ROL  R31
002229 0fea      	ADD  R30,R26
00222a 1ffb      	ADC  R31,R27
00222b 010f      	MOVW R0,R30
00222c 01f8      	MOVW R30,R16
00222d e0a0      	LDI  R26,LOW(_ee_gen)
00222e e0b0      	LDI  R27,HIGH(_ee_gen)
00222f 0fee      	LSL  R30
002230 1fff      	ROL  R31
002231 0fae      	ADD  R26,R30
002232 1fbf      	ADC  R27,R31
002233 940e 26a0 	CALL __EEPROMRDW
002235 01d0      	MOVW R26,R0
002236 93ed      	ST   X+,R30
002237 93fc      	ST   X,R31
                 ; 0000 0874     }
                +
002238 5f0f     +SUBI R16 , LOW ( - 1 )
002239 4f1f     +SBCI R17 , HIGH ( - 1 )
                 	__ADDWRN 16,17,1
00223a cfe5      	RJMP _0x306
                 _0x307:
                 ; 0000 0875 for(i=0;i<8;i++)
                +
00223b e000     +LDI R16 , LOW ( 0 )
00223c e010     +LDI R17 , HIGH ( 0 )
                 	__GETWRN 16,17,0
                 _0x309:
                +
00223d 3008     +CPI R16 , LOW ( 8 )
00223e e0e0     +LDI R30 , HIGH ( 8 )
00223f 071e     +CPC R17 , R30
                 	__CPWRN 16,17,8
002240 f4bc      	BRGE _0x30A
                 ; 0000 0876     {
                 ; 0000 0877     os[i] = ee_os[i];
002241 01f8      	MOVW R30,R16
002242 e9a8      	LDI  R26,LOW(_os)
002243 e0b1      	LDI  R27,HIGH(_os)
002244 0fee      	LSL  R30
002245 1fff      	ROL  R31
002246 0fea      	ADD  R30,R26
002247 1ffb      	ADC  R31,R27
002248 010f      	MOVW R0,R30
002249 01f8      	MOVW R30,R16
00224a e1a0      	LDI  R26,LOW(_ee_os)
00224b e0b0      	LDI  R27,HIGH(_ee_os)
00224c 0fee      	LSL  R30
00224d 1fff      	ROL  R31
00224e 0fae      	ADD  R26,R30
00224f 1fbf      	ADC  R27,R31
002250 940e 26a0 	CALL __EEPROMRDW
002252 01d0      	MOVW R26,R0
002253 93ed      	ST   X+,R30
002254 93fc      	ST   X,R31
                 ; 0000 0878     }
                +
002255 5f0f     +SUBI R16 , LOW ( - 1 )
002256 4f1f     +SBCI R17 , HIGH ( - 1 )
                 	__ADDWRN 16,17,1
002257 cfe5      	RJMP _0x309
                 _0x30A:
                 ; 0000 0879 for(i=0;i<8;i++)
                +
002258 e000     +LDI R16 , LOW ( 0 )
002259 e010     +LDI R17 , HIGH ( 0 )
                 	__GETWRN 16,17,0
                 _0x30C:
                +
00225a 3008     +CPI R16 , LOW ( 8 )
00225b e0e0     +LDI R30 , HIGH ( 8 )
00225c 071e     +CPC R17 , R30
                 	__CPWRN 16,17,8
00225d f4bc      	BRGE _0x30D
                 ; 0000 087A     {
                 ; 0000 087B     skip[i] = ee_skip[i];
00225e 01f8      	MOVW R30,R16
00225f eaa8      	LDI  R26,LOW(_skip)
002260 e0b1      	LDI  R27,HIGH(_skip)
002261 0fee      	LSL  R30
002262 1fff      	ROL  R31
002263 0fea      	ADD  R30,R26
002264 1ffb      	ADC  R31,R27
002265 010f      	MOVW R0,R30
002266 01f8      	MOVW R30,R16
002267 e2a0      	LDI  R26,LOW(_ee_skip)
002268 e0b0      	LDI  R27,HIGH(_ee_skip)
002269 0fee      	LSL  R30
00226a 1fff      	ROL  R31
00226b 0fae      	ADD  R26,R30
00226c 1fbf      	ADC  R27,R31
00226d 940e 26a0 	CALL __EEPROMRDW
00226f 01d0      	MOVW R26,R0
002270 93ed      	ST   X+,R30
002271 93fc      	ST   X,R31
                 ; 0000 087C     }
                +
002272 5f0f     +SUBI R16 , LOW ( - 1 )
002273 4f1f     +SBCI R17 , HIGH ( - 1 )
                 	__ADDWRN 16,17,1
002274 cfe5      	RJMP _0x30C
                 _0x30D:
                 ; 0000 087D for(i=0;i<8;i++)
                +
002275 e000     +LDI R16 , LOW ( 0 )
002276 e010     +LDI R17 , HIGH ( 0 )
                 	__GETWRN 16,17,0
                 _0x30F:
                +
002277 3008     +CPI R16 , LOW ( 8 )
002278 e0e0     +LDI R30 , HIGH ( 8 )
002279 071e     +CPC R17 , R30
                 	__CPWRN 16,17,8
00227a f4bc      	BRGE _0x310
                 ; 0000 087E     {
                 ; 0000 087F     rlow[i] = ee_rlow[i];
00227b 01f8      	MOVW R30,R16
00227c eba8      	LDI  R26,LOW(_rlow)
00227d e0b1      	LDI  R27,HIGH(_rlow)
00227e 0fee      	LSL  R30
00227f 1fff      	ROL  R31
002280 0fea      	ADD  R30,R26
002281 1ffb      	ADC  R31,R27
002282 010f      	MOVW R0,R30
002283 01f8      	MOVW R30,R16
002284 e3a0      	LDI  R26,LOW(_ee_rlow)
002285 e0b0      	LDI  R27,HIGH(_ee_rlow)
002286 0fee      	LSL  R30
002287 1fff      	ROL  R31
002288 0fae      	ADD  R26,R30
002289 1fbf      	ADC  R27,R31
00228a 940e 26a0 	CALL __EEPROMRDW
00228c 01d0      	MOVW R26,R0
00228d 93ed      	ST   X+,R30
00228e 93fc      	ST   X,R31
                 ; 0000 0880     }
                +
00228f 5f0f     +SUBI R16 , LOW ( - 1 )
002290 4f1f     +SBCI R17 , HIGH ( - 1 )
                 	__ADDWRN 16,17,1
002291 cfe5      	RJMP _0x30F
                 _0x310:
                 ; 0000 0881 for(i=0;i<8;i++)
                +
002292 e000     +LDI R16 , LOW ( 0 )
002293 e010     +LDI R17 , HIGH ( 0 )
                 	__GETWRN 16,17,0
                 _0x312:
                +
002294 3008     +CPI R16 , LOW ( 8 )
002295 e0e0     +LDI R30 , HIGH ( 8 )
002296 071e     +CPC R17 , R30
                 	__CPWRN 16,17,8
002297 f4bc      	BRGE _0x313
                 ; 0000 0882     {
                 ; 0000 0883     rhigh[i] = ee_rhigh[i];
002298 01f8      	MOVW R30,R16
002299 eca8      	LDI  R26,LOW(_rhigh)
00229a e0b1      	LDI  R27,HIGH(_rhigh)
00229b 0fee      	LSL  R30
00229c 1fff      	ROL  R31
00229d 0fea      	ADD  R30,R26
00229e 1ffb      	ADC  R31,R27
00229f 010f      	MOVW R0,R30
0022a0 01f8      	MOVW R30,R16
0022a1 e4a0      	LDI  R26,LOW(_ee_rhigh)
0022a2 e0b0      	LDI  R27,HIGH(_ee_rhigh)
0022a3 0fee      	LSL  R30
0022a4 1fff      	ROL  R31
0022a5 0fae      	ADD  R26,R30
0022a6 1fbf      	ADC  R27,R31
0022a7 940e 26a0 	CALL __EEPROMRDW
0022a9 01d0      	MOVW R26,R0
0022aa 93ed      	ST   X+,R30
0022ab 93fc      	ST   X,R31
                 ; 0000 0884     }
                +
0022ac 5f0f     +SUBI R16 , LOW ( - 1 )
0022ad 4f1f     +SBCI R17 , HIGH ( - 1 )
                 	__ADDWRN 16,17,1
0022ae cfe5      	RJMP _0x312
                 _0x313:
                 ; 0000 0885 for(i=0;i<8;i++)
                +
0022af e000     +LDI R16 , LOW ( 0 )
0022b0 e010     +LDI R17 , HIGH ( 0 )
                 	__GETWRN 16,17,0
                 _0x315:
                +
0022b1 3008     +CPI R16 , LOW ( 8 )
0022b2 e0e0     +LDI R30 , HIGH ( 8 )
0022b3 071e     +CPC R17 , R30
                 	__CPWRN 16,17,8
0022b4 f4bc      	BRGE _0x316
                 ; 0000 0886     {
                 ; 0000 0887     alow[i] = ee_alow[i];
0022b5 01f8      	MOVW R30,R16
0022b6 eda8      	LDI  R26,LOW(_alow)
0022b7 e0b1      	LDI  R27,HIGH(_alow)
0022b8 0fee      	LSL  R30
0022b9 1fff      	ROL  R31
0022ba 0fea      	ADD  R30,R26
0022bb 1ffb      	ADC  R31,R27
0022bc 010f      	MOVW R0,R30
0022bd 01f8      	MOVW R30,R16
0022be e5a0      	LDI  R26,LOW(_ee_alow)
0022bf e0b0      	LDI  R27,HIGH(_ee_alow)
0022c0 0fee      	LSL  R30
0022c1 1fff      	ROL  R31
0022c2 0fae      	ADD  R26,R30
0022c3 1fbf      	ADC  R27,R31
0022c4 940e 26a0 	CALL __EEPROMRDW
0022c6 01d0      	MOVW R26,R0
0022c7 93ed      	ST   X+,R30
0022c8 93fc      	ST   X,R31
                 ; 0000 0888     }
                +
0022c9 5f0f     +SUBI R16 , LOW ( - 1 )
0022ca 4f1f     +SBCI R17 , HIGH ( - 1 )
                 	__ADDWRN 16,17,1
0022cb cfe5      	RJMP _0x315
                 _0x316:
                 ; 0000 0889 for(i=0;i<8;i++)
                +
0022cc e000     +LDI R16 , LOW ( 0 )
0022cd e010     +LDI R17 , HIGH ( 0 )
                 	__GETWRN 16,17,0
                 _0x318:
                +
0022ce 3008     +CPI R16 , LOW ( 8 )
0022cf e0e0     +LDI R30 , HIGH ( 8 )
0022d0 071e     +CPC R17 , R30
                 	__CPWRN 16,17,8
0022d1 f4bc      	BRGE _0x319
                 ; 0000 088A     {
                 ; 0000 088B     ahigh[i] = ee_ahigh[i];
0022d2 01f8      	MOVW R30,R16
0022d3 eea8      	LDI  R26,LOW(_ahigh)
0022d4 e0b1      	LDI  R27,HIGH(_ahigh)
0022d5 0fee      	LSL  R30
0022d6 1fff      	ROL  R31
0022d7 0fea      	ADD  R30,R26
0022d8 1ffb      	ADC  R31,R27
0022d9 010f      	MOVW R0,R30
0022da 01f8      	MOVW R30,R16
0022db e6a0      	LDI  R26,LOW(_ee_ahigh)
0022dc e0b0      	LDI  R27,HIGH(_ee_ahigh)
0022dd 0fee      	LSL  R30
0022de 1fff      	ROL  R31
0022df 0fae      	ADD  R26,R30
0022e0 1fbf      	ADC  R27,R31
0022e1 940e 26a0 	CALL __EEPROMRDW
0022e3 01d0      	MOVW R26,R0
0022e4 93ed      	ST   X+,R30
0022e5 93fc      	ST   X,R31
                 ; 0000 088C     }
                +
0022e6 5f0f     +SUBI R16 , LOW ( - 1 )
0022e7 4f1f     +SBCI R17 , HIGH ( - 1 )
                 	__ADDWRN 16,17,1
0022e8 cfe5      	RJMP _0x318
                 _0x319:
                 ; 0000 088D for(i=0;i<8;i++)
                +
0022e9 e000     +LDI R16 , LOW ( 0 )
0022ea e010     +LDI R17 , HIGH ( 0 )
                 	__GETWRN 16,17,0
                 _0x31B:
                +
0022eb 3008     +CPI R16 , LOW ( 8 )
0022ec e0e0     +LDI R30 , HIGH ( 8 )
0022ed 071e     +CPC R17 , R30
                 	__CPWRN 16,17,8
0022ee f4bc      	BRGE _0x31C
                 ; 0000 088E     {
                 ; 0000 088F     input[i] = ee_input[i];
0022ef 01f8      	MOVW R30,R16
0022f0 efa8      	LDI  R26,LOW(_input)
0022f1 e0b1      	LDI  R27,HIGH(_input)
0022f2 0fee      	LSL  R30
0022f3 1fff      	ROL  R31
0022f4 0fea      	ADD  R30,R26
0022f5 1ffb      	ADC  R31,R27
0022f6 010f      	MOVW R0,R30
0022f7 01f8      	MOVW R30,R16
0022f8 e7a0      	LDI  R26,LOW(_ee_input)
0022f9 e0b0      	LDI  R27,HIGH(_ee_input)
0022fa 0fee      	LSL  R30
0022fb 1fff      	ROL  R31
0022fc 0fae      	ADD  R26,R30
0022fd 1fbf      	ADC  R27,R31
0022fe 940e 26a0 	CALL __EEPROMRDW
002300 01d0      	MOVW R26,R0
002301 93ed      	ST   X+,R30
002302 93fc      	ST   X,R31
                 ; 0000 0890     }
                +
002303 5f0f     +SUBI R16 , LOW ( - 1 )
002304 4f1f     +SBCI R17 , HIGH ( - 1 )
                 	__ADDWRN 16,17,1
002305 cfe5      	RJMP _0x31B
                 _0x31C:
                 ; 0000 0891 for(i=0;i<8;i++)
                +
002306 e000     +LDI R16 , LOW ( 0 )
002307 e010     +LDI R17 , HIGH ( 0 )
                 	__GETWRN 16,17,0
                 _0x31E:
                +
002308 3008     +CPI R16 , LOW ( 8 )
002309 e0e0     +LDI R30 , HIGH ( 8 )
00230a 071e     +CPC R17 , R30
                 	__CPWRN 16,17,8
00230b f4bc      	BRGE _0x31F
                 ; 0000 0892     {
                 ; 0000 0893     dp[i] = ee_dp[i];
00230c 01f8      	MOVW R30,R16
00230d e0a8      	LDI  R26,LOW(_dp)
00230e e0b2      	LDI  R27,HIGH(_dp)
00230f 0fee      	LSL  R30
002310 1fff      	ROL  R31
002311 0fea      	ADD  R30,R26
002312 1ffb      	ADC  R31,R27
002313 010f      	MOVW R0,R30
002314 01f8      	MOVW R30,R16
002315 e8a0      	LDI  R26,LOW(_ee_dp)
002316 e0b0      	LDI  R27,HIGH(_ee_dp)
002317 0fee      	LSL  R30
002318 1fff      	ROL  R31
002319 0fae      	ADD  R26,R30
00231a 1fbf      	ADC  R27,R31
00231b 940e 26a0 	CALL __EEPROMRDW
00231d 01d0      	MOVW R26,R0
00231e 93ed      	ST   X+,R30
00231f 93fc      	ST   X,R31
                 ; 0000 0894     }
                +
002320 5f0f     +SUBI R16 , LOW ( - 1 )
002321 4f1f     +SBCI R17 , HIGH ( - 1 )
                 	__ADDWRN 16,17,1
002322 cfe5      	RJMP _0x31E
                 _0x31F:
                 ; 0000 0895 
                 ; 0000 0896 }
                 _0x2060001:
002323 9109      	LD   R16,Y+
002324 9119      	LD   R17,Y+
002325 9508      	RET
                 ; .FEND
                 ;
                 ;// added to check if any input is tc. if so, then channel 8 is skipped for all purposes
                 ;void tc_check()
                 ; 0000 089A {
                 _tc_check:
                 ; .FSTART _tc_check
                 ; 0000 089B //int i;
                 ; 0000 089C //tc_fl =0;
                 ; 0000 089D //for (i=0;i<=7;i++)
                 ; 0000 089E //    {
                 ; 0000 089F //    if (input[i]>=2  && input[i] <=6) tc_fl =1;
                 ; 0000 08A0 //    }
                 ; 0000 08A1 //if (tc_fl) skip[7] = ee_skip[7] = 1;    //force skip channel 8
                 ; 0000 08A2 tc_fl =1;
002326 9468      	SET
002327 f821      	BLD  R2,1
                 ; 0000 08A3 }
002328 9508      	RET
                 ; .FEND
                 ;
                 ;void init(void)
                 ; 0000 08A6 {
                 _init:
                 ; .FSTART _init
                 ; 0000 08A7 // Input/Output Ports initialization
                 ; 0000 08A8 // Port A initialization
                 ; 0000 08A9 // Function: Bit7=Out Bit6=Out Bit5=Out Bit4=Out Bit3=Out Bit2=Out Bit1=Out Bit0=Out
                 ; 0000 08AA DDRA=(1<<DDA7) | (1<<DDA6) | (1<<DDA5) | (1<<DDA4) | (1<<DDA3) | (1<<DDA2) | (1<<DDA1) | (1<<DDA0);
002329 efef      	LDI  R30,LOW(255)
00232a bbea      	OUT  0x1A,R30
                 ; 0000 08AB // State: Bit7=1 Bit6=1 Bit5=1 Bit4=1 Bit3=1 Bit2=1 Bit1=1 Bit0=1
                 ; 0000 08AC PORTA=(1<<PORTA7) | (1<<PORTA6) | (1<<PORTA5) | (1<<PORTA4) | (1<<PORTA3) | (1<<PORTA2) | (1<<PORTA1) | (1<<PORTA0);
00232b bbeb      	OUT  0x1B,R30
                 ; 0000 08AD 
                 ; 0000 08AE // Port B initialization
                 ; 0000 08AF // Function: Bit7=Out Bit6=Out Bit5=In Bit4=In Bit3=In Bit2=In Bit1=Out Bit0=Out
                 ; 0000 08B0 DDRB=(1<<DDB7) | (1<<DDB6) | (0<<DDB5) | (0<<DDB4) | (0<<DDB3) | (0<<DDB2) | (1<<DDB1) | (1<<DDB0);
00232c ece3      	LDI  R30,LOW(195)
00232d bbe7      	OUT  0x17,R30
                 ; 0000 08B1 // State: Bit7=1 Bit6=1 Bit5=P Bit4=P Bit3=P Bit2=P Bit1=1 Bit0=1
                 ; 0000 08B2 PORTB=(1<<PORTB7) | (1<<PORTB6) | (1<<PORTB5) | (1<<PORTB4) | (1<<PORTB3) | (1<<PORTB2) | (1<<PORTB1) | (1<<PORTB0);
00232e efef      	LDI  R30,LOW(255)
00232f bbe8      	OUT  0x18,R30
                 ; 0000 08B3 
                 ; 0000 08B4 // Port C initialization
                 ; 0000 08B5 // Function: Bit7=Out Bit6=Out Bit5=Out Bit4=Out Bit3=Out Bit2=Out Bit1=Out Bit0=Out
                 ; 0000 08B6 DDRC=(1<<DDC7) | (1<<DDC6) | (1<<DDC5) | (1<<DDC4) | (1<<DDC3) | (1<<DDC2) | (1<<DDC1) | (1<<DDC0);
002330 bbe4      	OUT  0x14,R30
                 ; 0000 08B7 // State: Bit7=1 Bit6=1 Bit5=1 Bit4=1 Bit3=1 Bit2=1 Bit1=1 Bit0=1
                 ; 0000 08B8 PORTC=(1<<PORTC7) | (1<<PORTC6) | (1<<PORTC5) | (1<<PORTC4) | (1<<PORTC3) | (1<<PORTC2) | (1<<PORTC1) | (1<<PORTC0);
002331 bbe5      	OUT  0x15,R30
                 ; 0000 08B9 
                 ; 0000 08BA // Port D initialization
                 ; 0000 08BB // Function: Bit7=Out Bit6=Out Bit5=Out Bit4=Out Bit3=Out Bit2=Out Bit1=Out Bit0=Out
                 ; 0000 08BC DDRD=(1<<DDD7) | (1<<DDD6) | (1<<DDD5) | (1<<DDD4) | (1<<DDD3) | (1<<DDD2) | (1<<DDD1) | (1<<DDD0);
002332 bbe1      	OUT  0x11,R30
                 ; 0000 08BD // State: Bit7=1 Bit6=1 Bit5=1 Bit4=1 Bit3=1 Bit2=1 Bit1=1 Bit0=1
                 ; 0000 08BE PORTD=(1<<PORTD7) | (1<<PORTD6) | (1<<PORTD5) | (1<<PORTD4) | (1<<PORTD3) | (1<<PORTD2) | (1<<PORTD1) | (1<<PORTD0);
002333 bbe2      	OUT  0x12,R30
                 ; 0000 08BF 
                 ; 0000 08C0 // Timer/Counter 0 initialization
                 ; 0000 08C1 // Clock source: System Clock
                 ; 0000 08C2 // Clock value: Timer 0 Stopped
                 ; 0000 08C3 // Mode: Normal top=0xFF
                 ; 0000 08C4 // OC0 output: Disconnected
                 ; 0000 08C5 TCCR0=(0<<WGM00) | (0<<COM01) | (0<<COM00) | (0<<WGM01) | (0<<CS02) | (0<<CS01) | (0<<CS00);
002334 e0e0      	LDI  R30,LOW(0)
002335 bfe3      	OUT  0x33,R30
                 ; 0000 08C6 TCNT0=0x00;
002336 bfe2      	OUT  0x32,R30
                 ; 0000 08C7 OCR0=0x00;
002337 bfec      	OUT  0x3C,R30
                 ; 0000 08C8 
                 ; 0000 08C9 // Timer/Counter 1 initialization
                 ; 0000 08CA // Clock source: System Clock
                 ; 0000 08CB // Clock value: 172.800 kHz
                 ; 0000 08CC // Mode: Normal top=0xFFFF
                 ; 0000 08CD // OC1A output: Disconnected
                 ; 0000 08CE // OC1B output: Disconnected
                 ; 0000 08CF // Noise Canceler: Off
                 ; 0000 08D0 // Input Capture on Falling Edge
                 ; 0000 08D1 // Timer Period: 0.5 s
                 ; 0000 08D2 // Timer1 Overflow Interrupt: On
                 ; 0000 08D3 // Input Capture Interrupt: Off
                 ; 0000 08D4 // Compare A Match Interrupt: Off
                 ; 0000 08D5 // Compare B Match Interrupt: Off
                 ; 0000 08D6 TCCR1A=(0<<COM1A1) | (0<<COM1A0) | (0<<COM1B1) | (0<<COM1B0) | (0<<WGM11) | (0<<WGM10);
002338 bdef      	OUT  0x2F,R30
                 ; 0000 08D7 TCCR1B=(0<<ICNC1) | (0<<ICES1) | (0<<WGM13) | (0<<WGM12) | (1<<CS12) | (0<<CS11) | (0<<CS10);
002339 e0e4      	LDI  R30,LOW(4)
00233a bdee      	OUT  0x2E,R30
                 ; 0000 08D8 TCNT1H=0xAB;
00233b eaeb      	LDI  R30,LOW(171)
00233c bded      	OUT  0x2D,R30
                 ; 0000 08D9 TCNT1L=0xA0;
00233d eae0      	LDI  R30,LOW(160)
00233e bdec      	OUT  0x2C,R30
                 ; 0000 08DA ICR1H=0x00;
00233f e0e0      	LDI  R30,LOW(0)
002340 bde7      	OUT  0x27,R30
                 ; 0000 08DB ICR1L=0x00;
002341 bde6      	OUT  0x26,R30
                 ; 0000 08DC OCR1AH=0x00;
002342 bdeb      	OUT  0x2B,R30
                 ; 0000 08DD OCR1AL=0x00;
002343 bdea      	OUT  0x2A,R30
                 ; 0000 08DE OCR1BH=0x00;
002344 bde9      	OUT  0x29,R30
                 ; 0000 08DF OCR1BL=0x00;
002345 bde8      	OUT  0x28,R30
                 ; 0000 08E0 
                 ; 0000 08E1 // Timer/Counter 2 initialization
                 ; 0000 08E2 // Clock source: System Clock
                 ; 0000 08E3 // Clock value: Timer2 Stopped
                 ; 0000 08E4 // Mode: Normal top=0xFF
                 ; 0000 08E5 // OC2 output: Disconnected
                 ; 0000 08E6 ASSR=0<<AS2;
002346 bde2      	OUT  0x22,R30
                 ; 0000 08E7 TCCR2=(0<<PWM2) | (0<<COM21) | (0<<COM20) | (0<<CTC2) | (0<<CS22) | (0<<CS21) | (0<<CS20);
002347 bde5      	OUT  0x25,R30
                 ; 0000 08E8 TCNT2=0x00;
002348 bde4      	OUT  0x24,R30
                 ; 0000 08E9 OCR2=0x00;
002349 bde3      	OUT  0x23,R30
                 ; 0000 08EA 
                 ; 0000 08EB // Timer(s)/Counter(s) Interrupt(s) initialization
                 ; 0000 08EC TIMSK=(0<<OCIE2) | (0<<TOIE2) | (0<<TICIE1) | (0<<OCIE1A) | (0<<OCIE1B) | (1<<TOIE1) | (0<<OCIE0) | (0<<TOIE0);
00234a e0e4      	LDI  R30,LOW(4)
00234b bfe9      	OUT  0x39,R30
                 ; 0000 08ED 
                 ; 0000 08EE // External Interrupt(s) initialization
                 ; 0000 08EF // INT0: Off
                 ; 0000 08F0 // INT1: Off
                 ; 0000 08F1 // INT2: Off
                 ; 0000 08F2 MCUCR=(0<<ISC11) | (0<<ISC10) | (0<<ISC01) | (0<<ISC00);
00234c e0e0      	LDI  R30,LOW(0)
00234d bfe5      	OUT  0x35,R30
                 ; 0000 08F3 MCUCSR=(0<<ISC2);
00234e bfe4      	OUT  0x34,R30
                 ; 0000 08F4 
                 ; 0000 08F5 // USART initialization
                 ; 0000 08F6 // Communication Parameters: 8 Data, 1 Stop, No Parity
                 ; 0000 08F7 // USART Receiver: On
                 ; 0000 08F8 // USART Transmitter: On
                 ; 0000 08F9 // USART Mode: Asynchronous
                 ; 0000 08FA // USART Baud Rate: 9600 (Double Speed Mode)
                 ; 0000 08FB UCSRA=(0<<RXC) | (0<<TXC) | (0<<UDRE) | (0<<FE) | (0<<DOR) | (0<<UPE) | (1<<U2X) | (0<<MPCM);
00234f e0e2      	LDI  R30,LOW(2)
002350 b9eb      	OUT  0xB,R30
                 ; 0000 08FC UCSRB=(1<<RXCIE) | (1<<TXCIE) | (0<<UDRIE) | (1<<RXEN) | (1<<TXEN) | (0<<UCSZ2) | (0<<RXB8) | (0<<TXB8);
002351 ede8      	LDI  R30,LOW(216)
002352 b9ea      	OUT  0xA,R30
                 ; 0000 08FD UCSRC=(1<<URSEL) | (0<<UMSEL) | (0<<UPM1) | (0<<UPM0) | (0<<USBS) | (1<<UCSZ1) | (1<<UCSZ0) | (0<<UCPOL);
002353 e8e6      	LDI  R30,LOW(134)
002354 bde0      	OUT  0x20,R30
                 ; 0000 08FE UBRRH=0x00;
002355 e0e0      	LDI  R30,LOW(0)
002356 bde0      	OUT  0x20,R30
                 ; 0000 08FF UBRRL=0x8F;
002357 e8ef      	LDI  R30,LOW(143)
002358 b9e9      	OUT  0x9,R30
                 ; 0000 0900 
                 ; 0000 0901 // Analog Comparator initialization
                 ; 0000 0902 // Analog Comparator: Off
                 ; 0000 0903 // The Analog Comparator's positive input is
                 ; 0000 0904 // connected to the AIN0 pin
                 ; 0000 0905 // The Analog Comparator's negative input is
                 ; 0000 0906 // connected to the AIN1 pin
                 ; 0000 0907 ACSR=(1<<ACD) | (0<<ACBG) | (0<<ACO) | (0<<ACI) | (0<<ACIE) | (0<<ACIC) | (0<<ACIS1) | (0<<ACIS0);
002359 e8e0      	LDI  R30,LOW(128)
00235a b9e8      	OUT  0x8,R30
                 ; 0000 0908 SFIOR=(0<<ACME);
00235b e0e0      	LDI  R30,LOW(0)
00235c bfe0      	OUT  0x30,R30
                 ; 0000 0909 
                 ; 0000 090A // ADC initialization
                 ; 0000 090B // ADC disabled
                 ; 0000 090C ADCSRA=(0<<ADEN) | (0<<ADSC) | (0<<ADATE) | (0<<ADIF) | (0<<ADIE) | (0<<ADPS2) | (0<<ADPS1) | (0<<ADPS0);
00235d b9e6      	OUT  0x6,R30
                 ; 0000 090D 
                 ; 0000 090E // SPI initialization
                 ; 0000 090F // SPI disabled
                 ; 0000 0910 SPCR=(0<<SPIE) | (0<<SPE) | (0<<DORD) | (0<<MSTR) | (0<<CPOL) | (0<<CPHA) | (0<<SPR1) | (0<<SPR0);
00235e b9ed      	OUT  0xD,R30
                 ; 0000 0911 
                 ; 0000 0912 // TWI initialization
                 ; 0000 0913 // TWI disabled
                 ; 0000 0914 TWCR=(0<<TWEA) | (0<<TWSTA) | (0<<TWSTO) | (0<<TWEN) | (0<<TWIE);
00235f bfe6      	OUT  0x36,R30
                 ; 0000 0915 
                 ; 0000 0916 // Bit-Banged I2C Bus initialization
                 ; 0000 0917 // I2C Port: PORTB
                 ; 0000 0918 // I2C SDA bit: 1
                 ; 0000 0919 // I2C SCL bit: 0
                 ; 0000 091A // Bit Rate: 100 kHz
                 ; 0000 091B // Note: I2C settings are specified in the
                 ; 0000 091C // Project|Configure|C Compiler|Libraries|I2C menu.
                 ; 0000 091D i2c_init();
002360 940e 23d6 	CALL _i2c_init
                 ; 0000 091E delay_ms(250);
002362 efaa      	LDI  R26,LOW(250)
002363 e0b0      	LDI  R27,0
002364 940e 2427 	CALL _delay_ms
                 ; 0000 091F adc3421_init();
002366 940e 0c0c 	CALL _adc3421_init
                 ; 0000 0920 delay_ms(250);
002368 efaa      	LDI  R26,LOW(250)
002369 e0b0      	LDI  R27,0
00236a 940e 2427 	CALL _delay_ms
                 ; 0000 0921 
                 ; 0000 0922 // Global enable interrupts
                 ; 0000 0923 #asm("sei")
00236c 9478      	sei
                 ; 0000 0924 }
00236d 9508      	RET
                 ; .FEND
                 ;
                 ;void main(void)
                 ; 0000 0927 {
                 _main:
                 ; .FSTART _main
                 ; 0000 0928 // Declare your local variables here
                 ; 0000 0929 
                 ; 0000 092A 
                 ; 0000 092B init();
00236e dfba      	RCALL _init
                 ; 0000 092C eeprom_transfer();
00236f de72      	RCALL _eeprom_transfer
                 ; 0000 092D //change serial speed according to value set
                 ; 0000 092E if (gen[2] ==0)    ///9600 baud
                +
002370 91e0 018c+LDS R30 , _gen + ( 4 )
002372 91f0 018d+LDS R31 , _gen + ( 4 ) + 1
                 	__GETW1MN _gen,4
002374 9730      	SBIW R30,0
002375 f151      	BREQ _0x348
                 ; 0000 092F {
                 ; 0000 0930 UBRRH=0x00;
                 ; 0000 0931 UBRRL=0x8F;
                 ; 0000 0932 }
                 ; 0000 0933 else if (gen[2] ==1)   //19200 baud
                +
002376 91e0 018c+LDS R30 , _gen + ( 4 )
002378 91f0 018d+LDS R31 , _gen + ( 4 ) + 1
                 	__GETW1MN _gen,4
00237a 30e1      	CPI  R30,LOW(0x1)
00237b e0a0      	LDI  R26,HIGH(0x1)
00237c 07fa      	CPC  R31,R26
00237d f421      	BRNE _0x322
                 ; 0000 0934 {
                 ; 0000 0935 UBRRH=0x00;
00237e e0e0      	LDI  R30,LOW(0)
00237f bde0      	OUT  0x20,R30
                 ; 0000 0936 UBRRL=0x47;
002380 e4e7      	LDI  R30,LOW(71)
002381 c021      	RJMP _0x349
                 ; 0000 0937 }
                 ; 0000 0938 else if (gen[2] ==2)   //38400 baud
                 _0x322:
                +
002382 91e0 018c+LDS R30 , _gen + ( 4 )
002384 91f0 018d+LDS R31 , _gen + ( 4 ) + 1
                 	__GETW1MN _gen,4
002386 30e2      	CPI  R30,LOW(0x2)
002387 e0a0      	LDI  R26,HIGH(0x2)
002388 07fa      	CPC  R31,R26
002389 f421      	BRNE _0x324
                 ; 0000 0939 {
                 ; 0000 093A UBRRH=0x00;
00238a e0e0      	LDI  R30,LOW(0)
00238b bde0      	OUT  0x20,R30
                 ; 0000 093B UBRRL=0x23;
00238c e2e3      	LDI  R30,LOW(35)
00238d c015      	RJMP _0x349
                 ; 0000 093C }
                 ; 0000 093D else if (gen[2] ==3)   //115200 baud
                 _0x324:
                +
00238e 91e0 018c+LDS R30 , _gen + ( 4 )
002390 91f0 018d+LDS R31 , _gen + ( 4 ) + 1
                 	__GETW1MN _gen,4
002392 30e3      	CPI  R30,LOW(0x3)
002393 e0a0      	LDI  R26,HIGH(0x3)
002394 07fa      	CPC  R31,R26
002395 f421      	BRNE _0x326
                 ; 0000 093E {
                 ; 0000 093F UBRRH=0x00;
002396 e0e0      	LDI  R30,LOW(0)
002397 bde0      	OUT  0x20,R30
                 ; 0000 0940 UBRRL=0x0b;
002398 e0eb      	LDI  R30,LOW(11)
002399 c009      	RJMP _0x349
                 ; 0000 0941 }
                 ; 0000 0942 else                    //force to default 9600 baud if not above
                 _0x326:
                 ; 0000 0943 {
                 ; 0000 0944 gen[2]=0;
                +
00239a e8ec     +LDI R30 , LOW ( _gen + ( 4 ) )
00239b e0f1     +LDI R31 , HIGH ( _gen + ( 4 ) )
                 	__POINTW1MN _gen,4
00239c e0a0      	LDI  R26,LOW(0)
00239d e0b0      	LDI  R27,HIGH(0)
00239e 83a0      	STD  Z+0,R26
00239f 83b1      	STD  Z+1,R27
                 ; 0000 0945 UBRRH=0x00;
                 _0x348:
0023a0 e0e0      	LDI  R30,LOW(0)
0023a1 bde0      	OUT  0x20,R30
                 ; 0000 0946 UBRRL=0x8F;
0023a2 e8ef      	LDI  R30,LOW(143)
                 _0x349:
0023a3 b9e9      	OUT  0x9,R30
                 ; 0000 0947 }
                 ; 0000 0948 
                 ; 0000 0949 cal_fl =0;
0023a4 94e8      	CLT
0023a5 f835      	BLD  R3,5
                 ; 0000 094A if (!key5) cal_fl =1;
0023a6 99b2      	SBIC 0x16,2
0023a7 c002      	RJMP _0x328
0023a8 9468      	SET
0023a9 f835      	BLD  R3,5
                 ; 0000 094B mb_dir =0;
                 _0x328:
0023aa 9892      	CBI  0x12,2
                 ; 0000 094C while (1)
                 _0x32B:
                 ; 0000 094D       {
                 ; 0000 094E       // Place your code here
                 ; 0000 094F       set_fixed_values();
0023ab 940e 0bd2 	CALL _set_fixed_values
                 ; 0000 0950 
                 ; 0000 0951       display_check();
0023ad da5a      	RCALL _display_check
                 ; 0000 0952       display_out(display_count);
0023ae 01d4      	MOVW R26,R8
0023af dc6f      	RCALL _display_out
                 ; 0000 0953       display_count++;
0023b0 01f4      	MOVW R30,R8
0023b1 9631      	ADIW R30,1
0023b2 014f      	MOVW R8,R30
                 ; 0000 0954       led_check();
0023b3 940e 188b 	CALL _led_check
                 ; 0000 0955       relay_logic();
0023b5 940e 1978 	CALL _relay_logic
                 ; 0000 0956              key_check();
0023b7 dde5      	RCALL _key_check
                 ; 0000 0957       tc_check();
0023b8 df6d      	RCALL _tc_check
                 ; 0000 0958       if(display_count >=10)
0023b9 e0ea      	LDI  R30,LOW(10)
0023ba e0f0      	LDI  R31,HIGH(10)
0023bb 168e      	CP   R8,R30
0023bc 069f      	CPC  R9,R31
0023bd f0b4      	BRLT _0x32E
                 ; 0000 0959       {
                 ; 0000 095A        display_count =0;
0023be 2488      	CLR  R8
0023bf 2499      	CLR  R9
                 ; 0000 095B        if (hsec_fl)
0023c0 fe27      	SBRS R2,7
0023c1 c012      	RJMP _0x32F
                 ; 0000 095C         {
                 ; 0000 095D         hsec_fl =0;
0023c2 94e8      	CLT
0023c3 f827      	BLD  R2,7
                 ; 0000 095E         pv_update();
0023c4 940e 1989 	CALL _pv_update
                 ; 0000 095F         check_set();
0023c6 940e 11eb 	CALL _check_set
                 ; 0000 0960         if (modbus_fl)
0023c8 fe20      	SBRS R2,0
0023c9 c006      	RJMP _0x330
                 ; 0000 0961             {
                 ; 0000 0962             modbus_fl =0;
0023ca 94e8      	CLT
0023cb f820      	BLD  R2,0
                 ; 0000 0963             mb_datatransfer();
0023cc 940e 04f0 	CALL _mb_datatransfer
                 ; 0000 0964             check_mbreceived();
0023ce 940e 095f 	CALL _check_mbreceived
                 ; 0000 0965  //           delay_ms(100);
                 ; 0000 0966 //            mb_dir =0;      //set to receieve
                 ; 0000 0967             }
                 ; 0000 0968        if (ser_fl)
                 _0x330:
0023d0 fe36      	SBRS R3,6
0023d1 c002      	RJMP _0x331
                 ; 0000 0969         {
                 ; 0000 096A         ser_fl =0;
0023d2 94e8      	CLT
0023d3 f836      	BLD  R3,6
                 ; 0000 096B //        mb_dir =0;
                 ; 0000 096C //        delay_ms(2);
                 ; 0000 096D //        printf("%5u %5u %5u %5u %5u %5u %5u %5u\n",process_value[0],process_value[1],process_value[2],process_value[3] ...
                 ; 0000 096E //        mb_dir =1;
                 ; 0000 096F         }
                 ; 0000 0970       }
                 _0x331:
                 ; 0000 0971 //      process_value[0] =1234;
                 ; 0000 0972 //      process_value[1] = 5678;
                 ; 0000 0973       }
                 _0x32F:
                 ; 0000 0974 }
                 _0x32E:
0023d4 cfd6      	RJMP _0x32B
                 ; 0000 0975 }
                 _0x332:
0023d5 cfff      	RJMP _0x332
                 ; .FEND
                 	#ifndef __SLEEP_DEFINED__
                 	#endif
                 
                 	.CSEG
                 
                 	.CSEG
                 
                 	.CSEG
                 
                 	.DSEG
                 _display_buffer:
000160           	.BYTE 0x14
                 _dummy:
000174           	.BYTE 0x2
                 _dummy2:
000176           	.BYTE 0x2
                 _process_value:
000178           	.BYTE 0x10
                 _gen:
000188           	.BYTE 0x10
                 
                 	.ESEG
                 _ee_gen:
000000 01
000001 00
000002 01
000003 00        	.DB  0x1,0x0,0x1,0x0
000004 00
000005 00
000006 00
000007 00        	.DB  0x0,0x0,0x0,0x0
000008 00
000009 00
00000a 00
00000b 00        	.DB  0x0,0x0,0x0,0x0
00000c 00
00000d 00
00000e 00
00000f 00        	.DB  0x0,0x0,0x0,0x0
                 
                 	.DSEG
                 _os:
000198           	.BYTE 0x10
                 
                 	.ESEG
                 _ee_os:
000010 00
000011 00
000012 00
000013 00        	.DB  0x0,0x0,0x0,0x0
000014 00
000015 00
000016 00
000017 00        	.DB  0x0,0x0,0x0,0x0
000018 00
000019 00
00001a 00
00001b 00        	.DB  0x0,0x0,0x0,0x0
00001c 00
00001d 00
00001e 00
00001f 00        	.DB  0x0,0x0,0x0,0x0
                 
                 	.DSEG
                 _skip:
0001a8           	.BYTE 0x10
                 
                 	.ESEG
                 _ee_skip:
000020 00
000021 00
000022 00
000023 00        	.DB  0x0,0x0,0x0,0x0
000024 00
000025 00
000026 00
000027 00        	.DB  0x0,0x0,0x0,0x0
000028 00
000029 00
00002a 00
00002b 00        	.DB  0x0,0x0,0x0,0x0
00002c 00
00002d 00
00002e 00
00002f 00        	.DB  0x0,0x0,0x0,0x0
                 
                 	.DSEG
                 _rlow:
0001b8           	.BYTE 0x10
                 
                 	.ESEG
                 _ee_rlow:
000030 00
000031 00
000032 00
000033 00        	.DB  0x0,0x0,0x0,0x0
000034 00
000035 00
000036 00
000037 00        	.DB  0x0,0x0,0x0,0x0
000038 00
000039 00
00003a 00
00003b 00        	.DB  0x0,0x0,0x0,0x0
00003c 00
00003d 00
00003e 00
00003f 00        	.DB  0x0,0x0,0x0,0x0
                 
                 	.DSEG
                 _rhigh:
0001c8           	.BYTE 0x10
                 
                 	.ESEG
                 _ee_rhigh:
000040 64
000041 00
000042 64
000043 00        	.DB  0x64,0x0,0x64,0x0
000044 64
000045 00
000046 64
000047 00        	.DB  0x64,0x0,0x64,0x0
000048 64
000049 00
00004a 64
00004b 00        	.DB  0x64,0x0,0x64,0x0
00004c 64
00004d 00
00004e 64
00004f 00        	.DB  0x64,0x0,0x64,0x0
                 
                 	.DSEG
                 _alow:
0001d8           	.BYTE 0x10
                 
                 	.ESEG
                 _ee_alow:
000050 00
000051 00
000052 00
000053 00        	.DB  0x0,0x0,0x0,0x0
000054 00
000055 00
000056 00
000057 00        	.DB  0x0,0x0,0x0,0x0
000058 00
000059 00
00005a 00
00005b 00        	.DB  0x0,0x0,0x0,0x0
00005c 00
00005d 00
00005e 00
00005f 00        	.DB  0x0,0x0,0x0,0x0
                 
                 	.DSEG
                 _ahigh:
0001e8           	.BYTE 0x10
                 
                 	.ESEG
                 _ee_ahigh:
000060 64
000061 00
000062 64
000063 00        	.DB  0x64,0x0,0x64,0x0
000064 64
000065 00
000066 64
000067 00        	.DB  0x64,0x0,0x64,0x0
000068 64
000069 00
00006a 64
00006b 00        	.DB  0x64,0x0,0x64,0x0
00006c 64
00006d 00
00006e 64
00006f 00        	.DB  0x64,0x0,0x64,0x0
                 
                 	.DSEG
                 _input:
0001f8           	.BYTE 0x10
                 
                 	.ESEG
                 _ee_input:
000070 00
000071 00
000072 00
000073 00        	.DB  0x0,0x0,0x0,0x0
000074 00
000075 00
000076 00
000077 00        	.DB  0x0,0x0,0x0,0x0
000078 00
000079 00
00007a 00
00007b 00        	.DB  0x0,0x0,0x0,0x0
00007c 00
00007d 00
00007e 00
00007f 00        	.DB  0x0,0x0,0x0,0x0
                 
                 	.DSEG
                 _dp:
000208           	.BYTE 0x10
                 
                 	.ESEG
                 _ee_dp:
000080 00
000081 00
000082 00
000083 00        	.DB  0x0,0x0,0x0,0x0
000084 00
000085 00
000086 00
000087 00        	.DB  0x0,0x0,0x0,0x0
000088 00
000089 00
00008a 00
00008b 00        	.DB  0x0,0x0,0x0,0x0
00008c 00
00008d 00
00008e 00
00008f 00        	.DB  0x0,0x0,0x0,0x0
                 
                 	.DSEG
                 _cal_zero:
000218           	.BYTE 0x10
                 
                 	.ESEG
                 _ee_cal_zero:
000090 3c
000091 28
000092 3c
000093 28        	.DB  0x3C,0x28,0x3C,0x28
000094 3c
000095 28
000096 3c
000097 28        	.DB  0x3C,0x28,0x3C,0x28
000098 3c
000099 28
00009a 3c
00009b 28        	.DB  0x3C,0x28,0x3C,0x28
00009c 3c
00009d 28
00009e 3c
00009f 28        	.DB  0x3C,0x28,0x3C,0x28
                 
                 	.DSEG
                 _cal_span:
000228           	.BYTE 0x10
                 
                 	.ESEG
                 _ee_cal_span:
0000a0 34
0000a1 53
0000a2 34
0000a3 53        	.DB  0x34,0x53,0x34,0x53
0000a4 34
0000a5 53
0000a6 34
0000a7 53        	.DB  0x34,0x53,0x34,0x53
0000a8 34
0000a9 53
0000aa 34
0000ab 53        	.DB  0x34,0x53,0x34,0x53
0000ac 34
0000ad 53
0000ae 34
0000af 53        	.DB  0x34,0x53,0x34,0x53
                 
                 	.DSEG
                 _rx_buffer:
000238           	.BYTE 0x14
                 _rx_wr_index:
00024c           	.BYTE 0x1
                 _rx_rd_index:
00024d           	.BYTE 0x1
                 _rx_counter:
00024e           	.BYTE 0x1
                 _mbreceived_data:
00024f           	.BYTE 0xA
                 _tx_buffer:
000259           	.BYTE 0x30
                 _tx_wr_index:
000289           	.BYTE 0x1
                 _tx_rd_index:
00028a           	.BYTE 0x1
                 _tx_counter:
00028b           	.BYTE 0x1
                 _segment_table:
00028c           	.BYTE 0x25
                 _blink_digit:
0002b1           	.BYTE 0x2
                 _mux_scan:
0002b3           	.BYTE 0x2
                 _tsec_cnt:
0002b5           	.BYTE 0x2
                 _key_count:
0002b7           	.BYTE 0x2
                 _menu_count:
0002b9           	.BYTE 0x2
                 _item1:
0002bb           	.BYTE 0x2
                 _item2:
0002bd           	.BYTE 0x2
                 _level:
0002bf           	.BYTE 0x2
                 _ms_menu:
0002c1           	.BYTE 0x8
                 _message_menu:
0002c9           	.BYTE 0x48
                 _message_gen:
000311           	.BYTE 0x18
                 _message_os:
000329           	.BYTE 0x40
                 _message_skip:
000369           	.BYTE 0x40
                 _message_rlow:
0003a9           	.BYTE 0x40
                 _message_rhigh:
0003e9           	.BYTE 0x40
                 _message_alow:
000429           	.BYTE 0x40
                 _message_ahigh:
000469           	.BYTE 0x40
                 _message_in:
0004a9           	.BYTE 0x40
                 _message_dp:
0004e9           	.BYTE 0x40
                 _process_error:
000529           	.BYTE 0x10
                 _message_skuk:
000539           	.BYTE 0x10
                 _message_inp:
000549           	.BYTE 0x48
                 _message_baud:
000591           	.BYTE 0x20
                 _message_cal:
0005b1           	.BYTE 0x40
                 _message_dp1:
0005f1           	.BYTE 0x20
                 _message_neg:
000611           	.BYTE 0x8
                 _message_open:
000619           	.BYTE 0x8
                 _table_p:
000621           	.BYTE 0x26
                 _table_j:
000647           	.BYTE 0x1E
                 _table_k:
000665           	.BYTE 0x38
                 _table_r:
00069d           	.BYTE 0x48
                 _table_s:
0006e5           	.BYTE 0x48
                 _table_t:
00072d           	.BYTE 0x18
                 _mb_data:
000745           	.BYTE 0x72
                 _mb_inputdata:
0007b7           	.BYTE 0x2A
                 
                 	.CSEG
                 
                 	.CSEG
                 	.equ __sda_bit=1
                 	.equ __scl_bit=0
                 	.equ __i2c_port=0x18 ;PORTB
                 	.equ __i2c_dir=__i2c_port-1
                 	.equ __i2c_pin=__i2c_port-2
                 
                 _i2c_init:
0023d6 98c0      	cbi  __i2c_port,__scl_bit
0023d7 98c1      	cbi  __i2c_port,__sda_bit
0023d8 9ab8      	sbi  __i2c_dir,__scl_bit
0023d9 98b9      	cbi  __i2c_dir,__sda_bit
0023da c015      	rjmp __i2c_delay2
                 _i2c_start:
0023db 98b9      	cbi  __i2c_dir,__sda_bit
0023dc 98b8      	cbi  __i2c_dir,__scl_bit
0023dd 27ee      	clr  r30
0023de 0000      	nop
0023df 9bb1      	sbis __i2c_pin,__sda_bit
0023e0 9508      	ret
0023e1 9bb0      	sbis __i2c_pin,__scl_bit
0023e2 9508      	ret
0023e3 d004      	rcall __i2c_delay1
0023e4 9ab9      	sbi  __i2c_dir,__sda_bit
0023e5 d002      	rcall __i2c_delay1
0023e6 9ab8      	sbi  __i2c_dir,__scl_bit
0023e7 e0e1      	ldi  r30,1
                 __i2c_delay1:
0023e8 e162      	ldi  r22,18
0023e9 c007      	rjmp __i2c_delay2l
                 _i2c_stop:
0023ea 9ab9      	sbi  __i2c_dir,__sda_bit
0023eb 9ab8      	sbi  __i2c_dir,__scl_bit
0023ec d003      	rcall __i2c_delay2
0023ed 98b8      	cbi  __i2c_dir,__scl_bit
0023ee dff9      	rcall __i2c_delay1
0023ef 98b9      	cbi  __i2c_dir,__sda_bit
                 __i2c_delay2:
0023f0 e265      	ldi  r22,37
                 __i2c_delay2l:
0023f1 956a      	dec  r22
0023f2 f7f1      	brne __i2c_delay2l
0023f3 9508      	ret
                 _i2c_read:
0023f4 e078      	ldi  r23,8
                 __i2c_read0:
0023f5 98b8      	cbi  __i2c_dir,__scl_bit
0023f6 dff1      	rcall __i2c_delay1
                 __i2c_read3:
0023f7 9bb0      	sbis __i2c_pin,__scl_bit
0023f8 cffe      	rjmp __i2c_read3
0023f9 dfee      	rcall __i2c_delay1
0023fa 9488      	clc
0023fb 99b1      	sbic __i2c_pin,__sda_bit
0023fc 9408      	sec
0023fd 9ab8      	sbi  __i2c_dir,__scl_bit
0023fe dff1      	rcall __i2c_delay2
0023ff 1fee      	rol  r30
002400 957a      	dec  r23
002401 f799      	brne __i2c_read0
002402 2f7a      	mov  r23,r26
002403 2377      	tst  r23
002404 f411      	brne __i2c_read1
002405 98b9      	cbi  __i2c_dir,__sda_bit
002406 c001      	rjmp __i2c_read2
                 __i2c_read1:
002407 9ab9      	sbi  __i2c_dir,__sda_bit
                 __i2c_read2:
002408 dfdf      	rcall __i2c_delay1
002409 98b8      	cbi  __i2c_dir,__scl_bit
00240a dfe5      	rcall __i2c_delay2
00240b 9ab8      	sbi  __i2c_dir,__scl_bit
00240c dfdb      	rcall __i2c_delay1
00240d 98b9      	cbi  __i2c_dir,__sda_bit
00240e cfd9      	rjmp __i2c_delay1
                 
                 _i2c_write:
00240f e078      	ldi  r23,8
                 __i2c_write0:
002410 0faa      	lsl  r26
002411 f410      	brcc __i2c_write1
002412 98b9      	cbi  __i2c_dir,__sda_bit
002413 c001      	rjmp __i2c_write2
                 __i2c_write1:
002414 9ab9      	sbi  __i2c_dir,__sda_bit
                 __i2c_write2:
002415 dfda      	rcall __i2c_delay2
002416 98b8      	cbi  __i2c_dir,__scl_bit
002417 dfd0      	rcall __i2c_delay1
                 __i2c_write3:
002418 9bb0      	sbis __i2c_pin,__scl_bit
002419 cffe      	rjmp __i2c_write3
00241a dfcd      	rcall __i2c_delay1
00241b 9ab8      	sbi  __i2c_dir,__scl_bit
00241c 957a      	dec  r23
00241d f791      	brne __i2c_write0
00241e 98b9      	cbi  __i2c_dir,__sda_bit
00241f dfc8      	rcall __i2c_delay1
002420 98b8      	cbi  __i2c_dir,__scl_bit
002421 dfce      	rcall __i2c_delay2
002422 e0e1      	ldi  r30,1
002423 99b1      	sbic __i2c_pin,__sda_bit
002424 27ee      	clr  r30
002425 9ab8      	sbi  __i2c_dir,__scl_bit
002426 cfc1      	rjmp __i2c_delay1
                 
                 _delay_ms:
002427 9610      	adiw r26,0
002428 f039      	breq __delay_ms1
                 __delay_ms0:
                +
002429 ec8d     +LDI R24 , LOW ( 0xACD )
00242a e09a     +LDI R25 , HIGH ( 0xACD )
                +__DELAY_USW_LOOP :
00242b 9701     +SBIW R24 , 1
00242c f7f1     +BRNE __DELAY_USW_LOOP
                 	__DELAY_USW 0xACD
00242d 95a8      	wdr
00242e 9711      	sbiw r26,1
00242f f7c9      	brne __delay_ms0
                 __delay_ms1:
002430 9508      	ret
                 
                 __ROUND_REPACK:
002431 2355      	TST  R21
002432 f442      	BRPL __REPACK
002433 3850      	CPI  R21,0x80
002434 f411      	BRNE __ROUND_REPACK0
002435 ffe0      	SBRS R30,0
002436 c004      	RJMP __REPACK
                 __ROUND_REPACK0:
002437 9631      	ADIW R30,1
002438 1f69      	ADC  R22,R25
002439 1f79      	ADC  R23,R25
00243a f06b      	BRVS __REPACK1
                 
                 __REPACK:
00243b e850      	LDI  R21,0x80
00243c 2757      	EOR  R21,R23
00243d f411      	BRNE __REPACK0
00243e 935f      	PUSH R21
00243f c0cf      	RJMP __ZERORES
                 __REPACK0:
002440 3f5f      	CPI  R21,0xFF
002441 f031      	BREQ __REPACK1
002442 0f66      	LSL  R22
002443 0c00      	LSL  R0
002444 9557      	ROR  R21
002445 9567      	ROR  R22
002446 2f75      	MOV  R23,R21
002447 9508      	RET
                 __REPACK1:
002448 935f      	PUSH R21
002449 2000      	TST  R0
00244a f00a      	BRMI __REPACK2
00244b c0cf      	RJMP __MAXRES
                 __REPACK2:
00244c c0c8      	RJMP __MINRES
                 
                 __UNPACK:
00244d e850      	LDI  R21,0x80
00244e 2e19      	MOV  R1,R25
00244f 2215      	AND  R1,R21
002450 0f88      	LSL  R24
002451 1f99      	ROL  R25
002452 2795      	EOR  R25,R21
002453 0f55      	LSL  R21
002454 9587      	ROR  R24
                 
                 __UNPACK1:
002455 e850      	LDI  R21,0x80
002456 2e07      	MOV  R0,R23
002457 2205      	AND  R0,R21
002458 0f66      	LSL  R22
002459 1f77      	ROL  R23
00245a 2775      	EOR  R23,R21
00245b 0f55      	LSL  R21
00245c 9567      	ROR  R22
00245d 9508      	RET
                 
                 __CFD1U:
00245e 9468      	SET
00245f c001      	RJMP __CFD1U0
                 __CFD1:
002460 94e8      	CLT
                 __CFD1U0:
002461 935f      	PUSH R21
002462 dff2      	RCALL __UNPACK1
002463 3870      	CPI  R23,0x80
002464 f018      	BRLO __CFD10
002465 3f7f      	CPI  R23,0xFF
002466 f408      	BRCC __CFD10
002467 c0a7      	RJMP __ZERORES
                 __CFD10:
002468 e156      	LDI  R21,22
002469 1b57      	SUB  R21,R23
00246a f4aa      	BRPL __CFD11
00246b 9551      	NEG  R21
00246c 3058      	CPI  R21,8
00246d f40e      	BRTC __CFD19
00246e 3059      	CPI  R21,9
                 __CFD19:
00246f f030      	BRLO __CFD17
002470 efef      	SER  R30
002471 efff      	SER  R31
002472 ef6f      	SER  R22
002473 e77f      	LDI  R23,0x7F
002474 f977      	BLD  R23,7
002475 c01a      	RJMP __CFD15
                 __CFD17:
002476 2777      	CLR  R23
002477 2355      	TST  R21
002478 f0b9      	BREQ __CFD15
                 __CFD18:
002479 0fee      	LSL  R30
00247a 1fff      	ROL  R31
00247b 1f66      	ROL  R22
00247c 1f77      	ROL  R23
00247d 955a      	DEC  R21
00247e f7d1      	BRNE __CFD18
00247f c010      	RJMP __CFD15
                 __CFD11:
002480 2777      	CLR  R23
                 __CFD12:
002481 3058      	CPI  R21,8
002482 f028      	BRLO __CFD13
002483 2fef      	MOV  R30,R31
002484 2ff6      	MOV  R31,R22
002485 2f67      	MOV  R22,R23
002486 5058      	SUBI R21,8
002487 cff9      	RJMP __CFD12
                 __CFD13:
002488 2355      	TST  R21
002489 f031      	BREQ __CFD15
                 __CFD14:
00248a 9576      	LSR  R23
00248b 9567      	ROR  R22
00248c 95f7      	ROR  R31
00248d 95e7      	ROR  R30
00248e 955a      	DEC  R21
00248f f7d1      	BRNE __CFD14
                 __CFD15:
002490 2000      	TST  R0
002491 f40a      	BRPL __CFD16
002492 d125      	RCALL __ANEGD1
                 __CFD16:
002493 915f      	POP  R21
002494 9508      	RET
                 
                 __CDF1U:
002495 9468      	SET
002496 c001      	RJMP __CDF1U0
                 __CDF1:
002497 94e8      	CLT
                 __CDF1U0:
002498 9730      	SBIW R30,0
002499 4060      	SBCI R22,0
00249a 4070      	SBCI R23,0
00249b f0b1      	BREQ __CDF10
00249c 2400      	CLR  R0
00249d f026      	BRTS __CDF11
00249e 2377      	TST  R23
00249f f412      	BRPL __CDF11
0024a0 9400      	COM  R0
0024a1 d116      	RCALL __ANEGD1
                 __CDF11:
0024a2 2e17      	MOV  R1,R23
0024a3 e17e      	LDI  R23,30
0024a4 2011      	TST  R1
                 __CDF12:
0024a5 f032      	BRMI __CDF13
0024a6 957a      	DEC  R23
0024a7 0fee      	LSL  R30
0024a8 1fff      	ROL  R31
0024a9 1f66      	ROL  R22
0024aa 1c11      	ROL  R1
0024ab cff9      	RJMP __CDF12
                 __CDF13:
0024ac 2fef      	MOV  R30,R31
0024ad 2ff6      	MOV  R31,R22
0024ae 2d61      	MOV  R22,R1
0024af 935f      	PUSH R21
0024b0 df8a      	RCALL __REPACK
0024b1 915f      	POP  R21
                 __CDF10:
0024b2 9508      	RET
                 
                 __SWAPACC:
0024b3 934f      	PUSH R20
0024b4 01af      	MOVW R20,R30
0024b5 01fd      	MOVW R30,R26
0024b6 01da      	MOVW R26,R20
0024b7 01ab      	MOVW R20,R22
0024b8 01bc      	MOVW R22,R24
0024b9 01ca      	MOVW R24,R20
0024ba 2d40      	MOV  R20,R0
0024bb 2c01      	MOV  R0,R1
0024bc 2e14      	MOV  R1,R20
0024bd 914f      	POP  R20
0024be 9508      	RET
                 
                 __UADD12:
0024bf 0fea      	ADD  R30,R26
0024c0 1ffb      	ADC  R31,R27
0024c1 1f68      	ADC  R22,R24
0024c2 9508      	RET
                 
                 __NEGMAN1:
0024c3 95e0      	COM  R30
0024c4 95f0      	COM  R31
0024c5 9560      	COM  R22
0024c6 5fef      	SUBI R30,-1
0024c7 4fff      	SBCI R31,-1
0024c8 4f6f      	SBCI R22,-1
0024c9 9508      	RET
                 
                 __SUBF12:
0024ca 935f      	PUSH R21
0024cb df81      	RCALL __UNPACK
0024cc 3890      	CPI  R25,0x80
0024cd f171      	BREQ __ADDF129
0024ce e850      	LDI  R21,0x80
0024cf 2615      	EOR  R1,R21
                 
0024d0 c004      	RJMP __ADDF120
                 
                 __ADDF12:
0024d1 935f      	PUSH R21
0024d2 df7a      	RCALL __UNPACK
0024d3 3890      	CPI  R25,0x80
0024d4 f139      	BREQ __ADDF129
                 
                 __ADDF120:
0024d5 3870      	CPI  R23,0x80
0024d6 f121      	BREQ __ADDF128
                 __ADDF121:
0024d7 2f57      	MOV  R21,R23
0024d8 1b59      	SUB  R21,R25
0024d9 f12b      	BRVS __ADDF1211
0024da f412      	BRPL __ADDF122
0024db dfd7      	RCALL __SWAPACC
0024dc cffa      	RJMP __ADDF121
                 __ADDF122:
0024dd 3158      	CPI  R21,24
0024de f018      	BRLO __ADDF123
0024df 27aa      	CLR  R26
0024e0 27bb      	CLR  R27
0024e1 2788      	CLR  R24
                 __ADDF123:
0024e2 3058      	CPI  R21,8
0024e3 f028      	BRLO __ADDF124
0024e4 2fab      	MOV  R26,R27
0024e5 2fb8      	MOV  R27,R24
0024e6 2788      	CLR  R24
0024e7 5058      	SUBI R21,8
0024e8 cff9      	RJMP __ADDF123
                 __ADDF124:
0024e9 2355      	TST  R21
0024ea f029      	BREQ __ADDF126
                 __ADDF125:
0024eb 9586      	LSR  R24
0024ec 95b7      	ROR  R27
0024ed 95a7      	ROR  R26
0024ee 955a      	DEC  R21
0024ef f7d9      	BRNE __ADDF125
                 __ADDF126:
0024f0 2d50      	MOV  R21,R0
0024f1 2551      	EOR  R21,R1
0024f2 f072      	BRMI __ADDF127
0024f3 dfcb      	RCALL __UADD12
0024f4 f438      	BRCC __ADDF129
0024f5 9567      	ROR  R22
0024f6 95f7      	ROR  R31
0024f7 95e7      	ROR  R30
0024f8 9573      	INC  R23
0024f9 f413      	BRVC __ADDF129
0024fa c020      	RJMP __MAXRES
                 __ADDF128:
0024fb dfb7      	RCALL __SWAPACC
                 __ADDF129:
0024fc df3e      	RCALL __REPACK
0024fd 915f      	POP  R21
0024fe 9508      	RET
                 __ADDF1211:
0024ff f7d8      	BRCC __ADDF128
002500 cffb      	RJMP __ADDF129
                 __ADDF127:
002501 1bea      	SUB  R30,R26
002502 0bfb      	SBC  R31,R27
002503 0b68      	SBC  R22,R24
002504 f051      	BREQ __ZERORES
002505 f410      	BRCC __ADDF1210
002506 9400      	COM  R0
002507 dfbb      	RCALL __NEGMAN1
                 __ADDF1210:
002508 2366      	TST  R22
002509 f392      	BRMI __ADDF129
00250a 0fee      	LSL  R30
00250b 1fff      	ROL  R31
00250c 1f66      	ROL  R22
00250d 957a      	DEC  R23
00250e f7cb      	BRVC __ADDF1210
                 
                 __ZERORES:
00250f 27ee      	CLR  R30
002510 27ff      	CLR  R31
002511 2766      	CLR  R22
002512 2777      	CLR  R23
002513 915f      	POP  R21
002514 9508      	RET
                 
                 __MINRES:
002515 efef      	SER  R30
002516 efff      	SER  R31
002517 e76f      	LDI  R22,0x7F
002518 ef7f      	SER  R23
002519 915f      	POP  R21
00251a 9508      	RET
                 
                 __MAXRES:
00251b efef      	SER  R30
00251c efff      	SER  R31
00251d e76f      	LDI  R22,0x7F
00251e e77f      	LDI  R23,0x7F
00251f 915f      	POP  R21
002520 9508      	RET
                 
                 __MULF12:
002521 935f      	PUSH R21
002522 df2a      	RCALL __UNPACK
002523 3870      	CPI  R23,0x80
002524 f351      	BREQ __ZERORES
002525 3890      	CPI  R25,0x80
002526 f341      	BREQ __ZERORES
002527 2401      	EOR  R0,R1
002528 9408      	SEC
002529 1f79      	ADC  R23,R25
00252a f423      	BRVC __MULF124
00252b f31c      	BRLT __ZERORES
                 __MULF125:
00252c 2000      	TST  R0
00252d f33a      	BRMI __MINRES
00252e cfec      	RJMP __MAXRES
                 __MULF124:
00252f 920f      	PUSH R0
002530 931f      	PUSH R17
002531 932f      	PUSH R18
002532 933f      	PUSH R19
002533 934f      	PUSH R20
002534 2711      	CLR  R17
002535 2722      	CLR  R18
002536 2799      	CLR  R25
002537 9f68      	MUL  R22,R24
002538 01a0      	MOVW R20,R0
002539 9f8f      	MUL  R24,R31
00253a 2d30      	MOV  R19,R0
00253b 0d41      	ADD  R20,R1
00253c 1f59      	ADC  R21,R25
00253d 9f6b      	MUL  R22,R27
00253e 0d30      	ADD  R19,R0
00253f 1d41      	ADC  R20,R1
002540 1f59      	ADC  R21,R25
002541 9f8e      	MUL  R24,R30
002542 d027      	RCALL __MULF126
002543 9fbf      	MUL  R27,R31
002544 d025      	RCALL __MULF126
002545 9f6a      	MUL  R22,R26
002546 d023      	RCALL __MULF126
002547 9fbe      	MUL  R27,R30
002548 d01d      	RCALL __MULF127
002549 9faf      	MUL  R26,R31
00254a d01b      	RCALL __MULF127
00254b 9fae      	MUL  R26,R30
00254c 0d11      	ADD  R17,R1
00254d 1f29      	ADC  R18,R25
00254e 1f39      	ADC  R19,R25
00254f 1f49      	ADC  R20,R25
002550 1f59      	ADC  R21,R25
002551 2fe3      	MOV  R30,R19
002552 2ff4      	MOV  R31,R20
002553 2f65      	MOV  R22,R21
002554 2f52      	MOV  R21,R18
002555 914f      	POP  R20
002556 913f      	POP  R19
002557 912f      	POP  R18
002558 911f      	POP  R17
002559 900f      	POP  R0
00255a 2366      	TST  R22
00255b f02a      	BRMI __MULF122
00255c 0f55      	LSL  R21
00255d 1fee      	ROL  R30
00255e 1fff      	ROL  R31
00255f 1f66      	ROL  R22
002560 c002      	RJMP __MULF123
                 __MULF122:
002561 9573      	INC  R23
002562 f24b      	BRVS __MULF125
                 __MULF123:
002563 decd      	RCALL __ROUND_REPACK
002564 915f      	POP  R21
002565 9508      	RET
                 
                 __MULF127:
002566 0d10      	ADD  R17,R0
002567 1d21      	ADC  R18,R1
002568 1f39      	ADC  R19,R25
002569 c002      	RJMP __MULF128
                 __MULF126:
00256a 0d20      	ADD  R18,R0
00256b 1d31      	ADC  R19,R1
                 __MULF128:
00256c 1f49      	ADC  R20,R25
00256d 1f59      	ADC  R21,R25
00256e 9508      	RET
                 
                 __DIVF21:
00256f 935f      	PUSH R21
002570 dedc      	RCALL __UNPACK
002571 3870      	CPI  R23,0x80
002572 f421      	BRNE __DIVF210
002573 2011      	TST  R1
                 __DIVF211:
002574 f40a      	BRPL __DIVF219
002575 cf9f      	RJMP __MINRES
                 __DIVF219:
002576 cfa4      	RJMP __MAXRES
                 __DIVF210:
002577 3890      	CPI  R25,0x80
002578 f409      	BRNE __DIVF218
                 __DIVF217:
002579 cf95      	RJMP __ZERORES
                 __DIVF218:
00257a 2401      	EOR  R0,R1
00257b 9408      	SEC
00257c 0b97      	SBC  R25,R23
00257d f41b      	BRVC __DIVF216
00257e f3d4      	BRLT __DIVF217
00257f 2000      	TST  R0
002580 cff3      	RJMP __DIVF211
                 __DIVF216:
002581 2f79      	MOV  R23,R25
002582 931f      	PUSH R17
002583 932f      	PUSH R18
002584 933f      	PUSH R19
002585 934f      	PUSH R20
002586 2411      	CLR  R1
002587 2711      	CLR  R17
002588 2722      	CLR  R18
002589 2733      	CLR  R19
00258a 2744      	CLR  R20
00258b 2755      	CLR  R21
00258c e290      	LDI  R25,32
                 __DIVF212:
00258d 17ae      	CP   R26,R30
00258e 07bf      	CPC  R27,R31
00258f 0786      	CPC  R24,R22
002590 0741      	CPC  R20,R17
002591 f030      	BRLO __DIVF213
002592 1bae      	SUB  R26,R30
002593 0bbf      	SBC  R27,R31
002594 0b86      	SBC  R24,R22
002595 0b41      	SBC  R20,R17
002596 9408      	SEC
002597 c001      	RJMP __DIVF214
                 __DIVF213:
002598 9488      	CLC
                 __DIVF214:
002599 1f55      	ROL  R21
00259a 1f22      	ROL  R18
00259b 1f33      	ROL  R19
00259c 1c11      	ROL  R1
00259d 1faa      	ROL  R26
00259e 1fbb      	ROL  R27
00259f 1f88      	ROL  R24
0025a0 1f44      	ROL  R20
0025a1 959a      	DEC  R25
0025a2 f751      	BRNE __DIVF212
0025a3 01f9      	MOVW R30,R18
0025a4 2d61      	MOV  R22,R1
0025a5 914f      	POP  R20
0025a6 913f      	POP  R19
0025a7 912f      	POP  R18
0025a8 911f      	POP  R17
0025a9 2366      	TST  R22
0025aa f032      	BRMI __DIVF215
0025ab 0f55      	LSL  R21
0025ac 1fee      	ROL  R30
0025ad 1fff      	ROL  R31
0025ae 1f66      	ROL  R22
0025af 957a      	DEC  R23
0025b0 f243      	BRVS __DIVF217
                 __DIVF215:
0025b1 de7f      	RCALL __ROUND_REPACK
0025b2 915f      	POP  R21
0025b3 9508      	RET
                 
                 __ANEGW1:
0025b4 95f1      	NEG  R31
0025b5 95e1      	NEG  R30
0025b6 40f0      	SBCI R31,0
0025b7 9508      	RET
                 
                 __ANEGD1:
0025b8 95f0      	COM  R31
0025b9 9560      	COM  R22
0025ba 9570      	COM  R23
0025bb 95e1      	NEG  R30
0025bc 4fff      	SBCI R31,-1
0025bd 4f6f      	SBCI R22,-1
0025be 4f7f      	SBCI R23,-1
0025bf 9508      	RET
                 
                 __LSLW2:
0025c0 0fee      	LSL  R30
0025c1 1fff      	ROL  R31
0025c2 0fee      	LSL  R30
0025c3 1fff      	ROL  R31
0025c4 9508      	RET
                 
                 __ASRW8:
0025c5 2fef      	MOV  R30,R31
0025c6 27ff      	CLR  R31
0025c7 fde7      	SBRC R30,7
0025c8 efff      	SER  R31
0025c9 9508      	RET
                 
                 __CWD1:
0025ca 2f6f      	MOV  R22,R31
0025cb 0f66      	ADD  R22,R22
0025cc 0b66      	SBC  R22,R22
0025cd 2f76      	MOV  R23,R22
0025ce 9508      	RET
                 
                 __CWD2:
0025cf 2f8b      	MOV  R24,R27
0025d0 0f88      	ADD  R24,R24
0025d1 0b88      	SBC  R24,R24
0025d2 2f98      	MOV  R25,R24
0025d3 9508      	RET
                 
                 __MULW12U:
0025d4 9ffa      	MUL  R31,R26
0025d5 2df0      	MOV  R31,R0
0025d6 9feb      	MUL  R30,R27
0025d7 0df0      	ADD  R31,R0
0025d8 9fea      	MUL  R30,R26
0025d9 2de0      	MOV  R30,R0
0025da 0df1      	ADD  R31,R1
0025db 9508      	RET
                 
                 __MULD12U:
0025dc 9f7a      	MUL  R23,R26
0025dd 2d70      	MOV  R23,R0
0025de 9f6b      	MUL  R22,R27
0025df 0d70      	ADD  R23,R0
0025e0 9ff8      	MUL  R31,R24
0025e1 0d70      	ADD  R23,R0
0025e2 9fe9      	MUL  R30,R25
0025e3 0d70      	ADD  R23,R0
0025e4 9f6a      	MUL  R22,R26
0025e5 2d60      	MOV  R22,R0
0025e6 0d71      	ADD  R23,R1
0025e7 9ffb      	MUL  R31,R27
0025e8 0d60      	ADD  R22,R0
0025e9 1d71      	ADC  R23,R1
0025ea 9fe8      	MUL  R30,R24
0025eb 0d60      	ADD  R22,R0
0025ec 1d71      	ADC  R23,R1
0025ed 2788      	CLR  R24
0025ee 9ffa      	MUL  R31,R26
0025ef 2df0      	MOV  R31,R0
0025f0 0d61      	ADD  R22,R1
0025f1 1f78      	ADC  R23,R24
0025f2 9feb      	MUL  R30,R27
0025f3 0df0      	ADD  R31,R0
0025f4 1d61      	ADC  R22,R1
0025f5 1f78      	ADC  R23,R24
0025f6 9fea      	MUL  R30,R26
0025f7 2de0      	MOV  R30,R0
0025f8 0df1      	ADD  R31,R1
0025f9 1f68      	ADC  R22,R24
0025fa 1f78      	ADC  R23,R24
0025fb 9508      	RET
                 
                 __MULW12:
0025fc d059      	RCALL __CHKSIGNW
0025fd dfd6      	RCALL __MULW12U
0025fe f40e      	BRTC __MULW121
0025ff dfb4      	RCALL __ANEGW1
                 __MULW121:
002600 9508      	RET
                 
                 __MULD12:
002601 d062      	RCALL __CHKSIGND
002602 dfd9      	RCALL __MULD12U
002603 f40e      	BRTC __MULD121
002604 dfb3      	RCALL __ANEGD1
                 __MULD121:
002605 9508      	RET
                 
                 __DIVW21U:
002606 2400      	CLR  R0
002607 2411      	CLR  R1
002608 e190      	LDI  R25,16
                 __DIVW21U1:
002609 0faa      	LSL  R26
00260a 1fbb      	ROL  R27
00260b 1c00      	ROL  R0
00260c 1c11      	ROL  R1
00260d 1a0e      	SUB  R0,R30
00260e 0a1f      	SBC  R1,R31
00260f f418      	BRCC __DIVW21U2
002610 0e0e      	ADD  R0,R30
002611 1e1f      	ADC  R1,R31
002612 c001      	RJMP __DIVW21U3
                 __DIVW21U2:
002613 60a1      	SBR  R26,1
                 __DIVW21U3:
002614 959a      	DEC  R25
002615 f799      	BRNE __DIVW21U1
002616 01fd      	MOVW R30,R26
002617 01d0      	MOVW R26,R0
002618 9508      	RET
                 
                 __DIVW21:
002619 d03c      	RCALL __CHKSIGNW
00261a dfeb      	RCALL __DIVW21U
00261b f40e      	BRTC __DIVW211
00261c df97      	RCALL __ANEGW1
                 __DIVW211:
00261d 9508      	RET
                 
                 __DIVD21U:
00261e 933f      	PUSH R19
00261f 934f      	PUSH R20
002620 935f      	PUSH R21
002621 2400      	CLR  R0
002622 2411      	CLR  R1
002623 2744      	CLR  R20
002624 2755      	CLR  R21
002625 e230      	LDI  R19,32
                 __DIVD21U1:
002626 0faa      	LSL  R26
002627 1fbb      	ROL  R27
002628 1f88      	ROL  R24
002629 1f99      	ROL  R25
00262a 1c00      	ROL  R0
00262b 1c11      	ROL  R1
00262c 1f44      	ROL  R20
00262d 1f55      	ROL  R21
00262e 1a0e      	SUB  R0,R30
00262f 0a1f      	SBC  R1,R31
002630 0b46      	SBC  R20,R22
002631 0b57      	SBC  R21,R23
002632 f428      	BRCC __DIVD21U2
002633 0e0e      	ADD  R0,R30
002634 1e1f      	ADC  R1,R31
002635 1f46      	ADC  R20,R22
002636 1f57      	ADC  R21,R23
002637 c001      	RJMP __DIVD21U3
                 __DIVD21U2:
002638 60a1      	SBR  R26,1
                 __DIVD21U3:
002639 953a      	DEC  R19
00263a f759      	BRNE __DIVD21U1
00263b 01fd      	MOVW R30,R26
00263c 01bc      	MOVW R22,R24
00263d 01d0      	MOVW R26,R0
00263e 01ca      	MOVW R24,R20
00263f 915f      	POP  R21
002640 914f      	POP  R20
002641 913f      	POP  R19
002642 9508      	RET
                 
                 __DIVD21:
002643 d020      	RCALL __CHKSIGND
002644 dfd9      	RCALL __DIVD21U
002645 f40e      	BRTC __DIVD211
002646 df71      	RCALL __ANEGD1
                 __DIVD211:
002647 9508      	RET
                 
                 __MODW21:
002648 94e8      	CLT
002649 ffb7      	SBRS R27,7
00264a c004      	RJMP __MODW211
00264b 95a0      	COM  R26
00264c 95b0      	COM  R27
00264d 9611      	ADIW R26,1
00264e 9468      	SET
                 __MODW211:
00264f fdf7      	SBRC R31,7
002650 df63      	RCALL __ANEGW1
002651 dfb4      	RCALL __DIVW21U
002652 01fd      	MOVW R30,R26
002653 f40e      	BRTC __MODW212
002654 df5f      	RCALL __ANEGW1
                 __MODW212:
002655 9508      	RET
                 
                 __CHKSIGNW:
002656 94e8      	CLT
002657 fff7      	SBRS R31,7
002658 c002      	RJMP __CHKSW1
002659 df5a      	RCALL __ANEGW1
00265a 9468      	SET
                 __CHKSW1:
00265b ffb7      	SBRS R27,7
00265c c006      	RJMP __CHKSW2
00265d 95a0      	COM  R26
00265e 95b0      	COM  R27
00265f 9611      	ADIW R26,1
002660 f800      	BLD  R0,0
002661 9403      	INC  R0
002662 fa00      	BST  R0,0
                 __CHKSW2:
002663 9508      	RET
                 
                 __CHKSIGND:
002664 94e8      	CLT
002665 ff77      	SBRS R23,7
002666 c002      	RJMP __CHKSD1
002667 df50      	RCALL __ANEGD1
002668 9468      	SET
                 __CHKSD1:
002669 ff97      	SBRS R25,7
00266a c00b      	RJMP __CHKSD2
00266b 2400      	CLR  R0
00266c 95a0      	COM  R26
00266d 95b0      	COM  R27
00266e 9580      	COM  R24
00266f 9590      	COM  R25
002670 9611      	ADIW R26,1
002671 1d80      	ADC  R24,R0
002672 1d90      	ADC  R25,R0
002673 f800      	BLD  R0,0
002674 9403      	INC  R0
002675 fa00      	BST  R0,0
                 __CHKSD2:
002676 9508      	RET
                 
                 __GETW1P:
002677 91ed      	LD   R30,X+
002678 91fc      	LD   R31,X
002679 9711      	SBIW R26,1
00267a 9508      	RET
                 
                 __PUTDP1:
00267b 93ed      	ST   X+,R30
00267c 93fd      	ST   X+,R31
00267d 936d      	ST   X+,R22
00267e 937c      	ST   X,R23
00267f 9508      	RET
                 
                 __GETW1PF:
002680 9005      	LPM  R0,Z+
002681 91f4      	LPM  R31,Z
002682 2de0      	MOV  R30,R0
002683 9508      	RET
                 
                 __PUTD1S0:
002684 83e8      	ST   Y,R30
002685 83f9      	STD  Y+1,R31
002686 836a      	STD  Y+2,R22
002687 837b      	STD  Y+3,R23
002688 9508      	RET
                 
                 __PUTPARD1:
002689 937a      	ST   -Y,R23
00268a 936a      	ST   -Y,R22
00268b 93fa      	ST   -Y,R31
00268c 93ea      	ST   -Y,R30
00268d 9508      	RET
                 
                 __PUTPARD2:
00268e 939a      	ST   -Y,R25
00268f 938a      	ST   -Y,R24
002690 93ba      	ST   -Y,R27
002691 93aa      	ST   -Y,R26
002692 9508      	RET
                 
                 __SWAPD12:
002693 2e18      	MOV  R1,R24
002694 2f86      	MOV  R24,R22
002695 2d61      	MOV  R22,R1
002696 2e19      	MOV  R1,R25
002697 2f97      	MOV  R25,R23
002698 2d71      	MOV  R23,R1
                 
                 __SWAPW12:
002699 2e1b      	MOV  R1,R27
00269a 2fbf      	MOV  R27,R31
00269b 2df1      	MOV  R31,R1
                 
                 __SWAPB12:
00269c 2e1a      	MOV  R1,R26
00269d 2fae      	MOV  R26,R30
00269e 2de1      	MOV  R30,R1
00269f 9508      	RET
                 
                 __EEPROMRDW:
0026a0 9611      	ADIW R26,1
0026a1 d002      	RCALL __EEPROMRDB
0026a2 2ffe      	MOV  R31,R30
0026a3 9711      	SBIW R26,1
                 
                 __EEPROMRDB:
0026a4 99e1      	SBIC EECR,EEWE
0026a5 cffe      	RJMP __EEPROMRDB
0026a6 93ff      	PUSH R31
0026a7 b7ff      	IN   R31,SREG
0026a8 94f8      	CLI
0026a9 bbae      	OUT  EEARL,R26
0026aa bbbf      	OUT  EEARH,R27
0026ab 9ae0      	SBI  EECR,EERE
0026ac b3ed      	IN   R30,EEDR
0026ad bfff      	OUT  SREG,R31
0026ae 91ff      	POP  R31
0026af 9508      	RET
                 
                 __EEPROMWRW:
0026b0 d007      	RCALL __EEPROMWRB
0026b1 9611      	ADIW R26,1
0026b2 93ef      	PUSH R30
0026b3 2fef      	MOV  R30,R31
0026b4 d003      	RCALL __EEPROMWRB
0026b5 91ef      	POP  R30
0026b6 9711      	SBIW R26,1
0026b7 9508      	RET
                 
                 __EEPROMWRB:
0026b8 9be1      	SBIS EECR,EEWE
0026b9 c002      	RJMP __EEPROMWRB1
0026ba 95a8      	WDR
0026bb cffc      	RJMP __EEPROMWRB
                 __EEPROMWRB1:
0026bc b79f      	IN   R25,SREG
0026bd 94f8      	CLI
0026be bbae      	OUT  EEARL,R26
0026bf bbbf      	OUT  EEARH,R27
0026c0 9ae0      	SBI  EECR,EERE
0026c1 b38d      	IN   R24,EEDR
0026c2 17e8      	CP   R30,R24
0026c3 f019      	BREQ __EEPROMWRB0
0026c4 bbed      	OUT  EEDR,R30
0026c5 9ae2      	SBI  EECR,EEMWE
0026c6 9ae1      	SBI  EECR,EEWE
                 __EEPROMWRB0:
0026c7 bf9f      	OUT  SREG,R25
0026c8 9508      	RET
                 
                 __SAVELOCR6:
0026c9 935a      	ST   -Y,R21
                 __SAVELOCR5:
0026ca 934a      	ST   -Y,R20
                 __SAVELOCR4:
0026cb 933a      	ST   -Y,R19
                 __SAVELOCR3:
0026cc 932a      	ST   -Y,R18
                 __SAVELOCR2:
0026cd 931a      	ST   -Y,R17
0026ce 930a      	ST   -Y,R16
0026cf 9508      	RET
                 
                 __LOADLOCR6:
0026d0 815d      	LDD  R21,Y+5
                 __LOADLOCR5:
0026d1 814c      	LDD  R20,Y+4
                 __LOADLOCR4:
0026d2 813b      	LDD  R19,Y+3
                 __LOADLOCR3:
0026d3 812a      	LDD  R18,Y+2
                 __LOADLOCR2:
0026d4 8119      	LDD  R17,Y+1
0026d5 8108      	LD   R16,Y
0026d6 9508      	RET
                 
                 __INITLOCB:
                 __INITLOCW:
0026d7 0fac      	ADD  R26,R28
0026d8 1fbd      	ADC  R27,R29
                 __INITLOC0:
0026d9 9005      	LPM  R0,Z+
0026da 920d      	ST   X+,R0
0026db 958a      	DEC  R24
0026dc f7e1      	BRNE __INITLOC0
0026dd 9508      	RET
                 
                 ;END OF CODE MARKER
                 __END_OF_CODE:


RESOURCE USE INFORMATION
------------------------

Notice:
The register and instruction counts are symbol table hit counts,
and hence implicitly used resources are not counted, eg, the
'lpm' instruction without operands implicitly uses r0 and z,
none of which are counted.

x,y,z are separate entities in the symbol table and are
counted separately from r26..r31 here.

.dseg memory usage only counts static data declared with .byte

ATmega32A register use summary:
r0 : 170 r1 :  55 r2 :  21 r3 :  54 r4 :  11 r5 :   8 r6 :  11 r7 :   8 
r8 :   5 r9 :   2 r10:  21 r11:   6 r12:   4 r13:   0 r14:   0 r15:   4 
r16: 193 r17: 114 r18: 117 r19:  83 r20:  71 r21: 106 r22: 150 r23: 106 
r24: 107 r25:  86 r26:1343 r27: 857 r28:  59 r29:   2 r30:2302 r31:1537 
x  : 199 y  :1034 z  :  25 
Registers used: 33 out of 35 (94.3%)

ATmega32A instruction use summary:
.lds  :   0 .lds.l:   0 .sts  :   0 .sts.l:   0 adc   : 290 add   : 281 
adiw  : 105 and   :  16 andi  :   7 asr   :   0 bclr  :   0 bld   :  25 
brbc  :   0 brbs  :   0 brcc  :   7 brcs  :   0 break :   0 breq  :  78 
brge  :  38 brhc  :   0 brhs  :   0 brid  :   0 brie  :   0 brlo  :  10 
brlt  :  74 brmi  :  10 brne  : 147 brpl  :  11 brsh  :  11 brtc  :   6 
brts  :   1 brvc  :   4 brvs  :   4 bset  :   0 bst   :   2 call  : 463 
cbi   :  47 cbr   :   0 clc   :   2 clh   :   0 cli   :   7 cln   :   0 
clr   :  69 cls   :   0 clt   :  16 clv   :   0 clz   :   0 com   :  20 
cp    :  60 cpc   : 194 cpi   : 160 cpse  :   0 dec   :  14 des   :   0 
eor   :  13 fmul  :   0 fmuls :   0 fmulsu:   0 icall :   0 ijmp  :   0 
in    :   9 inc   :   4 jmp   :  22 ld    :  70 ldd   : 483 ldi   :1435 
lds   : 488 lpm   :  11 lsl   : 252 lsr   :   2 mov   :  63 movw  : 371 
mul   :  22 muls  :   0 mulsu :   0 neg   :   4 nop   :   1 or    :   1 
ori   :   1 out   :  69 pop   :  94 push  : 102 rcall :  92 ret   :  77 
reti  :   3 rjmp  : 363 rol   : 271 ror   :  12 sbc   :  19 sbci  :  57 
sbi   :  59 sbic  :  14 sbis  :   5 sbiw  : 151 sbr   :   2 sbrc  :  26 
sbrs  :  34 sec   :   4 seh   :   0 sei   :   5 sen   :   0 ser   :   9 
ses   :   0 set   :  16 sev   :   0 sez   :   0 sleep :   0 spm   :   0 
st    : 515 std   : 180 sts   : 160 sub   :  13 subi  :  62 swap  :   0 
tst   :  23 wdr   :   2 
Instructions used: 78 out of 116 (67.2%)

ATmega32A memory use summary [bytes]:
Segment   Begin    End      Code   Data   Used    Size   Use%
---------------------------------------------------------------
[.cseg] 0x000000 0x004dbc  18004   1896  19900   32768  60.7%
[.dseg] 0x000060 0x0007e1      0   1665   1665    2048  81.3%
[.eseg] 0x000000 0x0000b0      0    176    176    1024  17.2%

Assembly complete, 0 errors, 29 warnings
